
========================================================================

** ELF Header Information

    File Name: .\SDR_Pad.axf

    Machine class: ELFCLASS32 (32-bit)
    Data encoding: ELFDATA2LSB (Little endian)
    Header version: EV_CURRENT (Current version)
    Operating System ABI: none
    ABI Version: 0
    File Type: ET_EXEC (Executable) (2)
    Machine: EM_ARM (ARM)

    Image Entry point: Not specified
    Flags: EF_ARM_ABI_FLOAT_SOFT (0x05000200)

    ARM ELF revision: 5 (ABI version 2)

    Conforms to Soft float procedure-call standard

    Built with
    Component: ARM Compiler 5.06 update 6 (build 750) Tool: armasm [4d35ec]
    Component: ARM Compiler 5.06 update 6 (build 750) Tool: armlink [4d35ed]

    Header size: 52 bytes (0x34)
    Program header entry size: 32 bytes (0x20)
    Section header entry size: 40 bytes (0x28)

    Program header entries: 1
    Section header entries: 16

    Program header offset: 77472 (0x00012ea0)
    Section header offset: 77504 (0x00012ec0)

    Section header string table index: 15

========================================================================

** Program header #0

    Type          : PT_LOAD (1)
    File Offset   : 52 (0x34)
    Virtual Addr  : 0x00000000
    Physical Addr : 0x00000000
    Size in file  : 29380 bytes (0x72c4)
    Size in memory: 31948 bytes (0x7ccc)
    Flags         : PF_X + PF_W + PF_R (0x7)
    Alignment     : 16


========================================================================

** Section #1

    Name        : ER_IROM1
    Type        : SHT_PROGBITS (0x00000001)
    Flags       : SHF_ALLOC + SHF_EXECINSTR (0x00000006)
    Addr        : 0x00000000
    File Offset : 52 (0x34)
    Size        : 29324 bytes (0x728c)
    Link        : SHN_UNDEF
    Info        : 0
    Alignment   : 4
    Entry Size  : 0

    $d.realdata
    RESET
    __Vectors
        0x00000000:    20000a40    @..     DCD    536873536
        0x00000004:    000000f1    ....    DCD    241
        0x00000008:    00000000    ....    DCD    0
        0x0000000c:    00000000    ....    DCD    0
        0x00000010:    00000000    ....    DCD    0
        0x00000014:    00000000    ....    DCD    0
        0x00000018:    00000000    ....    DCD    0
        0x0000001c:    00000000    ....    DCD    0
        0x00000020:    00000000    ....    DCD    0
        0x00000024:    00000000    ....    DCD    0
        0x00000028:    00000000    ....    DCD    0
        0x0000002c:    00000000    ....    DCD    0
        0x00000030:    00000000    ....    DCD    0
        0x00000034:    00000000    ....    DCD    0
        0x00000038:    00000000    ....    DCD    0
        0x0000003c:    00000000    ....    DCD    0
        0x00000040:    000000f9    ....    DCD    249
        0x00000044:    00000101    ....    DCD    257
        0x00000048:    00000109    ....    DCD    265
    $t
    !!!main
    __main
        0x0000004c:    f000f802    ....    BL       __scatterload ; 0x54
        0x00000050:    f000f83e    ..>.    BL       __rt_entry ; 0xd0
    !!!scatter
    __scatterload
    __scatterload_rt2
    __scatterload_rt2_thumb_only
        0x00000054:    a00c        ..      ADR      r0,{pc}+0x34 ; 0x88
        0x00000056:    c830        0.      LDM      r0!,{r4,r5}
        0x00000058:    3808        .8      SUBS     r0,r0,#8
        0x0000005a:    1824        $.      ADDS     r4,r4,r0
        0x0000005c:    182d        -.      ADDS     r5,r5,r0
        0x0000005e:    46a2        .F      MOV      r10,r4
        0x00000060:    1e67        g.      SUBS     r7,r4,#1
        0x00000062:    46ab        .F      MOV      r11,r5
    __scatterload_null
        0x00000064:    4654        TF      MOV      r4,r10
        0x00000066:    465d        ]F      MOV      r5,r11
        0x00000068:    42ac        .B      CMP      r4,r5
        0x0000006a:    d101        ..      BNE      0x70 ; __scatterload_null + 12
        0x0000006c:    f000f830    ..0.    BL       __rt_entry ; 0xd0
        0x00000070:    467e        ~F      MOV      r6,pc
        0x00000072:    3e0f        .>      SUBS     r6,r6,#0xf
        0x00000074:    cc0f        ..      LDM      r4!,{r0-r3}
        0x00000076:    46b6        .F      MOV      lr,r6
        0x00000078:    2601        .&      MOVS     r6,#1
        0x0000007a:    4233        3B      TST      r3,r6
        0x0000007c:    d000        ..      BEQ      0x80 ; __scatterload_null + 28
        0x0000007e:    1afb        ..      SUBS     r3,r7,r3
        0x00000080:    46a2        .F      MOV      r10,r4
        0x00000082:    46ab        .F      MOV      r11,r5
        0x00000084:    4333        3C      ORRS     r3,r3,r6
        0x00000086:    4718        .G      BX       r3
    $d
        0x00000088:    000071e4    .q..    DCD    29156
        0x0000008c:    00007204    .r..    DCD    29188
    $t
    !!handler_copy
    __scatterload_copy
        0x00000090:    3a10        .:      SUBS     r2,r2,#0x10
        0x00000092:    d302        ..      BCC      0x9a ; __scatterload_copy + 10
        0x00000094:    c878        x.      LDM      r0!,{r3-r6}
        0x00000096:    c178        x.      STM      r1!,{r3-r6}
        0x00000098:    d8fa        ..      BHI      __scatterload_copy ; 0x90
        0x0000009a:    0752        R.      LSLS     r2,r2,#29
        0x0000009c:    d301        ..      BCC      0xa2 ; __scatterload_copy + 18
        0x0000009e:    c830        0.      LDM      r0!,{r4,r5}
        0x000000a0:    c130        0.      STM      r1!,{r4,r5}
        0x000000a2:    d501        ..      BPL      0xa8 ; __scatterload_copy + 24
        0x000000a4:    6804        .h      LDR      r4,[r0,#0]
        0x000000a6:    600c        .`      STR      r4,[r1,#0]
        0x000000a8:    4770        pG      BX       lr
        0x000000aa:    0000        ..      MOVS     r0,r0
    !!handler_zi
    __scatterload_zeroinit
        0x000000ac:    2300        .#      MOVS     r3,#0
        0x000000ae:    2400        .$      MOVS     r4,#0
        0x000000b0:    2500        .%      MOVS     r5,#0
        0x000000b2:    2600        .&      MOVS     r6,#0
        0x000000b4:    3a10        .:      SUBS     r2,r2,#0x10
        0x000000b6:    d301        ..      BCC      0xbc ; __scatterload_zeroinit + 16
        0x000000b8:    c178        x.      STM      r1!,{r3-r6}
        0x000000ba:    d8fb        ..      BHI      0xb4 ; __scatterload_zeroinit + 8
        0x000000bc:    0752        R.      LSLS     r2,r2,#29
        0x000000be:    d300        ..      BCC      0xc2 ; __scatterload_zeroinit + 22
        0x000000c0:    c130        0.      STM      r1!,{r4,r5}
        0x000000c2:    d500        ..      BPL      0xc6 ; __scatterload_zeroinit + 26
        0x000000c4:    600b        .`      STR      r3,[r1,#0]
        0x000000c6:    4770        pG      BX       lr
    .ARM.Collect$$libinit$$00000000
    __rt_lib_init
        0x000000c8:    b51f        ..      PUSH     {r0-r4,lr}
    .ARM.Collect$$libinit$$00000002
    .ARM.Collect$$libinit$$00000004
    .ARM.Collect$$libinit$$0000000A
    .ARM.Collect$$libinit$$0000000C
    .ARM.Collect$$libinit$$0000000E
    .ARM.Collect$$libinit$$00000011
    .ARM.Collect$$libinit$$00000013
    .ARM.Collect$$libinit$$00000015
    .ARM.Collect$$libinit$$00000017
    .ARM.Collect$$libinit$$00000019
    .ARM.Collect$$libinit$$0000001B
    .ARM.Collect$$libinit$$0000001D
    .ARM.Collect$$libinit$$0000001F
    .ARM.Collect$$libinit$$00000021
    .ARM.Collect$$libinit$$00000023
    .ARM.Collect$$libinit$$00000025
    .ARM.Collect$$libinit$$0000002C
    .ARM.Collect$$libinit$$0000002E
    .ARM.Collect$$libinit$$00000030
    .ARM.Collect$$libinit$$00000032
    .ARM.Collect$$libinit$$00000033
    __rt_lib_init_alloca_1
    __rt_lib_init_argv_1
    __rt_lib_init_atexit_1
    __rt_lib_init_clock_1
    __rt_lib_init_cpp_1
    __rt_lib_init_exceptions_1
    __rt_lib_init_fp_1
    __rt_lib_init_fp_trap_1
    __rt_lib_init_getenv_1
    __rt_lib_init_heap_1
    __rt_lib_init_lc_collate_1
    __rt_lib_init_lc_ctype_1
    __rt_lib_init_lc_monetary_1
    __rt_lib_init_lc_numeric_1
    __rt_lib_init_lc_time_1
    __rt_lib_init_preinit_1
    __rt_lib_init_rand_1
    __rt_lib_init_return
    __rt_lib_init_signal_1
    __rt_lib_init_stdio_1
    __rt_lib_init_user_alloc_1
        0x000000ca:    bd1f        ..      POP      {r0-r4,pc}
    .ARM.Collect$$libshutdown$$00000000
    __rt_lib_shutdown
        0x000000cc:    b510        ..      PUSH     {r4,lr}
    .ARM.Collect$$libshutdown$$00000002
    .ARM.Collect$$libshutdown$$00000004
    .ARM.Collect$$libshutdown$$00000007
    .ARM.Collect$$libshutdown$$0000000A
    .ARM.Collect$$libshutdown$$0000000C
    .ARM.Collect$$libshutdown$$0000000F
    .ARM.Collect$$libshutdown$$00000010
    __rt_lib_shutdown_cpp_1
    __rt_lib_shutdown_fp_trap_1
    __rt_lib_shutdown_heap_1
    __rt_lib_shutdown_return
    __rt_lib_shutdown_signal_1
    __rt_lib_shutdown_stdio_1
    __rt_lib_shutdown_user_alloc_1
        0x000000ce:    bd10        ..      POP      {r4,pc}
    .ARM.Collect$$rtentry$$00000000
    .ARM.Collect$$rtentry$$00000002
    .ARM.Collect$$rtentry$$00000004
    __rt_entry
    __rt_entry_presh_1
    __rt_entry_sh
        0x000000d0:    f000ff11    ....    BL       __user_setup_stackheap ; 0xef6
        0x000000d4:    4611        .F      MOV      r1,r2
    .ARM.Collect$$rtentry$$00000009
    .ARM.Collect$$rtentry$$0000000A
    __rt_entry_li
    __rt_entry_postsh_1
        0x000000d6:    f7fffff7    ....    BL       __rt_lib_init ; 0xc8
    .ARM.Collect$$rtentry$$0000000C
    .ARM.Collect$$rtentry$$0000000D
    __rt_entry_main
    __rt_entry_postli_1
        0x000000da:    f003f9fd    ....    BL       main ; 0x34d8
        0x000000de:    f000ff29    ..).    BL       exit ; 0xf34
    .ARM.Collect$$rtexit$$00000000
    __rt_exit
        0x000000e2:    b403        ..      PUSH     {r0,r1}
    .ARM.Collect$$rtexit$$00000002
    .ARM.Collect$$rtexit$$00000003
    __rt_exit_ls
    __rt_exit_prels_1
        0x000000e4:    f7fffff2    ....    BL       __rt_lib_shutdown ; 0xcc
    .ARM.Collect$$rtexit$$00000004
    __rt_exit_exit
        0x000000e8:    bc03        ..      POP      {r0,r1}
        0x000000ea:    f000ff2f    ../.    BL       _sys_exit ; 0xf4c
        0x000000ee:    0000        ..      MOVS     r0,r0
    .text
    Reset_Handler
        0x000000f0:    480a        .H      LDR      r0,[pc,#40] ; [0x11c] = 0x4d
        0x000000f2:    4680        .F      MOV      r8,r0
        0x000000f4:    46c1        .F      MOV      r9,r8
        0x000000f6:    4700        .G      BX       r0
    KEY_Handler
        0x000000f8:    b507        ..      PUSH     {r0-r2,lr}
        0x000000fa:    f000ff5d    ..].    BL       KEY ; 0xfb8
        0x000000fe:    bd07        ..      POP      {r0-r2,pc}
    Timer_Handler
        0x00000100:    b507        ..      PUSH     {r0-r2,lr}
        0x00000102:    f001fb4d    ..M.    BL       Timer_IRQ ; 0x17a0
        0x00000106:    bd07        ..      POP      {r0-r2,pc}
    UARTRX_Handler
        0x00000108:    b507        ..      PUSH     {r0-r2,lr}
        0x0000010a:    f001fb73    ..s.    BL       UARTRX_IRQ ; 0x17f4
        0x0000010e:    bd07        ..      POP      {r0-r2,pc}
    __user_initial_stackheap
        0x00000110:    4803        .H      LDR      r0,[pc,#12] ; [0x120] = 0x20000240
        0x00000112:    4904        .I      LDR      r1,[pc,#16] ; [0x124] = 0x20000a40
        0x00000114:    4a04        .J      LDR      r2,[pc,#16] ; [0x128] = 0x20000640
        0x00000116:    4b05        .K      LDR      r3,[pc,#20] ; [0x12c] = 0x20000640
        0x00000118:    4770        pG      BX       lr
    $d
        0x0000011a:    0000        ..      DCW    0
        0x0000011c:    0000004d    M...    DCD    77
        0x00000120:    20000240    @..     DCD    536871488
        0x00000124:    20000a40    @..     DCD    536873536
        0x00000128:    20000640    @..     DCD    536872512
        0x0000012c:    20000640    @..     DCD    536872512
    $t
    .text
    __aeabi_uidiv
    __aeabi_uidivmod
        0x00000130:    2200        ."      MOVS     r2,#0
        0x00000132:    0903        ..      LSRS     r3,r0,#4
        0x00000134:    428b        .B      CMP      r3,r1
        0x00000136:    d32c        ,.      BCC      0x192 ; __aeabi_idiv + 78
        0x00000138:    0a03        ..      LSRS     r3,r0,#8
        0x0000013a:    428b        .B      CMP      r3,r1
        0x0000013c:    d311        ..      BCC      0x162 ; __aeabi_idiv + 30
        0x0000013e:    2300        .#      MOVS     r3,#0
        0x00000140:    469c        .F      MOV      r12,r3
        0x00000142:    e04e        N.      B        0x1e2 ; __aeabi_idiv + 158
    __aeabi_idiv
    __aeabi_idivmod
        0x00000144:    4603        .F      MOV      r3,r0
        0x00000146:    430b        .C      ORRS     r3,r3,r1
        0x00000148:    d43c        <.      BMI      0x1c4 ; __aeabi_idiv + 128
        0x0000014a:    2200        ."      MOVS     r2,#0
        0x0000014c:    0843        C.      LSRS     r3,r0,#1
        0x0000014e:    428b        .B      CMP      r3,r1
        0x00000150:    d331        1.      BCC      0x1b6 ; __aeabi_idiv + 114
        0x00000152:    0903        ..      LSRS     r3,r0,#4
        0x00000154:    428b        .B      CMP      r3,r1
        0x00000156:    d31c        ..      BCC      0x192 ; __aeabi_idiv + 78
        0x00000158:    0a03        ..      LSRS     r3,r0,#8
        0x0000015a:    428b        .B      CMP      r3,r1
        0x0000015c:    d301        ..      BCC      0x162 ; __aeabi_idiv + 30
        0x0000015e:    4694        .F      MOV      r12,r2
        0x00000160:    e03f        ?.      B        0x1e2 ; __aeabi_idiv + 158
        0x00000162:    09c3        ..      LSRS     r3,r0,#7
        0x00000164:    428b        .B      CMP      r3,r1
        0x00000166:    d301        ..      BCC      0x16c ; __aeabi_idiv + 40
        0x00000168:    01cb        ..      LSLS     r3,r1,#7
        0x0000016a:    1ac0        ..      SUBS     r0,r0,r3
        0x0000016c:    4152        RA      ADCS     r2,r2,r2
        0x0000016e:    0983        ..      LSRS     r3,r0,#6
        0x00000170:    428b        .B      CMP      r3,r1
        0x00000172:    d301        ..      BCC      0x178 ; __aeabi_idiv + 52
        0x00000174:    018b        ..      LSLS     r3,r1,#6
        0x00000176:    1ac0        ..      SUBS     r0,r0,r3
        0x00000178:    4152        RA      ADCS     r2,r2,r2
        0x0000017a:    0943        C.      LSRS     r3,r0,#5
        0x0000017c:    428b        .B      CMP      r3,r1
        0x0000017e:    d301        ..      BCC      0x184 ; __aeabi_idiv + 64
        0x00000180:    014b        K.      LSLS     r3,r1,#5
        0x00000182:    1ac0        ..      SUBS     r0,r0,r3
        0x00000184:    4152        RA      ADCS     r2,r2,r2
        0x00000186:    0903        ..      LSRS     r3,r0,#4
        0x00000188:    428b        .B      CMP      r3,r1
        0x0000018a:    d301        ..      BCC      0x190 ; __aeabi_idiv + 76
        0x0000018c:    010b        ..      LSLS     r3,r1,#4
        0x0000018e:    1ac0        ..      SUBS     r0,r0,r3
        0x00000190:    4152        RA      ADCS     r2,r2,r2
        0x00000192:    08c3        ..      LSRS     r3,r0,#3
        0x00000194:    428b        .B      CMP      r3,r1
        0x00000196:    d301        ..      BCC      0x19c ; __aeabi_idiv + 88
        0x00000198:    00cb        ..      LSLS     r3,r1,#3
        0x0000019a:    1ac0        ..      SUBS     r0,r0,r3
        0x0000019c:    4152        RA      ADCS     r2,r2,r2
        0x0000019e:    0883        ..      LSRS     r3,r0,#2
        0x000001a0:    428b        .B      CMP      r3,r1
        0x000001a2:    d301        ..      BCC      0x1a8 ; __aeabi_idiv + 100
        0x000001a4:    008b        ..      LSLS     r3,r1,#2
        0x000001a6:    1ac0        ..      SUBS     r0,r0,r3
        0x000001a8:    4152        RA      ADCS     r2,r2,r2
        0x000001aa:    0843        C.      LSRS     r3,r0,#1
        0x000001ac:    428b        .B      CMP      r3,r1
        0x000001ae:    d301        ..      BCC      0x1b4 ; __aeabi_idiv + 112
        0x000001b0:    004b        K.      LSLS     r3,r1,#1
        0x000001b2:    1ac0        ..      SUBS     r0,r0,r3
        0x000001b4:    4152        RA      ADCS     r2,r2,r2
        0x000001b6:    1a41        A.      SUBS     r1,r0,r1
        0x000001b8:    d200        ..      BCS      0x1bc ; __aeabi_idiv + 120
        0x000001ba:    4601        .F      MOV      r1,r0
        0x000001bc:    4152        RA      ADCS     r2,r2,r2
        0x000001be:    4610        .F      MOV      r0,r2
        0x000001c0:    4770        pG      BX       lr
        0x000001c2:    e05d        ].      B        0x280 ; __aeabi_idiv + 316
        0x000001c4:    0fca        ..      LSRS     r2,r1,#31
        0x000001c6:    d000        ..      BEQ      0x1ca ; __aeabi_idiv + 134
        0x000001c8:    4249        IB      RSBS     r1,r1,#0
        0x000001ca:    1003        ..      ASRS     r3,r0,#32
        0x000001cc:    d300        ..      BCC      0x1d0 ; __aeabi_idiv + 140
        0x000001ce:    4240        @B      RSBS     r0,r0,#0
        0x000001d0:    4053        S@      EORS     r3,r3,r2
        0x000001d2:    2200        ."      MOVS     r2,#0
        0x000001d4:    469c        .F      MOV      r12,r3
        0x000001d6:    0903        ..      LSRS     r3,r0,#4
        0x000001d8:    428b        .B      CMP      r3,r1
        0x000001da:    d32d        -.      BCC      0x238 ; __aeabi_idiv + 244
        0x000001dc:    0a03        ..      LSRS     r3,r0,#8
        0x000001de:    428b        .B      CMP      r3,r1
        0x000001e0:    d312        ..      BCC      0x208 ; __aeabi_idiv + 196
        0x000001e2:    22fc        ."      MOVS     r2,#0xfc
        0x000001e4:    0189        ..      LSLS     r1,r1,#6
        0x000001e6:    ba12        ..      REV      r2,r2
        0x000001e8:    0a03        ..      LSRS     r3,r0,#8
        0x000001ea:    428b        .B      CMP      r3,r1
        0x000001ec:    d30c        ..      BCC      0x208 ; __aeabi_idiv + 196
        0x000001ee:    0189        ..      LSLS     r1,r1,#6
        0x000001f0:    1192        ..      ASRS     r2,r2,#6
        0x000001f2:    428b        .B      CMP      r3,r1
        0x000001f4:    d308        ..      BCC      0x208 ; __aeabi_idiv + 196
        0x000001f6:    0189        ..      LSLS     r1,r1,#6
        0x000001f8:    1192        ..      ASRS     r2,r2,#6
        0x000001fa:    428b        .B      CMP      r3,r1
        0x000001fc:    d304        ..      BCC      0x208 ; __aeabi_idiv + 196
        0x000001fe:    0189        ..      LSLS     r1,r1,#6
        0x00000200:    d03a        :.      BEQ      0x278 ; __aeabi_idiv + 308
        0x00000202:    1192        ..      ASRS     r2,r2,#6
        0x00000204:    e000        ..      B        0x208 ; __aeabi_idiv + 196
        0x00000206:    0989        ..      LSRS     r1,r1,#6
        0x00000208:    09c3        ..      LSRS     r3,r0,#7
        0x0000020a:    428b        .B      CMP      r3,r1
        0x0000020c:    d301        ..      BCC      0x212 ; __aeabi_idiv + 206
        0x0000020e:    01cb        ..      LSLS     r3,r1,#7
        0x00000210:    1ac0        ..      SUBS     r0,r0,r3
        0x00000212:    4152        RA      ADCS     r2,r2,r2
        0x00000214:    0983        ..      LSRS     r3,r0,#6
        0x00000216:    428b        .B      CMP      r3,r1
        0x00000218:    d301        ..      BCC      0x21e ; __aeabi_idiv + 218
        0x0000021a:    018b        ..      LSLS     r3,r1,#6
        0x0000021c:    1ac0        ..      SUBS     r0,r0,r3
        0x0000021e:    4152        RA      ADCS     r2,r2,r2
        0x00000220:    0943        C.      LSRS     r3,r0,#5
        0x00000222:    428b        .B      CMP      r3,r1
        0x00000224:    d301        ..      BCC      0x22a ; __aeabi_idiv + 230
        0x00000226:    014b        K.      LSLS     r3,r1,#5
        0x00000228:    1ac0        ..      SUBS     r0,r0,r3
        0x0000022a:    4152        RA      ADCS     r2,r2,r2
        0x0000022c:    0903        ..      LSRS     r3,r0,#4
        0x0000022e:    428b        .B      CMP      r3,r1
        0x00000230:    d301        ..      BCC      0x236 ; __aeabi_idiv + 242
        0x00000232:    010b        ..      LSLS     r3,r1,#4
        0x00000234:    1ac0        ..      SUBS     r0,r0,r3
        0x00000236:    4152        RA      ADCS     r2,r2,r2
        0x00000238:    08c3        ..      LSRS     r3,r0,#3
        0x0000023a:    428b        .B      CMP      r3,r1
        0x0000023c:    d301        ..      BCC      0x242 ; __aeabi_idiv + 254
        0x0000023e:    00cb        ..      LSLS     r3,r1,#3
        0x00000240:    1ac0        ..      SUBS     r0,r0,r3
        0x00000242:    4152        RA      ADCS     r2,r2,r2
        0x00000244:    0883        ..      LSRS     r3,r0,#2
        0x00000246:    428b        .B      CMP      r3,r1
        0x00000248:    d301        ..      BCC      0x24e ; __aeabi_idiv + 266
        0x0000024a:    008b        ..      LSLS     r3,r1,#2
        0x0000024c:    1ac0        ..      SUBS     r0,r0,r3
        0x0000024e:    4152        RA      ADCS     r2,r2,r2
        0x00000250:    d2d9        ..      BCS      0x206 ; __aeabi_idiv + 194
        0x00000252:    0843        C.      LSRS     r3,r0,#1
        0x00000254:    428b        .B      CMP      r3,r1
        0x00000256:    d301        ..      BCC      0x25c ; __aeabi_idiv + 280
        0x00000258:    004b        K.      LSLS     r3,r1,#1
        0x0000025a:    1ac0        ..      SUBS     r0,r0,r3
        0x0000025c:    4152        RA      ADCS     r2,r2,r2
        0x0000025e:    1a41        A.      SUBS     r1,r0,r1
        0x00000260:    d200        ..      BCS      0x264 ; __aeabi_idiv + 288
        0x00000262:    4601        .F      MOV      r1,r0
        0x00000264:    4663        cF      MOV      r3,r12
        0x00000266:    4152        RA      ADCS     r2,r2,r2
        0x00000268:    105b        [.      ASRS     r3,r3,#1
        0x0000026a:    4610        .F      MOV      r0,r2
        0x0000026c:    d301        ..      BCC      0x272 ; __aeabi_idiv + 302
        0x0000026e:    4240        @B      RSBS     r0,r0,#0
        0x00000270:    2b00        .+      CMP      r3,#0
        0x00000272:    d500        ..      BPL      0x276 ; __aeabi_idiv + 306
        0x00000274:    4249        IB      RSBS     r1,r1,#0
        0x00000276:    4770        pG      BX       lr
        0x00000278:    4663        cF      MOV      r3,r12
        0x0000027a:    105b        [.      ASRS     r3,r3,#1
        0x0000027c:    d300        ..      BCC      0x280 ; __aeabi_idiv + 316
        0x0000027e:    4240        @B      RSBS     r0,r0,#0
        0x00000280:    b501        ..      PUSH     {r0,lr}
        0x00000282:    2000        .       MOVS     r0,#0
        0x00000284:    46c0        .F      MOV      r8,r8
        0x00000286:    46c0        .F      MOV      r8,r8
        0x00000288:    bd02        ..      POP      {r1,pc}
    .text
    __use_two_region_memory
        0x0000028a:    4770        pG      BX       lr
    __rt_heap_escrow$2region
        0x0000028c:    4770        pG      BX       lr
    __rt_heap_expand$2region
        0x0000028e:    4770        pG      BX       lr
    .text
    _dadd1
        0x00000290:    b5f0        ..      PUSH     {r4-r7,lr}
        0x00000292:    460c        .F      MOV      r4,r1
        0x00000294:    1a87        ..      SUBS     r7,r0,r2
        0x00000296:    419c        .A      SBCS     r4,r4,r3
        0x00000298:    460d        .F      MOV      r5,r1
        0x0000029a:    1a86        ..      SUBS     r6,r0,r2
        0x0000029c:    419d        .A      SBCS     r5,r5,r3
        0x0000029e:    d203        ..      BCS      0x2a8 ; _dadd1 + 24
        0x000002a0:    1bc0        ..      SUBS     r0,r0,r7
        0x000002a2:    41a1        .A      SBCS     r1,r1,r4
        0x000002a4:    19d2        ..      ADDS     r2,r2,r7
        0x000002a6:    4163        cA      ADCS     r3,r3,r4
        0x000002a8:    0d0d        ..      LSRS     r5,r1,#20
        0x000002aa:    0d1f        ..      LSRS     r7,r3,#20
        0x000002ac:    4ec9        .N      LDR      r6,[pc,#804] ; [0x5d4] = 0x7ff
        0x000002ae:    1bec        ..      SUBS     r4,r5,r7
        0x000002b0:    43ae        .C      BICS     r6,r6,r5
        0x000002b2:    d05c        \.      BEQ      0x36e ; _dadd1 + 222
        0x000002b4:    057f        ..      LSLS     r7,r7,#21
        0x000002b6:    0d7f        ..      LSRS     r7,r7,#21
        0x000002b8:    2600        .&      MOVS     r6,#0
        0x000002ba:    2f00        ./      CMP      r7,#0
        0x000002bc:    d051        Q.      BEQ      0x362 ; _dadd1 + 210
        0x000002be:    052d        -.      LSLS     r5,r5,#20
        0x000002c0:    46ac        .F      MOV      r12,r5
        0x000002c2:    43a9        .C      BICS     r1,r1,r5
        0x000002c4:    02dd        ..      LSLS     r5,r3,#11
        0x000002c6:    2301        .#      MOVS     r3,#1
        0x000002c8:    0aed        ..      LSRS     r5,r5,#11
        0x000002ca:    051b        ..      LSLS     r3,r3,#20
        0x000002cc:    431d        .C      ORRS     r5,r5,r3
        0x000002ce:    2320         #      MOVS     r3,#0x20
        0x000002d0:    1b1b        ..      SUBS     r3,r3,r4
        0x000002d2:    d424        $.      BMI      0x31e ; _dadd1 + 142
        0x000002d4:    4617        .F      MOV      r7,r2
        0x000002d6:    40e7        .@      LSRS     r7,r7,r4
        0x000002d8:    1838        8.      ADDS     r0,r7,r0
        0x000002da:    4171        qA      ADCS     r1,r1,r6
        0x000002dc:    462f        /F      MOV      r7,r5
        0x000002de:    40e7        .@      LSRS     r7,r7,r4
        0x000002e0:    19cc        ..      ADDS     r4,r1,r7
        0x000002e2:    409d        .@      LSLS     r5,r5,r3
        0x000002e4:    1828        (.      ADDS     r0,r5,r0
        0x000002e6:    4631        1F      MOV      r1,r6
        0x000002e8:    4161        aA      ADCS     r1,r1,r4
        0x000002ea:    0d0c        ..      LSRS     r4,r1,#20
        0x000002ec:    d127        '.      BNE      0x33e ; _dadd1 + 174
        0x000002ee:    4461        aD      ADD      r1,r1,r12
        0x000002f0:    409a        .@      LSLS     r2,r2,r3
        0x000002f2:    d513        ..      BPL      0x31c ; _dadd1 + 140
        0x000002f4:    2300        .#      MOVS     r3,#0
        0x000002f6:    1c40        @.      ADDS     r0,r0,#1
        0x000002f8:    4159        YA      ADCS     r1,r1,r3
        0x000002fa:    0052        R.      LSLS     r2,r2,#1
        0x000002fc:    d10e        ..      BNE      0x31c ; _dadd1 + 140
        0x000002fe:    0840        @.      LSRS     r0,r0,#1
        0x00000300:    0040        @.      LSLS     r0,r0,#1
        0x00000302:    2201        ."      MOVS     r2,#1
        0x00000304:    004b        K.      LSLS     r3,r1,#1
        0x00000306:    0552        R.      LSLS     r2,r2,#21
        0x00000308:    42d3        .B      CMN      r3,r2
        0x0000030a:    d307        ..      BCC      0x31c ; _dadd1 + 140
        0x0000030c:    2005        .       MOVS     r0,#5
        0x0000030e:    0740        @.      LSLS     r0,r0,#29
        0x00000310:    42c1        .B      CMN      r1,r0
        0x00000312:    d501        ..      BPL      0x318 ; _dadd1 + 136
        0x00000314:    49b0        .I      LDR      r1,[pc,#704] ; [0x5d8] = 0xfff00000
        0x00000316:    e000        ..      B        0x31a ; _dadd1 + 138
        0x00000318:    49b0        .I      LDR      r1,[pc,#704] ; [0x5dc] = 0x7ff00000
        0x0000031a:    4630        0F      MOV      r0,r6
        0x0000031c:    bdf0        ..      POP      {r4-r7,pc}
        0x0000031e:    006b        k.      LSLS     r3,r5,#1
        0x00000320:    2a00        .*      CMP      r2,#0
        0x00000322:    d000        ..      BEQ      0x326 ; _dadd1 + 150
        0x00000324:    2201        ."      MOVS     r2,#1
        0x00000326:    189a        ..      ADDS     r2,r3,r2
        0x00000328:    231f        .#      MOVS     r3,#0x1f
        0x0000032a:    3c20         <      SUBS     r4,r4,#0x20
        0x0000032c:    1b1b        ..      SUBS     r3,r3,r4
        0x0000032e:    d501        ..      BPL      0x334 ; _dadd1 + 164
        0x00000330:    2300        .#      MOVS     r3,#0
        0x00000332:    e002        ..      B        0x33a ; _dadd1 + 170
        0x00000334:    40e5        .@      LSRS     r5,r5,r4
        0x00000336:    1828        (.      ADDS     r0,r5,r0
        0x00000338:    4171        qA      ADCS     r1,r1,r6
        0x0000033a:    0d0c        ..      LSRS     r4,r1,#20
        0x0000033c:    d0d7        ..      BEQ      0x2ee ; _dadd1 + 94
        0x0000033e:    2401        .$      MOVS     r4,#1
        0x00000340:    0524        $.      LSLS     r4,r4,#20
        0x00000342:    1909        ..      ADDS     r1,r1,r4
        0x00000344:    07c4        ..      LSLS     r4,r0,#31
        0x00000346:    07cd        ..      LSLS     r5,r1,#31
        0x00000348:    0840        @.      LSRS     r0,r0,#1
        0x0000034a:    0849        I.      LSRS     r1,r1,#1
        0x0000034c:    0fe4        ..      LSRS     r4,r4,#31
        0x0000034e:    4328        (C      ORRS     r0,r0,r5
        0x00000350:    4461        aD      ADD      r1,r1,r12
        0x00000352:    2c00        .,      CMP      r4,#0
        0x00000354:    d0d5        ..      BEQ      0x302 ; _dadd1 + 114
        0x00000356:    2400        .$      MOVS     r4,#0
        0x00000358:    1c40        @.      ADDS     r0,r0,#1
        0x0000035a:    4161        aA      ADCS     r1,r1,r4
        0x0000035c:    409a        .@      LSLS     r2,r2,r3
        0x0000035e:    d1d0        ..      BNE      0x302 ; _dadd1 + 114
        0x00000360:    e7cd        ..      B        0x2fe ; _dadd1 + 110
        0x00000362:    056a        j.      LSLS     r2,r5,#21
        0x00000364:    0d52        R.      LSRS     r2,r2,#21
        0x00000366:    d1d9        ..      BNE      0x31c ; _dadd1 + 140
        0x00000368:    0fc9        ..      LSRS     r1,r1,#31
        0x0000036a:    07c9        ..      LSLS     r1,r1,#31
        0x0000036c:    e7d5        ..      B        0x31a ; _dadd1 + 138
        0x0000036e:    4d9c        .M      LDR      r5,[pc,#624] ; [0x5e0] = 0xffe00000
        0x00000370:    004e        N.      LSLS     r6,r1,#1
        0x00000372:    2800        .(      CMP      r0,#0
        0x00000374:    d001        ..      BEQ      0x37a ; _dadd1 + 234
        0x00000376:    2401        .$      MOVS     r4,#1
        0x00000378:    e000        ..      B        0x37c ; _dadd1 + 236
        0x0000037a:    2400        .$      MOVS     r4,#0
        0x0000037c:    1934        4.      ADDS     r4,r6,r4
        0x0000037e:    005f        _.      LSLS     r7,r3,#1
        0x00000380:    2a00        .*      CMP      r2,#0
        0x00000382:    d001        ..      BEQ      0x388 ; _dadd1 + 248
        0x00000384:    2601        .&      MOVS     r6,#1
        0x00000386:    e000        ..      B        0x38a ; _dadd1 + 250
        0x00000388:    2600        .&      MOVS     r6,#0
        0x0000038a:    19be        ..      ADDS     r6,r7,r6
        0x0000038c:    4f95        .O      LDR      r7,[pc,#596] ; [0x5e4] = 0x7ff80000
        0x0000038e:    42ac        .B      CMP      r4,r5
        0x00000390:    d80c        ..      BHI      0x3ac ; _dadd1 + 284
        0x00000392:    42ae        .B      CMP      r6,r5
        0x00000394:    d80a        ..      BHI      0x3ac ; _dadd1 + 284
        0x00000396:    42b4        .B      CMP      r4,r6
        0x00000398:    d006        ..      BEQ      0x3a8 ; _dadd1 + 280
        0x0000039a:    2501        .%      MOVS     r5,#1
        0x0000039c:    056d        m.      LSLS     r5,r5,#21
        0x0000039e:    42ec        .B      CMN      r4,r5
        0x000003a0:    d0bc        ..      BEQ      0x31c ; _dadd1 + 140
        0x000003a2:    4610        .F      MOV      r0,r2
        0x000003a4:    4619        .F      MOV      r1,r3
        0x000003a6:    bdf0        ..      POP      {r4-r7,pc}
        0x000003a8:    4299        .B      CMP      r1,r3
        0x000003aa:    d0fc        ..      BEQ      0x3a6 ; _dadd1 + 278
        0x000003ac:    2000        .       MOVS     r0,#0
        0x000003ae:    4639        9F      MOV      r1,r7
        0x000003b0:    bdf0        ..      POP      {r4-r7,pc}
    _dsub1
        0x000003b2:    b5f0        ..      PUSH     {r4-r7,lr}
        0x000003b4:    b41f        ..      PUSH     {r0-r4}
        0x000003b6:    460c        .F      MOV      r4,r1
        0x000003b8:    460f        .F      MOV      r7,r1
        0x000003ba:    1a81        ..      SUBS     r1,r0,r2
        0x000003bc:    419f        .A      SBCS     r7,r7,r3
        0x000003be:    4625        %F      MOV      r5,r4
        0x000003c0:    1a86        ..      SUBS     r6,r0,r2
        0x000003c2:    419d        .A      SBCS     r5,r5,r3
        0x000003c4:    d206        ..      BCS      0x3d4 ; _dsub1 + 34
        0x000003c6:    2501        .%      MOVS     r5,#1
        0x000003c8:    07ed        ..      LSLS     r5,r5,#31
        0x000003ca:    406f        o@      EORS     r7,r7,r5
        0x000003cc:    1a40        @.      SUBS     r0,r0,r1
        0x000003ce:    41bc        .A      SBCS     r4,r4,r7
        0x000003d0:    1852        R.      ADDS     r2,r2,r1
        0x000003d2:    417b        {A      ADCS     r3,r3,r7
        0x000003d4:    0d21        !.      LSRS     r1,r4,#20
        0x000003d6:    0d1e        ..      LSRS     r6,r3,#20
        0x000003d8:    1b8d        ..      SUBS     r5,r1,r6
        0x000003da:    46ac        .F      MOV      r12,r5
        0x000003dc:    4d7d        }M      LDR      r5,[pc,#500] ; [0x5d4] = 0x7ff
        0x000003de:    438d        .C      BICS     r5,r5,r1
        0x000003e0:    d07e        ~.      BEQ      0x4e0 ; _dsub1 + 302
        0x000003e2:    0575        u.      LSLS     r5,r6,#21
        0x000003e4:    0d6d        m.      LSRS     r5,r5,#21
        0x000003e6:    d07c        |.      BEQ      0x4e2 ; _dsub1 + 304
        0x000003e8:    050d        ..      LSLS     r5,r1,#20
        0x000003ea:    46ae        .F      MOV      lr,r5
        0x000003ec:    43ac        .C      BICS     r4,r4,r5
        0x000003ee:    031b        ..      LSLS     r3,r3,#12
        0x000003f0:    0b1b        ..      LSRS     r3,r3,#12
        0x000003f2:    4d79        yM      LDR      r5,[pc,#484] ; [0x5d8] = 0xfff00000
        0x000003f4:    4252        RB      RSBS     r2,r2,#0
        0x000003f6:    419d        .A      SBCS     r5,r5,r3
        0x000003f8:    2320         #      MOVS     r3,#0x20
        0x000003fa:    4666        fF      MOV      r6,r12
        0x000003fc:    1b9b        ..      SUBS     r3,r3,r6
        0x000003fe:    d314        ..      BCC      0x42a ; _dsub1 + 120
        0x00000400:    4617        .F      MOV      r7,r2
        0x00000402:    40f7        .@      LSRS     r7,r7,r6
        0x00000404:    1838        8.      ADDS     r0,r7,r0
        0x00000406:    2600        .&      MOVS     r6,#0
        0x00000408:    9000        ..      STR      r0,[sp,#0]
        0x0000040a:    4174        tA      ADCS     r4,r4,r6
        0x0000040c:    4660        `F      MOV      r0,r12
        0x0000040e:    462f        /F      MOV      r7,r5
        0x00000410:    4107        .A      ASRS     r7,r7,r0
        0x00000412:    19e4        ..      ADDS     r4,r4,r7
        0x00000414:    9800        ..      LDR      r0,[sp,#0]
        0x00000416:    409d        .@      LSLS     r5,r5,r3
        0x00000418:    1828        (.      ADDS     r0,r5,r0
        0x0000041a:    4166        fA      ADCS     r6,r6,r4
        0x0000041c:    d416        ..      BMI      0x44c ; _dsub1 + 154
        0x0000041e:    4671        qF      MOV      r1,lr
        0x00000420:    1871        q.      ADDS     r1,r6,r1
        0x00000422:    409a        .@      LSLS     r2,r2,r3
        0x00000424:    d525        %.      BPL      0x472 ; _dsub1 + 192
        0x00000426:    2301        .#      MOVS     r3,#1
        0x00000428:    e020         .      B        0x46c ; _dsub1 + 186
        0x0000042a:    1893        ..      ADDS     r3,r2,r2
        0x0000042c:    462a        *F      MOV      r2,r5
        0x0000042e:    416a        jA      ADCS     r2,r2,r5
        0x00000430:    0052        R.      LSLS     r2,r2,#1
        0x00000432:    2b00        .+      CMP      r3,#0
        0x00000434:    d000        ..      BEQ      0x438 ; _dsub1 + 134
        0x00000436:    1c52        R.      ADDS     r2,r2,#1
        0x00000438:    231e        .#      MOVS     r3,#0x1e
        0x0000043a:    3e20         >      SUBS     r6,r6,#0x20
        0x0000043c:    1b9b        ..      SUBS     r3,r3,r6
        0x0000043e:    2b00        .+      CMP      r3,#0
        0x00000440:    dd61        a.      BLE      0x506 ; _dsub1 + 340
        0x00000442:    4135        5A      ASRS     r5,r5,r6
        0x00000444:    17ee        ..      ASRS     r6,r5,#31
        0x00000446:    1828        (.      ADDS     r0,r5,r0
        0x00000448:    4166        fA      ADCS     r6,r6,r4
        0x0000044a:    d5e8        ..      BPL      0x41e ; _dsub1 + 108
        0x0000044c:    1800        ..      ADDS     r0,r0,r0
        0x0000044e:    4176        vA      ADCS     r6,r6,r6
        0x00000450:    1c5b        [.      ADDS     r3,r3,#1
        0x00000452:    409a        .@      LSLS     r2,r2,r3
        0x00000454:    d300        ..      BCC      0x458 ; _dsub1 + 166
        0x00000456:    1c40        @.      ADDS     r0,r0,#1
        0x00000458:    054b        K.      LSLS     r3,r1,#21
        0x0000045a:    18f3        ..      ADDS     r3,r6,r3
        0x0000045c:    2415        .$      MOVS     r4,#0x15
        0x0000045e:    40e3        .@      LSRS     r3,r3,r4
        0x00000460:    d310        ..      BCC      0x484 ; _dsub1 + 210
        0x00000462:    2b00        .+      CMP      r3,#0
        0x00000464:    d052        R.      BEQ      0x50c ; _dsub1 + 346
        0x00000466:    4671        qF      MOV      r1,lr
        0x00000468:    1871        q.      ADDS     r1,r6,r1
        0x0000046a:    0fd3        ..      LSRS     r3,r2,#31
        0x0000046c:    18c0        ..      ADDS     r0,r0,r3
        0x0000046e:    d302        ..      BCC      0x476 ; _dsub1 + 196
        0x00000470:    1c49        I.      ADDS     r1,r1,#1
        0x00000472:    b005        ..      ADD      sp,sp,#0x14
        0x00000474:    bdf0        ..      POP      {r4-r7,pc}
        0x00000476:    2301        .#      MOVS     r3,#1
        0x00000478:    07db        ..      LSLS     r3,r3,#31
        0x0000047a:    429a        .B      CMP      r2,r3
        0x0000047c:    d1f9        ..      BNE      0x472 ; _dsub1 + 192
        0x0000047e:    0840        @.      LSRS     r0,r0,#1
        0x00000480:    0040        @.      LSLS     r0,r0,#1
        0x00000482:    e7f6        ..      B        0x472 ; _dsub1 + 192
        0x00000484:    2201        ."      MOVS     r2,#1
        0x00000486:    0552        R.      LSLS     r2,r2,#21
        0x00000488:    18b2        ..      ADDS     r2,r6,r2
        0x0000048a:    d101        ..      BNE      0x490 ; _dsub1 + 222
        0x0000048c:    2800        .(      CMP      r0,#0
        0x0000048e:    d053        S.      BEQ      0x538 ; _dsub1 + 390
        0x00000490:    2301        .#      MOVS     r3,#1
        0x00000492:    0acc        ..      LSRS     r4,r1,#11
        0x00000494:    02db        ..      LSLS     r3,r3,#11
        0x00000496:    4399        .C      BICS     r1,r1,r3
        0x00000498:    1e89        ..      SUBS     r1,r1,#2
        0x0000049a:    2a00        .*      CMP      r2,#0
        0x0000049c:    d108        ..      BNE      0x4b0 ; _dsub1 + 254
        0x0000049e:    0c02        ..      LSRS     r2,r0,#16
        0x000004a0:    d003        ..      BEQ      0x4aa ; _dsub1 + 248
        0x000004a2:    0c02        ..      LSRS     r2,r0,#16
        0x000004a4:    0400        ..      LSLS     r0,r0,#16
        0x000004a6:    3910        .9      SUBS     r1,r1,#0x10
        0x000004a8:    e002        ..      B        0x4b0 ; _dsub1 + 254
        0x000004aa:    4602        .F      MOV      r2,r0
        0x000004ac:    2000        .       MOVS     r0,#0
        0x000004ae:    3920         9      SUBS     r1,r1,#0x20
        0x000004b0:    2300        .#      MOVS     r3,#0
        0x000004b2:    0b55        U.      LSRS     r5,r2,#13
        0x000004b4:    d105        ..      BNE      0x4c2 ; _dsub1 + 272
        0x000004b6:    0212        ..      LSLS     r2,r2,#8
        0x000004b8:    2308        .#      MOVS     r3,#8
        0x000004ba:    0b55        U.      LSRS     r5,r2,#13
        0x000004bc:    d101        ..      BNE      0x4c2 ; _dsub1 + 272
        0x000004be:    0152        R.      LSLS     r2,r2,#5
        0x000004c0:    230d        .#      MOVS     r3,#0xd
        0x000004c2:    0c55        U.      LSRS     r5,r2,#17
        0x000004c4:    d101        ..      BNE      0x4ca ; _dsub1 + 280
        0x000004c6:    0112        ..      LSLS     r2,r2,#4
        0x000004c8:    1d1b        ..      ADDS     r3,r3,#4
        0x000004ca:    0cd5        ..      LSRS     r5,r2,#19
        0x000004cc:    d101        ..      BNE      0x4d2 ; _dsub1 + 288
        0x000004ce:    0092        ..      LSLS     r2,r2,#2
        0x000004d0:    1c9b        ..      ADDS     r3,r3,#2
        0x000004d2:    0d15        ..      LSRS     r5,r2,#20
        0x000004d4:    d101        ..      BNE      0x4da ; _dsub1 + 296
        0x000004d6:    0052        R.      LSLS     r2,r2,#1
        0x000004d8:    1c5b        [.      ADDS     r3,r3,#1
        0x000004da:    2520         %      MOVS     r5,#0x20
        0x000004dc:    1aee        ..      SUBS     r6,r5,r3
        0x000004de:    e001        ..      B        0x4e4 ; _dsub1 + 306
        0x000004e0:    e02c        ,.      B        0x53c ; _dsub1 + 394
        0x000004e2:    e022        ".      B        0x52a ; _dsub1 + 376
        0x000004e4:    4605        .F      MOV      r5,r0
        0x000004e6:    40f5        .@      LSRS     r5,r5,r6
        0x000004e8:    4315        .C      ORRS     r5,r5,r2
        0x000004ea:    4098        .@      LSLS     r0,r0,r3
        0x000004ec:    1aca        ..      SUBS     r2,r1,r3
        0x000004ee:    07e1        ..      LSLS     r1,r4,#31
        0x000004f0:    1869        i.      ADDS     r1,r5,r1
        0x000004f2:    0513        ..      LSLS     r3,r2,#20
        0x000004f4:    18c9        ..      ADDS     r1,r1,r3
        0x000004f6:    2a00        .*      CMP      r2,#0
        0x000004f8:    dabb        ..      BGE      0x472 ; _dsub1 + 192
        0x000004fa:    2003        .       MOVS     r0,#3
        0x000004fc:    0740        @.      LSLS     r0,r0,#29
        0x000004fe:    1808        ..      ADDS     r0,r1,r0
        0x00000500:    0fc1        ..      LSRS     r1,r0,#31
        0x00000502:    07c9        ..      LSLS     r1,r1,#31
        0x00000504:    e00f        ..      B        0x526 ; _dsub1 + 372
        0x00000506:    4671        qF      MOV      r1,lr
        0x00000508:    1861        a.      ADDS     r1,r4,r1
        0x0000050a:    e7b2        ..      B        0x472 ; _dsub1 + 192
        0x0000050c:    07f1        ..      LSLS     r1,r6,#31
        0x0000050e:    0840        @.      LSRS     r0,r0,#1
        0x00000510:    4308        .C      ORRS     r0,r0,r1
        0x00000512:    1071        q.      ASRS     r1,r6,#1
        0x00000514:    4471        qD      ADD      r1,r1,lr
        0x00000516:    004a        J.      LSLS     r2,r1,#1
        0x00000518:    d00c        ..      BEQ      0x534 ; _dsub1 + 386
        0x0000051a:    2301        .#      MOVS     r3,#1
        0x0000051c:    055b        [.      LSLS     r3,r3,#21
        0x0000051e:    429a        .B      CMP      r2,r3
        0x00000520:    d2a7        ..      BCS      0x472 ; _dsub1 + 192
        0x00000522:    0fc9        ..      LSRS     r1,r1,#31
        0x00000524:    07c9        ..      LSLS     r1,r1,#31
        0x00000526:    2000        .       MOVS     r0,#0
        0x00000528:    e7a3        ..      B        0x472 ; _dsub1 + 192
        0x0000052a:    0549        I.      LSLS     r1,r1,#21
        0x0000052c:    0d49        I.      LSRS     r1,r1,#21
        0x0000052e:    d126        &.      BNE      0x57e ; _dsub1 + 460
        0x00000530:    2000        .       MOVS     r0,#0
        0x00000532:    e001        ..      B        0x538 ; _dsub1 + 390
        0x00000534:    2800        .(      CMP      r0,#0
        0x00000536:    d1f4        ..      BNE      0x522 ; _dsub1 + 368
        0x00000538:    2100        .!      MOVS     r1,#0
        0x0000053a:    e79a        ..      B        0x472 ; _dsub1 + 192
        0x0000053c:    4d28        (M      LDR      r5,[pc,#160] ; [0x5e0] = 0xffe00000
        0x0000053e:    0066        f.      LSLS     r6,r4,#1
        0x00000540:    2800        .(      CMP      r0,#0
        0x00000542:    d001        ..      BEQ      0x548 ; _dsub1 + 406
        0x00000544:    2101        .!      MOVS     r1,#1
        0x00000546:    e000        ..      B        0x54a ; _dsub1 + 408
        0x00000548:    2100        .!      MOVS     r1,#0
        0x0000054a:    1871        q.      ADDS     r1,r6,r1
        0x0000054c:    005f        _.      LSLS     r7,r3,#1
        0x0000054e:    2a00        .*      CMP      r2,#0
        0x00000550:    d001        ..      BEQ      0x556 ; _dsub1 + 420
        0x00000552:    2601        .&      MOVS     r6,#1
        0x00000554:    e000        ..      B        0x558 ; _dsub1 + 422
        0x00000556:    2600        .&      MOVS     r6,#0
        0x00000558:    19be        ..      ADDS     r6,r7,r6
        0x0000055a:    4f22        "O      LDR      r7,[pc,#136] ; [0x5e4] = 0x7ff80000
        0x0000055c:    42a9        .B      CMP      r1,r5
        0x0000055e:    d810        ..      BHI      0x582 ; _dsub1 + 464
        0x00000560:    42ae        .B      CMP      r6,r5
        0x00000562:    d80e        ..      BHI      0x582 ; _dsub1 + 464
        0x00000564:    42b1        .B      CMP      r1,r6
        0x00000566:    d008        ..      BEQ      0x57a ; _dsub1 + 456
        0x00000568:    2501        .%      MOVS     r5,#1
        0x0000056a:    056d        m.      LSLS     r5,r5,#21
        0x0000056c:    42e9        .B      CMN      r1,r5
        0x0000056e:    d006        ..      BEQ      0x57e ; _dsub1 + 460
        0x00000570:    4619        .F      MOV      r1,r3
        0x00000572:    02a8        ..      LSLS     r0,r5,#10
        0x00000574:    4041        A@      EORS     r1,r1,r0
        0x00000576:    4610        .F      MOV      r0,r2
        0x00000578:    e77b        {.      B        0x472 ; _dsub1 + 192
        0x0000057a:    429c        .B      CMP      r4,r3
        0x0000057c:    d001        ..      BEQ      0x582 ; _dsub1 + 464
        0x0000057e:    4621        !F      MOV      r1,r4
        0x00000580:    e777        w.      B        0x472 ; _dsub1 + 192
        0x00000582:    2000        .       MOVS     r0,#0
        0x00000584:    4639        9F      MOV      r1,r7
        0x00000586:    e774        t.      B        0x472 ; _dsub1 + 192
    __aeabi_dadd
    _dadd
        0x00000588:    b510        ..      PUSH     {r4,lr}
        0x0000058a:    460c        .F      MOV      r4,r1
        0x0000058c:    405c        \@      EORS     r4,r4,r3
        0x0000058e:    d505        ..      BPL      0x59c ; __aeabi_dadd + 20
        0x00000590:    2401        .$      MOVS     r4,#1
        0x00000592:    07e4        ..      LSLS     r4,r4,#31
        0x00000594:    4063        c@      EORS     r3,r3,r4
        0x00000596:    f7ffff0c    ....    BL       _dsub1 ; 0x3b2
        0x0000059a:    bd10        ..      POP      {r4,pc}
        0x0000059c:    f7fffe78    ..x.    BL       _dadd1 ; 0x290
        0x000005a0:    bd10        ..      POP      {r4,pc}
    __aeabi_dsub
    _dsub
        0x000005a2:    b430        0.      PUSH     {r4,r5}
        0x000005a4:    460c        .F      MOV      r4,r1
        0x000005a6:    405c        \@      EORS     r4,r4,r3
        0x000005a8:    d504        ..      BPL      0x5b4 ; __aeabi_dsub + 18
        0x000005aa:    2401        .$      MOVS     r4,#1
        0x000005ac:    07e4        ..      LSLS     r4,r4,#31
        0x000005ae:    4063        c@      EORS     r3,r3,r4
        0x000005b0:    bc30        0.      POP      {r4,r5}
        0x000005b2:    e66d        m.      B        _dadd1 ; 0x290
        0x000005b4:    bc30        0.      POP      {r4,r5}
        0x000005b6:    e6fc        ..      B        _dsub1 ; 0x3b2
    __aeabi_drsub
    _drsb
        0x000005b8:    b570        p.      PUSH     {r4-r6,lr}
        0x000005ba:    2401        .$      MOVS     r4,#1
        0x000005bc:    07e4        ..      LSLS     r4,r4,#31
        0x000005be:    4061        a@      EORS     r1,r1,r4
        0x000005c0:    460d        .F      MOV      r5,r1
        0x000005c2:    405d        ]@      EORS     r5,r5,r3
        0x000005c4:    d402        ..      BMI      0x5cc ; __aeabi_drsub + 20
        0x000005c6:    f7fffe63    ..c.    BL       _dadd1 ; 0x290
        0x000005ca:    bd70        p.      POP      {r4-r6,pc}
        0x000005cc:    4063        c@      EORS     r3,r3,r4
        0x000005ce:    f7fffef0    ....    BL       _dsub1 ; 0x3b2
        0x000005d2:    bd70        p.      POP      {r4-r6,pc}
    $d
        0x000005d4:    000007ff    ....    DCD    2047
        0x000005d8:    fff00000    ....    DCD    4293918720
        0x000005dc:    7ff00000    ....    DCD    2146435072
        0x000005e0:    ffe00000    ....    DCD    4292870144
        0x000005e4:    7ff80000    ....    DCD    2146959360
    $t
    .text
    __aeabi_ddiv
    _ddiv
        0x000005e8:    b5f0        ..      PUSH     {r4-r7,lr}
        0x000005ea:    4df9        .M      LDR      r5,[pc,#996] ; [0x9d0] = 0x7ff0000
        0x000005ec:    090c        ..      LSRS     r4,r1,#4
        0x000005ee:    091e        ..      LSRS     r6,r3,#4
        0x000005f0:    402c        ,@      ANDS     r4,r4,r5
        0x000005f2:    402e        .@      ANDS     r6,r6,r5
        0x000005f4:    462f        /F      MOV      r7,r5
        0x000005f6:    b08b        ..      SUB      sp,sp,#0x2c
        0x000005f8:    43a7        .C      BICS     r7,r7,r4
        0x000005fa:    d07d        }.      BEQ      0x6f8 ; __aeabi_ddiv + 272
        0x000005fc:    43b5        .C      BICS     r5,r5,r6
        0x000005fe:    d0fc        ..      BEQ      0x5fa ; __aeabi_ddiv + 18
        0x00000600:    2e00        ..      CMP      r6,#0
        0x00000602:    d07a        z.      BEQ      0x6fa ; __aeabi_ddiv + 274
        0x00000604:    2c00        .,      CMP      r4,#0
        0x00000606:    d0fc        ..      BEQ      0x602 ; __aeabi_ddiv + 26
        0x00000608:    460d        .F      MOV      r5,r1
        0x0000060a:    405d        ]@      EORS     r5,r5,r3
        0x0000060c:    0fed        ..      LSRS     r5,r5,#31
        0x0000060e:    4325        %C      ORRS     r5,r5,r4
        0x00000610:    1bac        ..      SUBS     r4,r5,r6
        0x00000612:    25ff        .%      MOVS     r5,#0xff
        0x00000614:    04ad        ..      LSLS     r5,r5,#18
        0x00000616:    1964        d.      ADDS     r4,r4,r5
        0x00000618:    9408        ..      STR      r4,[sp,#0x20]
        0x0000061a:    02c5        ..      LSLS     r5,r0,#11
        0x0000061c:    0d44        D.      LSRS     r4,r0,#21
        0x0000061e:    02c9        ..      LSLS     r1,r1,#11
        0x00000620:    4321        !C      ORRS     r1,r1,r4
        0x00000622:    0d50        P.      LSRS     r0,r2,#21
        0x00000624:    02dc        ..      LSLS     r4,r3,#11
        0x00000626:    4304        .C      ORRS     r4,r4,r0
        0x00000628:    2001        .       MOVS     r0,#1
        0x0000062a:    07c0        ..      LSLS     r0,r0,#31
        0x0000062c:    4301        .C      ORRS     r1,r1,r0
        0x0000062e:    4304        .C      ORRS     r4,r4,r0
        0x00000630:    02d2        ..      LSLS     r2,r2,#11
        0x00000632:    9101        ..      STR      r1,[sp,#4]
        0x00000634:    0c20         .      LSRS     r0,r4,#16
        0x00000636:    0c11        ..      LSRS     r1,r2,#16
        0x00000638:    9500        ..      STR      r5,[sp,#0]
        0x0000063a:    468c        .F      MOV      r12,r1
        0x0000063c:    0401        ..      LSLS     r1,r0,#16
        0x0000063e:    4623        #F      MOV      r3,r4
        0x00000640:    438b        .C      BICS     r3,r3,r1
        0x00000642:    910a        ..      STR      r1,[sp,#0x28]
        0x00000644:    4661        aF      MOV      r1,r12
        0x00000646:    0409        ..      LSLS     r1,r1,#16
        0x00000648:    4de2        .M      LDR      r5,[pc,#904] ; [0x9d4] = 0x6b58
        0x0000064a:    438a        .C      BICS     r2,r2,r1
        0x0000064c:    9109        ..      STR      r1,[sp,#0x24]
        0x0000064e:    0a01        ..      LSRS     r1,r0,#8
        0x00000650:    447d        }D      ADD      r5,r5,pc
        0x00000652:    1949        I.      ADDS     r1,r1,r5
        0x00000654:    3980        .9      SUBS     r1,r1,#0x80
        0x00000656:    7809        .x      LDRB     r1,[r1,#0]
        0x00000658:    4605        .F      MOV      r5,r0
        0x0000065a:    434d        MC      MULS     r5,r1,r5
        0x0000065c:    2601        .&      MOVS     r6,#1
        0x0000065e:    186d        m.      ADDS     r5,r5,r1
        0x00000660:    05f6        ..      LSLS     r6,r6,#23
        0x00000662:    1b75        u.      SUBS     r5,r6,r5
        0x00000664:    4369        iC      MULS     r1,r5,r1
        0x00000666:    0cc9        ..      LSRS     r1,r1,#19
        0x00000668:    0b64        d.      LSRS     r4,r4,#13
        0x0000066a:    1c89        ..      ADDS     r1,r1,#2
        0x0000066c:    434c        LC      MULS     r4,r1,r4
        0x0000066e:    1864        d.      ADDS     r4,r4,r1
        0x00000670:    01b5        ..      LSLS     r5,r6,#6
        0x00000672:    1b2c        ,.      SUBS     r4,r5,r4
        0x00000674:    0c25        %.      LSRS     r5,r4,#16
        0x00000676:    042e        ..      LSLS     r6,r5,#16
        0x00000678:    43b4        .C      BICS     r4,r4,r6
        0x0000067a:    434c        LC      MULS     r4,r1,r4
        0x0000067c:    434d        MC      MULS     r5,r1,r5
        0x0000067e:    0c21        !.      LSRS     r1,r4,#16
        0x00000680:    1869        i.      ADDS     r1,r5,r1
        0x00000682:    0989        ..      LSRS     r1,r1,#6
        0x00000684:    9105        ..      STR      r1,[sp,#0x14]
        0x00000686:    9d00        ..      LDR      r5,[sp,#0]
        0x00000688:    07e9        ..      LSLS     r1,r5,#31
        0x0000068a:    d001        ..      BEQ      0x690 ; __aeabi_ddiv + 168
        0x0000068c:    2101        .!      MOVS     r1,#1
        0x0000068e:    07c9        ..      LSLS     r1,r1,#31
        0x00000690:    9104        ..      STR      r1,[sp,#0x10]
        0x00000692:    462c        ,F      MOV      r4,r5
        0x00000694:    9901        ..      LDR      r1,[sp,#4]
        0x00000696:    0867        g.      LSRS     r7,r4,#1
        0x00000698:    07cd        ..      LSLS     r5,r1,#31
        0x0000069a:    432f        /C      ORRS     r7,r7,r5
        0x0000069c:    084c        L.      LSRS     r4,r1,#1
        0x0000069e:    9d05        ..      LDR      r5,[sp,#0x14]
        0x000006a0:    0be1        ..      LSRS     r1,r4,#15
        0x000006a2:    434d        MC      MULS     r5,r1,r5
        0x000006a4:    0c2d        -.      LSRS     r5,r5,#16
        0x000006a6:    4629        )F      MOV      r1,r5
        0x000006a8:    4666        fF      MOV      r6,r12
        0x000006aa:    4375        uC      MULS     r5,r6,r5
        0x000006ac:    9502        ..      STR      r5,[sp,#8]
        0x000006ae:    460d        .F      MOV      r5,r1
        0x000006b0:    4345        EC      MULS     r5,r0,r5
        0x000006b2:    462e        .F      MOV      r6,r5
        0x000006b4:    9d02        ..      LDR      r5,[sp,#8]
        0x000006b6:    1b7d        }.      SUBS     r5,r7,r5
        0x000006b8:    41b4        .A      SBCS     r4,r4,r6
        0x000006ba:    9500        ..      STR      r5,[sp,#0]
        0x000006bc:    460d        .F      MOV      r5,r1
        0x000006be:    435d        ]C      MULS     r5,r3,r5
        0x000006c0:    9401        ..      STR      r4,[sp,#4]
        0x000006c2:    0c2c        ,.      LSRS     r4,r5,#16
        0x000006c4:    042f        /.      LSLS     r7,r5,#16
        0x000006c6:    460d        .F      MOV      r5,r1
        0x000006c8:    4355        UC      MULS     r5,r2,r5
        0x000006ca:    46ae        .F      MOV      lr,r5
        0x000006cc:    0c2d        -.      LSRS     r5,r5,#16
        0x000006ce:    433d        =C      ORRS     r5,r5,r7
        0x000006d0:    9502        ..      STR      r5,[sp,#8]
        0x000006d2:    9403        ..      STR      r4,[sp,#0xc]
        0x000006d4:    4675        uF      MOV      r5,lr
        0x000006d6:    9c04        ..      LDR      r4,[sp,#0x10]
        0x000006d8:    042d        -.      LSLS     r5,r5,#16
        0x000006da:    1b64        d.      SUBS     r4,r4,r5
        0x000006dc:    9404        ..      STR      r4,[sp,#0x10]
        0x000006de:    d206        ..      BCS      0x6ee ; __aeabi_ddiv + 262
        0x000006e0:    9c02        ..      LDR      r4,[sp,#8]
        0x000006e2:    9d03        ..      LDR      r5,[sp,#0xc]
        0x000006e4:    1c64        d.      ADDS     r4,r4,#1
        0x000006e6:    2600        .&      MOVS     r6,#0
        0x000006e8:    4175        uA      ADCS     r5,r5,r6
        0x000006ea:    9503        ..      STR      r5,[sp,#0xc]
        0x000006ec:    9402        ..      STR      r4,[sp,#8]
        0x000006ee:    ac01        ..      ADD      r4,sp,#4
        0x000006f0:    cc70        p.      LDM      r4,{r4-r6}
        0x000006f2:    9f00        ..      LDR      r7,[sp,#0]
        0x000006f4:    1b7d        }.      SUBS     r5,r7,r5
        0x000006f6:    e001        ..      B        0x6fc ; __aeabi_ddiv + 276
        0x000006f8:    e13e        >.      B        0x978 ; __aeabi_ddiv + 912
        0x000006fa:    e162        b.      B        0x9c2 ; __aeabi_ddiv + 986
        0x000006fc:    41b4        .A      SBCS     r4,r4,r6
        0x000006fe:    0409        ..      LSLS     r1,r1,#16
        0x00000700:    9500        ..      STR      r5,[sp,#0]
        0x00000702:    9107        ..      STR      r1,[sp,#0x1c]
        0x00000704:    9401        ..      STR      r4,[sp,#4]
        0x00000706:    9905        ..      LDR      r1,[sp,#0x14]
        0x00000708:    08a4        ..      LSRS     r4,r4,#2
        0x0000070a:    4361        aC      MULS     r1,r4,r1
        0x0000070c:    0c09        ..      LSRS     r1,r1,#16
        0x0000070e:    460c        .F      MOV      r4,r1
        0x00000710:    4344        DC      MULS     r4,r0,r4
        0x00000712:    0b65        e.      LSRS     r5,r4,#13
        0x00000714:    04e7        ..      LSLS     r7,r4,#19
        0x00000716:    460c        .F      MOV      r4,r1
        0x00000718:    4666        fF      MOV      r6,r12
        0x0000071a:    4374        tC      MULS     r4,r6,r4
        0x0000071c:    46a6        .F      MOV      lr,r4
        0x0000071e:    0b64        d.      LSRS     r4,r4,#13
        0x00000720:    433c        <C      ORRS     r4,r4,r7
        0x00000722:    9503        ..      STR      r5,[sp,#0xc]
        0x00000724:    9402        ..      STR      r4,[sp,#8]
        0x00000726:    4674        tF      MOV      r4,lr
        0x00000728:    9d04        ..      LDR      r5,[sp,#0x10]
        0x0000072a:    04e4        ..      LSLS     r4,r4,#19
        0x0000072c:    1b2c        ,.      SUBS     r4,r5,r4
        0x0000072e:    9404        ..      STR      r4,[sp,#0x10]
        0x00000730:    d206        ..      BCS      0x740 ; __aeabi_ddiv + 344
        0x00000732:    9c02        ..      LDR      r4,[sp,#8]
        0x00000734:    9d03        ..      LDR      r5,[sp,#0xc]
        0x00000736:    1c64        d.      ADDS     r4,r4,#1
        0x00000738:    2600        .&      MOVS     r6,#0
        0x0000073a:    4175        uA      ADCS     r5,r5,r6
        0x0000073c:    9503        ..      STR      r5,[sp,#0xc]
        0x0000073e:    9402        ..      STR      r4,[sp,#8]
        0x00000740:    ac01        ..      ADD      r4,sp,#4
        0x00000742:    cc70        p.      LDM      r4,{r4-r6}
        0x00000744:    9f00        ..      LDR      r7,[sp,#0]
        0x00000746:    1b7d        }.      SUBS     r5,r7,r5
        0x00000748:    41b4        .A      SBCS     r4,r4,r6
        0x0000074a:    9401        ..      STR      r4,[sp,#4]
        0x0000074c:    460c        .F      MOV      r4,r1
        0x0000074e:    435c        \C      MULS     r4,r3,r4
        0x00000750:    9500        ..      STR      r5,[sp,#0]
        0x00000752:    0f65        e.      LSRS     r5,r4,#29
        0x00000754:    00e7        ..      LSLS     r7,r4,#3
        0x00000756:    460c        .F      MOV      r4,r1
        0x00000758:    4354        TC      MULS     r4,r2,r4
        0x0000075a:    46a6        .F      MOV      lr,r4
        0x0000075c:    0f64        d.      LSRS     r4,r4,#29
        0x0000075e:    433c        <C      ORRS     r4,r4,r7
        0x00000760:    9503        ..      STR      r5,[sp,#0xc]
        0x00000762:    9402        ..      STR      r4,[sp,#8]
        0x00000764:    4674        tF      MOV      r4,lr
        0x00000766:    9d04        ..      LDR      r5,[sp,#0x10]
        0x00000768:    00e4        ..      LSLS     r4,r4,#3
        0x0000076a:    1b2c        ,.      SUBS     r4,r5,r4
        0x0000076c:    9404        ..      STR      r4,[sp,#0x10]
        0x0000076e:    d206        ..      BCS      0x77e ; __aeabi_ddiv + 406
        0x00000770:    9c02        ..      LDR      r4,[sp,#8]
        0x00000772:    9d03        ..      LDR      r5,[sp,#0xc]
        0x00000774:    1c64        d.      ADDS     r4,r4,#1
        0x00000776:    2600        .&      MOVS     r6,#0
        0x00000778:    4175        uA      ADCS     r5,r5,r6
        0x0000077a:    9503        ..      STR      r5,[sp,#0xc]
        0x0000077c:    9402        ..      STR      r4,[sp,#8]
        0x0000077e:    ac01        ..      ADD      r4,sp,#4
        0x00000780:    cc70        p.      LDM      r4,{r4-r6}
        0x00000782:    9f00        ..      LDR      r7,[sp,#0]
        0x00000784:    1b7d        }.      SUBS     r5,r7,r5
        0x00000786:    41b4        .A      SBCS     r4,r4,r6
        0x00000788:    09ae        ..      LSRS     r6,r5,#6
        0x0000078a:    06af        ..      LSLS     r7,r5,#26
        0x0000078c:    9d04        ..      LDR      r5,[sp,#0x10]
        0x0000078e:    00c9        ..      LSLS     r1,r1,#3
        0x00000790:    09ad        ..      LSRS     r5,r5,#6
        0x00000792:    432f        /C      ORRS     r7,r7,r5
        0x00000794:    9d04        ..      LDR      r5,[sp,#0x10]
        0x00000796:    06a4        ..      LSLS     r4,r4,#26
        0x00000798:    06ad        ..      LSLS     r5,r5,#26
        0x0000079a:    9504        ..      STR      r5,[sp,#0x10]
        0x0000079c:    9d07        ..      LDR      r5,[sp,#0x1c]
        0x0000079e:    4334        4C      ORRS     r4,r4,r6
        0x000007a0:    1869        i.      ADDS     r1,r5,r1
        0x000007a2:    9107        ..      STR      r1,[sp,#0x1c]
        0x000007a4:    9d05        ..      LDR      r5,[sp,#0x14]
        0x000007a6:    0be1        ..      LSRS     r1,r4,#15
        0x000007a8:    434d        MC      MULS     r5,r1,r5
        0x000007aa:    0c2d        -.      LSRS     r5,r5,#16
        0x000007ac:    4629        )F      MOV      r1,r5
        0x000007ae:    4666        fF      MOV      r6,r12
        0x000007b0:    4375        uC      MULS     r5,r6,r5
        0x000007b2:    9502        ..      STR      r5,[sp,#8]
        0x000007b4:    460d        .F      MOV      r5,r1
        0x000007b6:    4345        EC      MULS     r5,r0,r5
        0x000007b8:    462e        .F      MOV      r6,r5
        0x000007ba:    9d02        ..      LDR      r5,[sp,#8]
        0x000007bc:    1b7d        }.      SUBS     r5,r7,r5
        0x000007be:    41b4        .A      SBCS     r4,r4,r6
        0x000007c0:    9500        ..      STR      r5,[sp,#0]
        0x000007c2:    460d        .F      MOV      r5,r1
        0x000007c4:    435d        ]C      MULS     r5,r3,r5
        0x000007c6:    9401        ..      STR      r4,[sp,#4]
        0x000007c8:    0c2c        ,.      LSRS     r4,r5,#16
        0x000007ca:    042f        /.      LSLS     r7,r5,#16
        0x000007cc:    460d        .F      MOV      r5,r1
        0x000007ce:    4355        UC      MULS     r5,r2,r5
        0x000007d0:    46ae        .F      MOV      lr,r5
        0x000007d2:    0c2d        -.      LSRS     r5,r5,#16
        0x000007d4:    433d        =C      ORRS     r5,r5,r7
        0x000007d6:    9502        ..      STR      r5,[sp,#8]
        0x000007d8:    9403        ..      STR      r4,[sp,#0xc]
        0x000007da:    4675        uF      MOV      r5,lr
        0x000007dc:    9c04        ..      LDR      r4,[sp,#0x10]
        0x000007de:    042d        -.      LSLS     r5,r5,#16
        0x000007e0:    1b64        d.      SUBS     r4,r4,r5
        0x000007e2:    9404        ..      STR      r4,[sp,#0x10]
        0x000007e4:    d206        ..      BCS      0x7f4 ; __aeabi_ddiv + 524
        0x000007e6:    9c02        ..      LDR      r4,[sp,#8]
        0x000007e8:    9d03        ..      LDR      r5,[sp,#0xc]
        0x000007ea:    1c64        d.      ADDS     r4,r4,#1
        0x000007ec:    2600        .&      MOVS     r6,#0
        0x000007ee:    4175        uA      ADCS     r5,r5,r6
        0x000007f0:    9503        ..      STR      r5,[sp,#0xc]
        0x000007f2:    9402        ..      STR      r4,[sp,#8]
        0x000007f4:    ac01        ..      ADD      r4,sp,#4
        0x000007f6:    cc70        p.      LDM      r4,{r4-r6}
        0x000007f8:    9f00        ..      LDR      r7,[sp,#0]
        0x000007fa:    1b7d        }.      SUBS     r5,r7,r5
        0x000007fc:    41b4        .A      SBCS     r4,r4,r6
        0x000007fe:    9401        ..      STR      r4,[sp,#4]
        0x00000800:    058c        ..      LSLS     r4,r1,#22
        0x00000802:    9406        ..      STR      r4,[sp,#0x18]
        0x00000804:    9c07        ..      LDR      r4,[sp,#0x1c]
        0x00000806:    0a89        ..      LSRS     r1,r1,#10
        0x00000808:    1861        a.      ADDS     r1,r4,r1
        0x0000080a:    9500        ..      STR      r5,[sp,#0]
        0x0000080c:    9107        ..      STR      r1,[sp,#0x1c]
        0x0000080e:    9c01        ..      LDR      r4,[sp,#4]
        0x00000810:    9905        ..      LDR      r1,[sp,#0x14]
        0x00000812:    08a4        ..      LSRS     r4,r4,#2
        0x00000814:    4361        aC      MULS     r1,r4,r1
        0x00000816:    0c09        ..      LSRS     r1,r1,#16
        0x00000818:    460d        .F      MOV      r5,r1
        0x0000081a:    4345        EC      MULS     r5,r0,r5
        0x0000081c:    0b68        h.      LSRS     r0,r5,#13
        0x0000081e:    04ef        ..      LSLS     r7,r5,#19
        0x00000820:    460d        .F      MOV      r5,r1
        0x00000822:    4664        dF      MOV      r4,r12
        0x00000824:    4365        eC      MULS     r5,r4,r5
        0x00000826:    0b6c        l.      LSRS     r4,r5,#13
        0x00000828:    433c        <C      ORRS     r4,r4,r7
        0x0000082a:    9f04        ..      LDR      r7,[sp,#0x10]
        0x0000082c:    04ed        ..      LSLS     r5,r5,#19
        0x0000082e:    1b7d        }.      SUBS     r5,r7,r5
        0x00000830:    46ac        .F      MOV      r12,r5
        0x00000832:    d202        ..      BCS      0x83a ; __aeabi_ddiv + 594
        0x00000834:    2500        .%      MOVS     r5,#0
        0x00000836:    1c64        d.      ADDS     r4,r4,#1
        0x00000838:    4168        hA      ADCS     r0,r0,r5
        0x0000083a:    9e00        ..      LDR      r6,[sp,#0]
        0x0000083c:    9d01        ..      LDR      r5,[sp,#4]
        0x0000083e:    1b37        7.      SUBS     r7,r6,r4
        0x00000840:    4185        .A      SBCS     r5,r5,r0
        0x00000842:    4608        .F      MOV      r0,r1
        0x00000844:    4358        XC      MULS     r0,r3,r0
        0x00000846:    9501        ..      STR      r5,[sp,#4]
        0x00000848:    460c        .F      MOV      r4,r1
        0x0000084a:    0f46        F.      LSRS     r6,r0,#29
        0x0000084c:    00c5        ..      LSLS     r5,r0,#3
        0x0000084e:    4354        TC      MULS     r4,r2,r4
        0x00000850:    0f60        `.      LSRS     r0,r4,#29
        0x00000852:    4328        (C      ORRS     r0,r0,r5
        0x00000854:    4665        eF      MOV      r5,r12
        0x00000856:    00e4        ..      LSLS     r4,r4,#3
        0x00000858:    1b2c        ,.      SUBS     r4,r5,r4
        0x0000085a:    d202        ..      BCS      0x862 ; __aeabi_ddiv + 634
        0x0000085c:    2500        .%      MOVS     r5,#0
        0x0000085e:    1c40        @.      ADDS     r0,r0,#1
        0x00000860:    416e        nA      ADCS     r6,r6,r5
        0x00000862:    9d01        ..      LDR      r5,[sp,#4]
        0x00000864:    1a3f        ?.      SUBS     r7,r7,r0
        0x00000866:    41b5        .A      SBCS     r5,r5,r6
        0x00000868:    4628        (F      MOV      r0,r5
        0x0000086a:    09bd        ..      LSRS     r5,r7,#6
        0x0000086c:    0680        ..      LSLS     r0,r0,#26
        0x0000086e:    4328        (C      ORRS     r0,r0,r5
        0x00000870:    4684        .F      MOV      r12,r0
        0x00000872:    09a0        ..      LSRS     r0,r4,#6
        0x00000874:    06bf        ..      LSLS     r7,r7,#26
        0x00000876:    024e        N.      LSLS     r6,r1,#9
        0x00000878:    9906        ..      LDR      r1,[sp,#0x18]
        0x0000087a:    06a4        ..      LSLS     r4,r4,#26
        0x0000087c:    1876        v.      ADDS     r6,r6,r1
        0x0000087e:    4307        .C      ORRS     r7,r7,r0
        0x00000880:    9d07        ..      LDR      r5,[sp,#0x1c]
        0x00000882:    2000        .       MOVS     r0,#0
        0x00000884:    4168        hA      ADCS     r0,r0,r5
        0x00000886:    990a        ..      LDR      r1,[sp,#0x28]
        0x00000888:    9007        ..      STR      r0,[sp,#0x1c]
        0x0000088a:    4319        .C      ORRS     r1,r1,r3
        0x0000088c:    2000        .       MOVS     r0,#0
        0x0000088e:    9b09        ..      LDR      r3,[sp,#0x24]
        0x00000890:    9000        ..      STR      r0,[sp,#0]
        0x00000892:    4660        `F      MOV      r0,r12
        0x00000894:    19ff        ..      ADDS     r7,r7,r7
        0x00000896:    4313        .C      ORRS     r3,r3,r2
        0x00000898:    4140        @A      ADCS     r0,r0,r0
        0x0000089a:    0fe2        ..      LSRS     r2,r4,#31
        0x0000089c:    0064        d.      LSLS     r4,r4,#1
        0x0000089e:    433a        :C      ORRS     r2,r2,r7
        0x000008a0:    46a4        .F      MOV      r12,r4
        0x000008a2:    4604        .F      MOV      r4,r0
        0x000008a4:    1ad7        ..      SUBS     r7,r2,r3
        0x000008a6:    418c        .A      SBCS     r4,r4,r1
        0x000008a8:    42a0        .B      CMP      r0,r4
        0x000008aa:    d903        ..      BLS      0x8b4 ; __aeabi_ddiv + 716
        0x000008ac:    2001        .       MOVS     r0,#1
        0x000008ae:    9000        ..      STR      r0,[sp,#0]
        0x000008b0:    4620         F      MOV      r0,r4
        0x000008b2:    463a        :F      MOV      r2,r7
        0x000008b4:    0fc7        ..      LSRS     r7,r0,#31
        0x000008b6:    1894        ..      ADDS     r4,r2,r2
        0x000008b8:    4140        @A      ADCS     r0,r0,r0
        0x000008ba:    4662        bF      MOV      r2,r12
        0x000008bc:    0fd2        ..      LSRS     r2,r2,#31
        0x000008be:    4322        "C      ORRS     r2,r2,r4
        0x000008c0:    4664        dF      MOV      r4,r12
        0x000008c2:    0064        d.      LSLS     r4,r4,#1
        0x000008c4:    9404        ..      STR      r4,[sp,#0x10]
        0x000008c6:    9c00        ..      LDR      r4,[sp,#0]
        0x000008c8:    46be        .F      MOV      lr,r7
        0x000008ca:    0064        d.      LSLS     r4,r4,#1
        0x000008cc:    1ad7        ..      SUBS     r7,r2,r3
        0x000008ce:    46a4        .F      MOV      r12,r4
        0x000008d0:    4604        .F      MOV      r4,r0
        0x000008d2:    9702        ..      STR      r7,[sp,#8]
        0x000008d4:    418c        .A      SBCS     r4,r4,r1
        0x000008d6:    4677        wF      MOV      r7,lr
        0x000008d8:    2f00        ./      CMP      r7,#0
        0x000008da:    d101        ..      BNE      0x8e0 ; __aeabi_ddiv + 760
        0x000008dc:    42a0        .B      CMP      r0,r4
        0x000008de:    d904        ..      BLS      0x8ea ; __aeabi_ddiv + 770
        0x000008e0:    4660        `F      MOV      r0,r12
        0x000008e2:    1c40        @.      ADDS     r0,r0,#1
        0x000008e4:    4684        .F      MOV      r12,r0
        0x000008e6:    9a02        ..      LDR      r2,[sp,#8]
        0x000008e8:    4620         F      MOV      r0,r4
        0x000008ea:    0fc4        ..      LSRS     r4,r0,#31
        0x000008ec:    46a6        .F      MOV      lr,r4
        0x000008ee:    1894        ..      ADDS     r4,r2,r2
        0x000008f0:    4140        @A      ADCS     r0,r0,r0
        0x000008f2:    9a04        ..      LDR      r2,[sp,#0x10]
        0x000008f4:    4605        .F      MOV      r5,r0
        0x000008f6:    0fd2        ..      LSRS     r2,r2,#31
        0x000008f8:    4322        "C      ORRS     r2,r2,r4
        0x000008fa:    4664        dF      MOV      r4,r12
        0x000008fc:    0064        d.      LSLS     r4,r4,#1
        0x000008fe:    1ad3        ..      SUBS     r3,r2,r3
        0x00000900:    418d        .A      SBCS     r5,r5,r1
        0x00000902:    4671        qF      MOV      r1,lr
        0x00000904:    2900        .)      CMP      r1,#0
        0x00000906:    d101        ..      BNE      0x90c ; __aeabi_ddiv + 804
        0x00000908:    42a8        .B      CMP      r0,r5
        0x0000090a:    d902        ..      BLS      0x912 ; __aeabi_ddiv + 810
        0x0000090c:    4628        (F      MOV      r0,r5
        0x0000090e:    461a        .F      MOV      r2,r3
        0x00000910:    1c64        d.      ADDS     r4,r4,#1
        0x00000912:    4310        .C      ORRS     r0,r0,r2
        0x00000914:    2201        ."      MOVS     r2,#1
        0x00000916:    2800        .(      CMP      r0,#0
        0x00000918:    d000        ..      BEQ      0x91c ; __aeabi_ddiv + 820
        0x0000091a:    4316        .C      ORRS     r6,r6,r2
        0x0000091c:    0261        a.      LSLS     r1,r4,#9
        0x0000091e:    2000        .       MOVS     r0,#0
        0x00000920:    9b07        ..      LDR      r3,[sp,#0x1c]
        0x00000922:    1989        ..      ADDS     r1,r1,r6
        0x00000924:    4604        .F      MOV      r4,r0
        0x00000926:    415c        \A      ADCS     r4,r4,r3
        0x00000928:    2302        .#      MOVS     r3,#2
        0x0000092a:    2c00        .,      CMP      r4,#0
        0x0000092c:    db02        ..      BLT      0x934 ; __aeabi_ddiv + 844
        0x0000092e:    1849        I.      ADDS     r1,r1,r1
        0x00000930:    4613        .F      MOV      r3,r2
        0x00000932:    4164        dA      ADCS     r4,r4,r4
        0x00000934:    9d08        ..      LDR      r5,[sp,#0x20]
        0x00000936:    0ace        ..      LSRS     r6,r1,#11
        0x00000938:    142d        -.      ASRS     r5,r5,#16
        0x0000093a:    195d        ].      ADDS     r5,r3,r5
        0x0000093c:    054b        K.      LSLS     r3,r1,#21
        0x0000093e:    0567        g.      LSLS     r7,r4,#21
        0x00000940:    0ae1        ..      LSRS     r1,r4,#11
        0x00000942:    052c        ,.      LSLS     r4,r5,#20
        0x00000944:    190d        ..      ADDS     r5,r1,r4
        0x00000946:    9908        ..      LDR      r1,[sp,#0x20]
        0x00000948:    433e        >C      ORRS     r6,r6,r7
        0x0000094a:    07c9        ..      LSLS     r1,r1,#31
        0x0000094c:    4069        i@      EORS     r1,r1,r5
        0x0000094e:    2b00        .+      CMP      r3,#0
        0x00000950:    d008        ..      BEQ      0x964 ; __aeabi_ddiv + 892
        0x00000952:    4093        .@      LSLS     r3,r3,r2
        0x00000954:    d306        ..      BCC      0x964 ; __aeabi_ddiv + 892
        0x00000956:    2200        ."      MOVS     r2,#0
        0x00000958:    1c76        v.      ADDS     r6,r6,#1
        0x0000095a:    4151        QA      ADCS     r1,r1,r2
        0x0000095c:    2b00        .+      CMP      r3,#0
        0x0000095e:    d101        ..      BNE      0x964 ; __aeabi_ddiv + 892
        0x00000960:    0876        v.      LSRS     r6,r6,#1
        0x00000962:    0076        v.      LSLS     r6,r6,#1
        0x00000964:    4a1c        .J      LDR      r2,[pc,#112] ; [0x9d8] = 0x7ff00000
        0x00000966:    2d00        .-      CMP      r5,#0
        0x00000968:    db43        C.      BLT      0x9f2 ; __aeabi_ddiv + 1034
        0x0000096a:    4215        .B      TST      r5,r2
        0x0000096c:    d041        A.      BEQ      0x9f2 ; __aeabi_ddiv + 1034
        0x0000096e:    43aa        .C      BICS     r2,r2,r5
        0x00000970:    d03f        ?.      BEQ      0x9f2 ; __aeabi_ddiv + 1034
        0x00000972:    4630        0F      MOV      r0,r6
        0x00000974:    b00b        ..      ADD      sp,sp,#0x2c
        0x00000976:    bdf0        ..      POP      {r4-r7,pc}
        0x00000978:    1806        ..      ADDS     r6,r0,r0
        0x0000097a:    460d        .F      MOV      r5,r1
        0x0000097c:    414d        MA      ADCS     r5,r5,r1
        0x0000097e:    4c17        .L      LDR      r4,[pc,#92] ; [0x9dc] = 0xffe00000
        0x00000980:    4276        vB      RSBS     r6,r6,#0
        0x00000982:    41ac        .A      SBCS     r4,r4,r5
        0x00000984:    d31a        ..      BCC      0x9bc ; __aeabi_ddiv + 980
        0x00000986:    1895        ..      ADDS     r5,r2,r2
        0x00000988:    461c        .F      MOV      r4,r3
        0x0000098a:    415c        \A      ADCS     r4,r4,r3
        0x0000098c:    4a13        .J      LDR      r2,[pc,#76] ; [0x9dc] = 0xffe00000
        0x0000098e:    426d        mB      RSBS     r5,r5,#0
        0x00000990:    41a2        .A      SBCS     r2,r2,r4
        0x00000992:    d313        ..      BCC      0x9bc ; __aeabi_ddiv + 980
        0x00000994:    2201        ."      MOVS     r2,#1
        0x00000996:    0552        R.      LSLS     r2,r2,#21
        0x00000998:    004c        L.      LSLS     r4,r1,#1
        0x0000099a:    42d4        .B      CMN      r4,r2
        0x0000099c:    d10a        ..      BNE      0x9b4 ; __aeabi_ddiv + 972
        0x0000099e:    005c        \.      LSLS     r4,r3,#1
        0x000009a0:    42d4        .B      CMN      r4,r2
        0x000009a2:    d00b        ..      BEQ      0x9bc ; __aeabi_ddiv + 980
        0x000009a4:    404b        K@      EORS     r3,r3,r1
        0x000009a6:    d502        ..      BPL      0x9ae ; __aeabi_ddiv + 966
        0x000009a8:    0292        ..      LSLS     r2,r2,#10
        0x000009aa:    4311        .C      ORRS     r1,r1,r2
        0x000009ac:    e7e2        ..      B        0x974 ; __aeabi_ddiv + 908
        0x000009ae:    0049        I.      LSLS     r1,r1,#1
        0x000009b0:    0849        I.      LSRS     r1,r1,#1
        0x000009b2:    e7df        ..      B        0x974 ; __aeabi_ddiv + 908
        0x000009b4:    4059        Y@      EORS     r1,r1,r3
        0x000009b6:    0fc9        ..      LSRS     r1,r1,#31
        0x000009b8:    07c9        ..      LSLS     r1,r1,#31
        0x000009ba:    e018        ..      B        0x9ee ; __aeabi_ddiv + 1030
        0x000009bc:    2000        .       MOVS     r0,#0
        0x000009be:    4908        .I      LDR      r1,[pc,#32] ; [0x9e0] = 0x7ff80000
        0x000009c0:    e7d8        ..      B        0x974 ; __aeabi_ddiv + 908
        0x000009c2:    4805        .H      LDR      r0,[pc,#20] ; [0x9d8] = 0x7ff00000
        0x000009c4:    4201        .B      TST      r1,r0
        0x000009c6:    d10d        ..      BNE      0x9e4 ; __aeabi_ddiv + 1020
        0x000009c8:    4203        .B      TST      r3,r0
        0x000009ca:    d0f7        ..      BEQ      0x9bc ; __aeabi_ddiv + 980
        0x000009cc:    e7f2        ..      B        0x9b4 ; __aeabi_ddiv + 972
    $d
        0x000009ce:    0000        ..      DCW    0
        0x000009d0:    07ff0000    ....    DCD    134152192
        0x000009d4:    00006b58    Xk..    DCD    27480
        0x000009d8:    7ff00000    ....    DCD    2146435072
        0x000009dc:    ffe00000    ....    DCD    4292870144
        0x000009e0:    7ff80000    ....    DCD    2146959360
    $t
        0x000009e4:    4811        .H      LDR      r0,[pc,#68] ; [0xa2c] = 0x7fffffff
        0x000009e6:    4059        Y@      EORS     r1,r1,r3
        0x000009e8:    4301        .C      ORRS     r1,r1,r0
        0x000009ea:    12c0        ..      ASRS     r0,r0,#11
        0x000009ec:    4041        A@      EORS     r1,r1,r0
        0x000009ee:    2000        .       MOVS     r0,#0
        0x000009f0:    e7c0        ..      B        0x974 ; __aeabi_ddiv + 908
        0x000009f2:    2301        .#      MOVS     r3,#1
        0x000009f4:    9a08        ..      LDR      r2,[sp,#0x20]
        0x000009f6:    069b        ..      LSLS     r3,r3,#26
        0x000009f8:    429a        .B      CMP      r2,r3
        0x000009fa:    dc05        ..      BGT      0xa08 ; __aeabi_ddiv + 1056
        0x000009fc:    2203        ."      MOVS     r2,#3
        0x000009fe:    0752        R.      LSLS     r2,r2,#29
        0x00000a00:    1889        ..      ADDS     r1,r1,r2
        0x00000a02:    0fc9        ..      LSRS     r1,r1,#31
        0x00000a04:    07c9        ..      LSLS     r1,r1,#31
        0x00000a06:    e7b5        ..      B        0x974 ; __aeabi_ddiv + 908
        0x00000a08:    2205        ."      MOVS     r2,#5
        0x00000a0a:    0752        R.      LSLS     r2,r2,#29
        0x00000a0c:    1889        ..      ADDS     r1,r1,r2
        0x00000a0e:    4a07        .J      LDR      r2,[pc,#28] ; [0xa2c] = 0x7fffffff
        0x00000a10:    4311        .C      ORRS     r1,r1,r2
        0x00000a12:    12d2        ..      ASRS     r2,r2,#11
        0x00000a14:    4051        Q@      EORS     r1,r1,r2
        0x00000a16:    e7ad        ..      B        0x974 ; __aeabi_ddiv + 908
    _drdiv
        0x00000a18:    b570        p.      PUSH     {r4-r6,lr}
        0x00000a1a:    4615        .F      MOV      r5,r2
        0x00000a1c:    461c        .F      MOV      r4,r3
        0x00000a1e:    4602        .F      MOV      r2,r0
        0x00000a20:    460b        .F      MOV      r3,r1
        0x00000a22:    4628        (F      MOV      r0,r5
        0x00000a24:    4621        !F      MOV      r1,r4
        0x00000a26:    f7fffddf    ....    BL       __aeabi_ddiv ; 0x5e8
        0x00000a2a:    bd70        p.      POP      {r4-r6,pc}
    $d
        0x00000a2c:    7fffffff    ....    DCD    2147483647
    $t
    .text
    __aeabi_d2iz
    _dfix
        0x00000a30:    b530        0.      PUSH     {r4,r5,lr}
        0x00000a32:    4603        .F      MOV      r3,r0
        0x00000a34:    02ca        ..      LSLS     r2,r1,#11
        0x00000a36:    0d40        @.      LSRS     r0,r0,#21
        0x00000a38:    4310        .C      ORRS     r0,r0,r2
        0x00000a3a:    4d16        .M      LDR      r5,[pc,#88] ; [0xa94] = 0x41e
        0x00000a3c:    4c16        .L      LDR      r4,[pc,#88] ; [0xa98] = 0x80000000
        0x00000a3e:    150a        ..      ASRS     r2,r1,#20
        0x00000a40:    d002        ..      BEQ      0xa48 ; __aeabi_d2iz + 24
        0x00000a42:    4320         C      ORRS     r0,r0,r4
        0x00000a44:    2a00        .*      CMP      r2,#0
        0x00000a46:    db06        ..      BLT      0xa56 ; __aeabi_d2iz + 38
        0x00000a48:    1aaa        ..      SUBS     r2,r5,r2
        0x00000a4a:    2a00        .*      CMP      r2,#0
        0x00000a4c:    dd12        ..      BLE      0xa74 ; __aeabi_d2iz + 68
        0x00000a4e:    40d0        .@      LSRS     r0,r0,r2
        0x00000a50:    2aff        .*      CMP      r2,#0xff
        0x00000a52:    dc0b        ..      BGT      0xa6c ; __aeabi_d2iz + 60
        0x00000a54:    bd30        0.      POP      {r4,r5,pc}
        0x00000a56:    0552        R.      LSLS     r2,r2,#21
        0x00000a58:    0d52        R.      LSRS     r2,r2,#21
        0x00000a5a:    d101        ..      BNE      0xa60 ; __aeabi_d2iz + 48
        0x00000a5c:    0040        @.      LSLS     r0,r0,#1
        0x00000a5e:    0840        @.      LSRS     r0,r0,#1
        0x00000a60:    1aaa        ..      SUBS     r2,r5,r2
        0x00000a62:    d407        ..      BMI      0xa74 ; __aeabi_d2iz + 68
        0x00000a64:    40d0        .@      LSRS     r0,r0,r2
        0x00000a66:    4240        @B      RSBS     r0,r0,#0
        0x00000a68:    2aff        .*      CMP      r2,#0xff
        0x00000a6a:    dd01        ..      BLE      0xa70 ; __aeabi_d2iz + 64
        0x00000a6c:    2000        .       MOVS     r0,#0
        0x00000a6e:    bd30        0.      POP      {r4,r5,pc}
        0x00000a70:    2800        .(      CMP      r0,#0
        0x00000a72:    ddfc        ..      BLE      0xa6e ; __aeabi_d2iz + 62
        0x00000a74:    004a        J.      LSLS     r2,r1,#1
        0x00000a76:    2b00        .+      CMP      r3,#0
        0x00000a78:    d001        ..      BEQ      0xa7e ; __aeabi_d2iz + 78
        0x00000a7a:    2001        .       MOVS     r0,#1
        0x00000a7c:    e000        ..      B        0xa80 ; __aeabi_d2iz + 80
        0x00000a7e:    2000        .       MOVS     r0,#0
        0x00000a80:    1810        ..      ADDS     r0,r2,r0
        0x00000a82:    2201        ."      MOVS     r2,#1
        0x00000a84:    0552        R.      LSLS     r2,r2,#21
        0x00000a86:    42d0        .B      CMN      r0,r2
        0x00000a88:    d8f0        ..      BHI      0xa6c ; __aeabi_d2iz + 60
        0x00000a8a:    17c8        ..      ASRS     r0,r1,#31
        0x00000a8c:    43c0        .C      MVNS     r0,r0
        0x00000a8e:    4060        `@      EORS     r0,r0,r4
        0x00000a90:    bd30        0.      POP      {r4,r5,pc}
    $d
        0x00000a92:    0000        ..      DCW    0
        0x00000a94:    0000041e    ....    DCD    1054
        0x00000a98:    80000000    ....    DCD    2147483648
    $t
    .text
    __aeabi_dmul
    _dmul
        0x00000a9c:    b5f0        ..      PUSH     {r4-r7,lr}
        0x00000a9e:    4c8b        .L      LDR      r4,[pc,#556] ; [0xccc] = 0x7ff0000
        0x00000aa0:    090f        ..      LSRS     r7,r1,#4
        0x00000aa2:    4625        %F      MOV      r5,r4
        0x00000aa4:    b089        ..      SUB      sp,sp,#0x24
        0x00000aa6:    43bd        .C      BICS     r5,r5,r7
        0x00000aa8:    d07b        {.      BEQ      0xba2 ; __aeabi_dmul + 262
        0x00000aaa:    091d        ..      LSRS     r5,r3,#4
        0x00000aac:    4626        &F      MOV      r6,r4
        0x00000aae:    43ae        .C      BICS     r6,r6,r5
        0x00000ab0:    d0fa        ..      BEQ      0xaa8 ; __aeabi_dmul + 12
        0x00000ab2:    460e        .F      MOV      r6,r1
        0x00000ab4:    405e        ^@      EORS     r6,r6,r3
        0x00000ab6:    4027        '@      ANDS     r7,r7,r4
        0x00000ab8:    0ff6        ..      LSRS     r6,r6,#31
        0x00000aba:    433e        >C      ORRS     r6,r6,r7
        0x00000abc:    4025        %@      ANDS     r5,r5,r4
        0x00000abe:    d071        q.      BEQ      0xba4 ; __aeabi_dmul + 264
        0x00000ac0:    0124        $.      LSLS     r4,r4,#4
        0x00000ac2:    4221        !B      TST      r1,r4
        0x00000ac4:    d0fb        ..      BEQ      0xabe ; __aeabi_dmul + 34
        0x00000ac6:    24ff        .$      MOVS     r4,#0xff
        0x00000ac8:    19ad        ..      ADDS     r5,r5,r6
        0x00000aca:    04a4        ..      LSLS     r4,r4,#18
        0x00000acc:    1b2d        -.      SUBS     r5,r5,r4
        0x00000ace:    9503        ..      STR      r5,[sp,#0xc]
        0x00000ad0:    2501        .%      MOVS     r5,#1
        0x00000ad2:    052d        -.      LSLS     r5,r5,#20
        0x00000ad4:    02db        ..      LSLS     r3,r3,#11
        0x00000ad6:    0adb        ..      LSRS     r3,r3,#11
        0x00000ad8:    02c9        ..      LSLS     r1,r1,#11
        0x00000ada:    432b        +C      ORRS     r3,r3,r5
        0x00000adc:    0ac9        ..      LSRS     r1,r1,#11
        0x00000ade:    4329        )C      ORRS     r1,r1,r5
        0x00000ae0:    011e        ..      LSLS     r6,r3,#4
        0x00000ae2:    0109        ..      LSLS     r1,r1,#4
        0x00000ae4:    0f04        ..      LSRS     r4,r0,#28
        0x00000ae6:    0f13        ..      LSRS     r3,r2,#28
        0x00000ae8:    0105        ..      LSLS     r5,r0,#4
        0x00000aea:    4321        !C      ORRS     r1,r1,r4
        0x00000aec:    0117        ..      LSLS     r7,r2,#4
        0x00000aee:    0b88        ..      LSRS     r0,r1,#14
        0x00000af0:    0382        ..      LSLS     r2,r0,#14
        0x00000af2:    4391        .C      BICS     r1,r1,r2
        0x00000af4:    092d        -.      LSRS     r5,r5,#4
        0x00000af6:    468c        .F      MOV      r12,r1
        0x00000af8:    0ba9        ..      LSRS     r1,r5,#14
        0x00000afa:    431e        .C      ORRS     r6,r6,r3
        0x00000afc:    038a        ..      LSLS     r2,r1,#14
        0x00000afe:    4395        .C      BICS     r5,r5,r2
        0x00000b00:    0bb3        ..      LSRS     r3,r6,#14
        0x00000b02:    039a        ..      LSLS     r2,r3,#14
        0x00000b04:    4396        .C      BICS     r6,r6,r2
        0x00000b06:    093f        ?.      LSRS     r7,r7,#4
        0x00000b08:    0bba        ..      LSRS     r2,r7,#14
        0x00000b0a:    0394        ..      LSLS     r4,r2,#14
        0x00000b0c:    43a7        .C      BICS     r7,r7,r4
        0x00000b0e:    9602        ..      STR      r6,[sp,#8]
        0x00000b10:    462e        .F      MOV      r6,r5
        0x00000b12:    437e        ~C      MULS     r6,r7,r6
        0x00000b14:    9704        ..      STR      r7,[sp,#0x10]
        0x00000b16:    46b6        .F      MOV      lr,r6
        0x00000b18:    194e        N.      ADDS     r6,r1,r5
        0x00000b1a:    19d7        ..      ADDS     r7,r2,r7
        0x00000b1c:    460c        .F      MOV      r4,r1
        0x00000b1e:    9601        ..      STR      r6,[sp,#4]
        0x00000b20:    4354        TC      MULS     r4,r2,r4
        0x00000b22:    9705        ..      STR      r7,[sp,#0x14]
        0x00000b24:    437e        ~C      MULS     r6,r7,r6
        0x00000b26:    1b37        7.      SUBS     r7,r6,r4
        0x00000b28:    4676        vF      MOV      r6,lr
        0x00000b2a:    1bbf        ..      SUBS     r7,r7,r6
        0x00000b2c:    0136        6.      LSLS     r6,r6,#4
        0x00000b2e:    46b6        .F      MOV      lr,r6
        0x00000b30:    0bbe        ..      LSRS     r6,r7,#14
        0x00000b32:    1936        6.      ADDS     r6,r6,r4
        0x00000b34:    9600        ..      STR      r6,[sp,#0]
        0x00000b36:    4676        vF      MOV      r6,lr
        0x00000b38:    04bc        ..      LSLS     r4,r7,#18
        0x00000b3a:    1937        7.      ADDS     r7,r6,r4
        0x00000b3c:    9c00        ..      LDR      r4,[sp,#0]
        0x00000b3e:    d301        ..      BCC      0xb44 ; __aeabi_dmul + 168
        0x00000b40:    1c64        d.      ADDS     r4,r4,#1
        0x00000b42:    9400        ..      STR      r4,[sp,#0]
        0x00000b44:    0064        d.      LSLS     r4,r4,#1
        0x00000b46:    2f00        ./      CMP      r7,#0
        0x00000b48:    d001        ..      BEQ      0xb4e ; __aeabi_dmul + 178
        0x00000b4a:    2601        .&      MOVS     r6,#1
        0x00000b4c:    4334        4C      ORRS     r4,r4,r6
        0x00000b4e:    9e02        ..      LDR      r6,[sp,#8]
        0x00000b50:    9f04        ..      LDR      r7,[sp,#0x10]
        0x00000b52:    4375        uC      MULS     r5,r6,r5
        0x00000b54:    4666        fF      MOV      r6,r12
        0x00000b56:    437e        ~C      MULS     r6,r7,r6
        0x00000b58:    9604        ..      STR      r6,[sp,#0x10]
        0x00000b5a:    0076        v.      LSLS     r6,r6,#1
        0x00000b5c:    1934        4.      ADDS     r4,r6,r4
        0x00000b5e:    006e        n.      LSLS     r6,r5,#1
        0x00000b60:    1934        4.      ADDS     r4,r6,r4
        0x00000b62:    9400        ..      STR      r4,[sp,#0]
        0x00000b64:    9c02        ..      LDR      r4,[sp,#8]
        0x00000b66:    9e01        ..      LDR      r6,[sp,#4]
        0x00000b68:    191c        ..      ADDS     r4,r3,r4
        0x00000b6a:    4366        fC      MULS     r6,r4,r6
        0x00000b6c:    1b75        u.      SUBS     r5,r6,r5
        0x00000b6e:    46ae        .F      MOV      lr,r5
        0x00000b70:    9406        ..      STR      r4,[sp,#0x18]
        0x00000b72:    4665        eF      MOV      r5,r12
        0x00000b74:    1945        E.      ADDS     r5,r0,r5
        0x00000b76:    9c05        ..      LDR      r4,[sp,#0x14]
        0x00000b78:    9505        ..      STR      r5,[sp,#0x14]
        0x00000b7a:    436c        lC      MULS     r4,r5,r4
        0x00000b7c:    4359        YC      MULS     r1,r3,r1
        0x00000b7e:    4675        uF      MOV      r5,lr
        0x00000b80:    9108        ..      STR      r1,[sp,#0x20]
        0x00000b82:    1a69        i.      SUBS     r1,r5,r1
        0x00000b84:    9101        ..      STR      r1,[sp,#4]
        0x00000b86:    9e04        ..      LDR      r6,[sp,#0x10]
        0x00000b88:    4601        .F      MOV      r1,r0
        0x00000b8a:    4351        QC      MULS     r1,r2,r1
        0x00000b8c:    1ba4        ..      SUBS     r4,r4,r6
        0x00000b8e:    9104        ..      STR      r1,[sp,#0x10]
        0x00000b90:    1a61        a.      SUBS     r1,r4,r1
        0x00000b92:    9c00        ..      LDR      r4,[sp,#0]
        0x00000b94:    9107        ..      STR      r1,[sp,#0x1c]
        0x00000b96:    06e1        ..      LSLS     r1,r4,#27
        0x00000b98:    d005        ..      BEQ      0xba6 ; __aeabi_dmul + 266
        0x00000b9a:    0961        a.      LSRS     r1,r4,#5
        0x00000b9c:    2201        ."      MOVS     r2,#1
        0x00000b9e:    4311        .C      ORRS     r1,r1,r2
        0x00000ba0:    e002        ..      B        0xba8 ; __aeabi_dmul + 268
        0x00000ba2:    e072        r.      B        0xc8a ; __aeabi_dmul + 494
        0x00000ba4:    e06e        n.      B        0xc84 ; __aeabi_dmul + 488
        0x00000ba6:    0961        a.      LSRS     r1,r4,#5
        0x00000ba8:    9d08        ..      LDR      r5,[sp,#0x20]
        0x00000baa:    2700        .'      MOVS     r7,#0
        0x00000bac:    0a2c        ,.      LSRS     r4,r5,#8
        0x00000bae:    062d        -.      LSLS     r5,r5,#24
        0x00000bb0:    1869        i.      ADDS     r1,r5,r1
        0x00000bb2:    9d04        ..      LDR      r5,[sp,#0x10]
        0x00000bb4:    417c        |A      ADCS     r4,r4,r7
        0x00000bb6:    0a2a        *.      LSRS     r2,r5,#8
        0x00000bb8:    062d        -.      LSLS     r5,r5,#24
        0x00000bba:    1869        i.      ADDS     r1,r5,r1
        0x00000bbc:    9d01        ..      LDR      r5,[sp,#4]
        0x00000bbe:    4162        bA      ADCS     r2,r2,r4
        0x00000bc0:    0dac        ..      LSRS     r4,r5,#22
        0x00000bc2:    02ad        ..      LSLS     r5,r5,#10
        0x00000bc4:    186d        m.      ADDS     r5,r5,r1
        0x00000bc6:    4154        TA      ADCS     r4,r4,r2
        0x00000bc8:    9a07        ..      LDR      r2,[sp,#0x1c]
        0x00000bca:    0d91        ..      LSRS     r1,r2,#22
        0x00000bcc:    0292        ..      LSLS     r2,r2,#10
        0x00000bce:    1955        U.      ADDS     r5,r2,r5
        0x00000bd0:    4161        aA      ADCS     r1,r1,r4
        0x00000bd2:    9a02        ..      LDR      r2,[sp,#8]
        0x00000bd4:    4664        dF      MOV      r4,r12
        0x00000bd6:    4358        XC      MULS     r0,r3,r0
        0x00000bd8:    4354        TC      MULS     r4,r2,r4
        0x00000bda:    9b06        ..      LDR      r3,[sp,#0x18]
        0x00000bdc:    9a05        ..      LDR      r2,[sp,#0x14]
        0x00000bde:    435a        ZC      MULS     r2,r3,r2
        0x00000be0:    1a12        ..      SUBS     r2,r2,r0
        0x00000be2:    1b13        ..      SUBS     r3,r2,r4
        0x00000be4:    0e9a        ..      LSRS     r2,r3,#26
        0x00000be6:    019b        ..      LSLS     r3,r3,#6
        0x00000be8:    185b        [.      ADDS     r3,r3,r1
        0x00000bea:    417a        zA      ADCS     r2,r2,r7
        0x00000bec:    0b01        ..      LSRS     r1,r0,#12
        0x00000bee:    0500        ..      LSLS     r0,r0,#20
        0x00000bf0:    18c3        ..      ADDS     r3,r0,r3
        0x00000bf2:    4151        QA      ADCS     r1,r1,r2
        0x00000bf4:    0a22        ".      LSRS     r2,r4,#8
        0x00000bf6:    0620         .      LSLS     r0,r4,#24
        0x00000bf8:    1944        D.      ADDS     r4,r0,r5
        0x00000bfa:    415a        ZA      ADCS     r2,r2,r3
        0x00000bfc:    429a        .B      CMP      r2,r3
        0x00000bfe:    d200        ..      BCS      0xc02 ; __aeabi_dmul + 358
        0x00000c00:    1c49        I.      ADDS     r1,r1,#1
        0x00000c02:    2001        .       MOVS     r0,#1
        0x00000c04:    0240        @.      LSLS     r0,r0,#9
        0x00000c06:    4281        .B      CMP      r1,r0
        0x00000c08:    d303        ..      BCC      0xc12 ; __aeabi_dmul + 374
        0x00000c0a:    2315        .#      MOVS     r3,#0x15
        0x00000c0c:    2602        .&      MOVS     r6,#2
        0x00000c0e:    43f6        .C      MVNS     r6,r6
        0x00000c10:    e002        ..      B        0xc18 ; __aeabi_dmul + 380
        0x00000c12:    2314        .#      MOVS     r3,#0x14
        0x00000c14:    2603        .&      MOVS     r6,#3
        0x00000c16:    43f6        .C      MVNS     r6,r6
        0x00000c18:    2020                MOVS     r0,#0x20
        0x00000c1a:    1ac5        ..      SUBS     r5,r0,r3
        0x00000c1c:    40a9        .@      LSLS     r1,r1,r5
        0x00000c1e:    4617        .F      MOV      r7,r2
        0x00000c20:    40af        .@      LSLS     r7,r7,r5
        0x00000c22:    40da        .@      LSRS     r2,r2,r3
        0x00000c24:    430a        .C      ORRS     r2,r2,r1
        0x00000c26:    4620         F      MOV      r0,r4
        0x00000c28:    9903        ..      LDR      r1,[sp,#0xc]
        0x00000c2a:    40d8        .@      LSRS     r0,r0,r3
        0x00000c2c:    1409        ..      ASRS     r1,r1,#16
        0x00000c2e:    1873        s.      ADDS     r3,r6,r1
        0x00000c30:    0519        ..      LSLS     r1,r3,#20
        0x00000c32:    1851        Q.      ADDS     r1,r2,r1
        0x00000c34:    9a03        ..      LDR      r2,[sp,#0xc]
        0x00000c36:    4338        8C      ORRS     r0,r0,r7
        0x00000c38:    07d2        ..      LSLS     r2,r2,#31
        0x00000c3a:    4051        Q@      EORS     r1,r1,r2
        0x00000c3c:    40ac        .@      LSLS     r4,r4,r5
        0x00000c3e:    d009        ..      BEQ      0xc54 ; __aeabi_dmul + 440
        0x00000c40:    2201        ."      MOVS     r2,#1
        0x00000c42:    4094        .@      LSLS     r4,r4,r2
        0x00000c44:    d306        ..      BCC      0xc54 ; __aeabi_dmul + 440
        0x00000c46:    2200        ."      MOVS     r2,#0
        0x00000c48:    1c40        @.      ADDS     r0,r0,#1
        0x00000c4a:    4151        QA      ADCS     r1,r1,r2
        0x00000c4c:    2c00        .,      CMP      r4,#0
        0x00000c4e:    d101        ..      BNE      0xc54 ; __aeabi_dmul + 440
        0x00000c50:    0840        @.      LSRS     r0,r0,#1
        0x00000c52:    0040        @.      LSLS     r0,r0,#1
        0x00000c54:    4a1e        .J      LDR      r2,[pc,#120] ; [0xcd0] = 0x7fe
        0x00000c56:    4293        .B      CMP      r3,r2
        0x00000c58:    d312        ..      BCC      0xc80 ; __aeabi_dmul + 484
        0x00000c5a:    2201        ."      MOVS     r2,#1
        0x00000c5c:    9803        ..      LDR      r0,[sp,#0xc]
        0x00000c5e:    0692        ..      LSLS     r2,r2,#26
        0x00000c60:    4290        .B      CMP      r0,r2
        0x00000c62:    db07        ..      BLT      0xc74 ; __aeabi_dmul + 472
        0x00000c64:    2005        .       MOVS     r0,#5
        0x00000c66:    0740        @.      LSLS     r0,r0,#29
        0x00000c68:    1809        ..      ADDS     r1,r1,r0
        0x00000c6a:    481a        .H      LDR      r0,[pc,#104] ; [0xcd4] = 0x7fffffff
        0x00000c6c:    4301        .C      ORRS     r1,r1,r0
        0x00000c6e:    12c0        ..      ASRS     r0,r0,#11
        0x00000c70:    4041        A@      EORS     r1,r1,r0
        0x00000c72:    e004        ..      B        0xc7e ; __aeabi_dmul + 482
        0x00000c74:    2003        .       MOVS     r0,#3
        0x00000c76:    0740        @.      LSLS     r0,r0,#29
        0x00000c78:    1808        ..      ADDS     r0,r1,r0
        0x00000c7a:    0fc1        ..      LSRS     r1,r0,#31
        0x00000c7c:    07c9        ..      LSLS     r1,r1,#31
        0x00000c7e:    2000        .       MOVS     r0,#0
        0x00000c80:    b009        ..      ADD      sp,sp,#0x24
        0x00000c82:    bdf0        ..      POP      {r4-r7,pc}
        0x00000c84:    2000        .       MOVS     r0,#0
        0x00000c86:    07f1        ..      LSLS     r1,r6,#31
        0x00000c88:    e7fa        ..      B        0xc80 ; __aeabi_dmul + 484
        0x00000c8a:    1805        ..      ADDS     r5,r0,r0
        0x00000c8c:    460c        .F      MOV      r4,r1
        0x00000c8e:    414c        LA      ADCS     r4,r4,r1
        0x00000c90:    4811        .H      LDR      r0,[pc,#68] ; [0xcd8] = 0xffe00000
        0x00000c92:    426d        mB      RSBS     r5,r5,#0
        0x00000c94:    41a0        .A      SBCS     r0,r0,r4
        0x00000c96:    d315        ..      BCC      0xcc4 ; __aeabi_dmul + 552
        0x00000c98:    1894        ..      ADDS     r4,r2,r2
        0x00000c9a:    461a        .F      MOV      r2,r3
        0x00000c9c:    415a        ZA      ADCS     r2,r2,r3
        0x00000c9e:    480e        .H      LDR      r0,[pc,#56] ; [0xcd8] = 0xffe00000
        0x00000ca0:    4264        dB      RSBS     r4,r4,#0
        0x00000ca2:    4190        .A      SBCS     r0,r0,r2
        0x00000ca4:    d30e        ..      BCC      0xcc4 ; __aeabi_dmul + 552
        0x00000ca6:    2001        .       MOVS     r0,#1
        0x00000ca8:    004a        J.      LSLS     r2,r1,#1
        0x00000caa:    0540        @.      LSLS     r0,r0,#21
        0x00000cac:    4282        .B      CMP      r2,r0
        0x00000cae:    d309        ..      BCC      0xcc4 ; __aeabi_dmul + 552
        0x00000cb0:    005a        Z.      LSLS     r2,r3,#1
        0x00000cb2:    4282        .B      CMP      r2,r0
        0x00000cb4:    d306        ..      BCC      0xcc4 ; __aeabi_dmul + 552
        0x00000cb6:    4059        Y@      EORS     r1,r1,r3
        0x00000cb8:    0fc9        ..      LSRS     r1,r1,#31
        0x00000cba:    4a08        .J      LDR      r2,[pc,#32] ; [0xcdc] = 0x7ff00000
        0x00000cbc:    07c9        ..      LSLS     r1,r1,#31
        0x00000cbe:    2000        .       MOVS     r0,#0
        0x00000cc0:    4311        .C      ORRS     r1,r1,r2
        0x00000cc2:    e7dd        ..      B        0xc80 ; __aeabi_dmul + 484
        0x00000cc4:    2000        .       MOVS     r0,#0
        0x00000cc6:    4906        .I      LDR      r1,[pc,#24] ; [0xce0] = 0x7ff80000
        0x00000cc8:    e7da        ..      B        0xc80 ; __aeabi_dmul + 484
    $d
        0x00000cca:    0000        ..      DCW    0
        0x00000ccc:    07ff0000    ....    DCD    134152192
        0x00000cd0:    000007fe    ....    DCD    2046
        0x00000cd4:    7fffffff    ....    DCD    2147483647
        0x00000cd8:    ffe00000    ....    DCD    4292870144
        0x00000cdc:    7ff00000    ....    DCD    2146435072
        0x00000ce0:    7ff80000    ....    DCD    2146959360
    $t
    .text
    __aeabi_f2d
    _f2d
        0x00000ce4:    2101        .!      MOVS     r1,#1
        0x00000ce6:    05c9        ..      LSLS     r1,r1,#23
        0x00000ce8:    2301        .#      MOVS     r3,#1
        0x00000cea:    1841        A.      ADDS     r1,r0,r1
        0x00000cec:    0042        B.      LSLS     r2,r0,#1
        0x00000cee:    061b        ..      LSLS     r3,r3,#24
        0x00000cf0:    18d3        ..      ADDS     r3,r2,r3
        0x00000cf2:    0e5b        [.      LSRS     r3,r3,#25
        0x00000cf4:    d00a        ..      BEQ      0xd0c ; __aeabi_f2d + 40
        0x00000cf6:    10c1        ..      ASRS     r1,r0,#3
        0x00000cf8:    2207        ."      MOVS     r2,#7
        0x00000cfa:    06d2        ..      LSLS     r2,r2,#27
        0x00000cfc:    1889        ..      ADDS     r1,r1,r2
        0x00000cfe:    0740        @.      LSLS     r0,r0,#29
        0x00000d00:    4252        RB      RSBS     r2,r2,#0
        0x00000d02:    42d1        .B      CMN      r1,r2
        0x00000d04:    d501        ..      BPL      0xd0a ; __aeabi_f2d + 38
        0x00000d06:    0052        R.      LSLS     r2,r2,#1
        0x00000d08:    1889        ..      ADDS     r1,r1,r2
        0x00000d0a:    4770        pG      BX       lr
        0x00000d0c:    0209        ..      LSLS     r1,r1,#8
        0x00000d0e:    d508        ..      BPL      0xd22 ; __aeabi_f2d + 62
        0x00000d10:    4601        .F      MOV      r1,r0
        0x00000d12:    2a00        .*      CMP      r2,#0
        0x00000d14:    d003        ..      BEQ      0xd1e ; __aeabi_f2d + 58
        0x00000d16:    0fc1        ..      LSRS     r1,r0,#31
        0x00000d18:    07c9        ..      LSLS     r1,r1,#31
        0x00000d1a:    2000        .       MOVS     r0,#0
        0x00000d1c:    4770        pG      BX       lr
        0x00000d1e:    4610        .F      MOV      r0,r2
        0x00000d20:    4770        pG      BX       lr
        0x00000d22:    0242        B.      LSLS     r2,r0,#9
        0x00000d24:    d002        ..      BEQ      0xd2c ; __aeabi_f2d + 72
        0x00000d26:    2000        .       MOVS     r0,#0
        0x00000d28:    4902        .I      LDR      r1,[pc,#8] ; [0xd34] = 0x7ff80000
        0x00000d2a:    4770        pG      BX       lr
        0x00000d2c:    2107        .!      MOVS     r1,#7
        0x00000d2e:    0509        ..      LSLS     r1,r1,#20
        0x00000d30:    4301        .C      ORRS     r1,r1,r0
        0x00000d32:    e7f4        ..      B        0xd1e ; __aeabi_f2d + 58
    $d
        0x00000d34:    7ff80000    ....    DCD    2146959360
    $t
    .text
    __aeabi_fdiv
    _fdiv
        0x00000d38:    b5f0        ..      PUSH     {r4-r7,lr}
        0x00000d3a:    25ff        .%      MOVS     r5,#0xff
        0x00000d3c:    042d        -.      LSLS     r5,r5,#16
        0x00000d3e:    09c6        ..      LSRS     r6,r0,#7
        0x00000d40:    09c2        ..      LSRS     r2,r0,#7
        0x00000d42:    27ff        .'      MOVS     r7,#0xff
        0x00000d44:    4604        .F      MOV      r4,r0
        0x00000d46:    402e        .@      ANDS     r6,r6,r5
        0x00000d48:    3701        .7      ADDS     r7,#1
        0x00000d4a:    09cb        ..      LSRS     r3,r1,#7
        0x00000d4c:    433e        >C      ORRS     r6,r6,r7
        0x00000d4e:    4048        H@      EORS     r0,r0,r1
        0x00000d50:    402a        *@      ANDS     r2,r2,r5
        0x00000d52:    402b        +@      ANDS     r3,r3,r5
        0x00000d54:    4607        .F      MOV      r7,r0
        0x00000d56:    2a00        .*      CMP      r2,#0
        0x00000d58:    d06b        k.      BEQ      0xe32 ; __aeabi_fdiv + 250
        0x00000d5a:    2b00        .+      CMP      r3,#0
        0x00000d5c:    d069        i.      BEQ      0xe32 ; __aeabi_fdiv + 250
        0x00000d5e:    42aa        .B      CMP      r2,r5
        0x00000d60:    d067        g.      BEQ      0xe32 ; __aeabi_fdiv + 250
        0x00000d62:    42ab        .B      CMP      r3,r5
        0x00000d64:    d065        e.      BEQ      0xe32 ; __aeabi_fdiv + 250
        0x00000d66:    2800        .(      CMP      r0,#0
        0x00000d68:    da00        ..      BGE      0xd6c ; __aeabi_fdiv + 52
        0x00000d6a:    4632        2F      MOV      r2,r6
        0x00000d6c:    2501        .%      MOVS     r5,#1
        0x00000d6e:    05ed        ..      LSLS     r5,r5,#23
        0x00000d70:    4329        )C      ORRS     r1,r1,r5
        0x00000d72:    432c        ,C      ORRS     r4,r4,r5
        0x00000d74:    0209        ..      LSLS     r1,r1,#8
        0x00000d76:    0220         .      LSLS     r0,r4,#8
        0x00000d78:    0a09        ..      LSRS     r1,r1,#8
        0x00000d7a:    1ad2        ..      SUBS     r2,r2,r3
        0x00000d7c:    0c4b        K.      LSRS     r3,r1,#17
        0x00000d7e:    247f        .$      MOVS     r4,#0x7f
        0x00000d80:    1ae3        ..      SUBS     r3,r4,r3
        0x00000d82:    4c43        CL      LDR      r4,[pc,#268] ; [0xe90] = 0x64a2
        0x00000d84:    0a00        ..      LSRS     r0,r0,#8
        0x00000d86:    447c        |D      ADD      r4,r4,pc
        0x00000d88:    5ce3        .\      LDRB     r3,[r4,r3]
        0x00000d8a:    247d        }$      MOVS     r4,#0x7d
        0x00000d8c:    0424        $.      LSLS     r4,r4,#16
        0x00000d8e:    1912        ..      ADDS     r2,r2,r4
        0x00000d90:    1414        ..      ASRS     r4,r2,#16
        0x00000d92:    005b        [.      LSLS     r3,r3,#1
        0x00000d94:    18a2        ..      ADDS     r2,r4,r2
        0x00000d96:    4288        .B      CMP      r0,r1
        0x00000d98:    d301        ..      BCC      0xd9e ; __aeabi_fdiv + 102
        0x00000d9a:    1c52        R.      ADDS     r2,r2,#1
        0x00000d9c:    e000        ..      B        0xda0 ; __aeabi_fdiv + 104
        0x00000d9e:    0040        @.      LSLS     r0,r0,#1
        0x00000da0:    4249        IB      RSBS     r1,r1,#0
        0x00000da2:    460c        .F      MOV      r4,r1
        0x00000da4:    435c        \C      MULS     r4,r3,r4
        0x00000da6:    1124        $.      ASRS     r4,r4,#4
        0x00000da8:    435c        \C      MULS     r4,r3,r4
        0x00000daa:    01db        ..      LSLS     r3,r3,#7
        0x00000dac:    1564        d.      ASRS     r4,r4,#21
        0x00000dae:    18e3        ..      ADDS     r3,r4,r3
        0x00000db0:    0a04        ..      LSRS     r4,r0,#8
        0x00000db2:    435c        \C      MULS     r4,r3,r4
        0x00000db4:    02c5        ..      LSLS     r5,r0,#11
        0x00000db6:    0d20         .      LSRS     r0,r4,#20
        0x00000db8:    460c        .F      MOV      r4,r1
        0x00000dba:    4344        DC      MULS     r4,r0,r4
        0x00000dbc:    1964        d.      ADDS     r4,r4,r5
        0x00000dbe:    0a25        %.      LSRS     r5,r4,#8
        0x00000dc0:    435d        ]C      MULS     r5,r3,r5
        0x00000dc2:    0323        #.      LSLS     r3,r4,#12
        0x00000dc4:    0cec        ..      LSRS     r4,r5,#19
        0x00000dc6:    460d        .F      MOV      r5,r1
        0x00000dc8:    4365        eC      MULS     r5,r4,r5
        0x00000dca:    0300        ..      LSLS     r0,r0,#12
        0x00000dcc:    1900        ..      ADDS     r0,r0,r4
        0x00000dce:    18eb        ..      ADDS     r3,r5,r3
        0x00000dd0:    424c        LB      RSBS     r4,r1,#0
        0x00000dd2:    42a3        .B      CMP      r3,r4
        0x00000dd4:    d301        ..      BCC      0xdda ; __aeabi_fdiv + 162
        0x00000dd6:    185b        [.      ADDS     r3,r3,r1
        0x00000dd8:    1c40        @.      ADDS     r0,r0,#1
        0x00000dda:    05d4        ..      LSLS     r4,r2,#23
        0x00000ddc:    1820         .      ADDS     r0,r4,r0
        0x00000dde:    2b00        .+      CMP      r3,#0
        0x00000de0:    d007        ..      BEQ      0xdf2 ; __aeabi_fdiv + 186
        0x00000de2:    005b        [.      LSLS     r3,r3,#1
        0x00000de4:    18c9        ..      ADDS     r1,r1,r3
        0x00000de6:    d304        ..      BCC      0xdf2 ; __aeabi_fdiv + 186
        0x00000de8:    1c40        @.      ADDS     r0,r0,#1
        0x00000dea:    2900        .)      CMP      r1,#0
        0x00000dec:    d101        ..      BNE      0xdf2 ; __aeabi_fdiv + 186
        0x00000dee:    0840        @.      LSRS     r0,r0,#1
        0x00000df0:    0040        @.      LSLS     r0,r0,#1
        0x00000df2:    213f        ?!      MOVS     r1,#0x3f
        0x00000df4:    0489        ..      LSLS     r1,r1,#18
        0x00000df6:    428a        .B      CMP      r2,r1
        0x00000df8:    d309        ..      BCC      0xe0e ; __aeabi_fdiv + 214
        0x00000dfa:    2a00        .*      CMP      r2,#0
        0x00000dfc:    dc08        ..      BGT      0xe10 ; __aeabi_fdiv + 216
        0x00000dfe:    0611        ..      LSLS     r1,r2,#24
        0x00000e00:    0f09        ..      LSRS     r1,r1,#28
        0x00000e02:    d004        ..      BEQ      0xe0e ; __aeabi_fdiv + 214
        0x00000e04:    2103        .!      MOVS     r1,#3
        0x00000e06:    0749        I.      LSLS     r1,r1,#29
        0x00000e08:    1840        @.      ADDS     r0,r0,r1
        0x00000e0a:    0fc0        ..      LSRS     r0,r0,#31
        0x00000e0c:    07c0        ..      LSLS     r0,r0,#31
        0x00000e0e:    bdf0        ..      POP      {r4-r7,pc}
        0x00000e10:    2201        ."      MOVS     r2,#1
        0x00000e12:    0041        A.      LSLS     r1,r0,#1
        0x00000e14:    0612        ..      LSLS     r2,r2,#24
        0x00000e16:    1889        ..      ADDS     r1,r1,r2
        0x00000e18:    227f        ."      MOVS     r2,#0x7f
        0x00000e1a:    0652        R.      LSLS     r2,r2,#25
        0x00000e1c:    4291        .B      CMP      r1,r2
        0x00000e1e:    d2f6        ..      BCS      0xe0e ; __aeabi_fdiv + 214
        0x00000e20:    2105        .!      MOVS     r1,#5
        0x00000e22:    0749        I.      LSLS     r1,r1,#29
        0x00000e24:    42c8        .B      CMN      r0,r1
        0x00000e26:    d501        ..      BPL      0xe2c ; __aeabi_fdiv + 244
        0x00000e28:    1090        ..      ASRS     r0,r2,#2
        0x00000e2a:    bdf0        ..      POP      {r4-r7,pc}
        0x00000e2c:    20ff        .       MOVS     r0,#0xff
        0x00000e2e:    05c0        ..      LSLS     r0,r0,#23
        0x00000e30:    bdf0        ..      POP      {r4-r7,pc}
        0x00000e32:    2f00        ./      CMP      r7,#0
        0x00000e34:    da00        ..      BGE      0xe38 ; __aeabi_fdiv + 256
        0x00000e36:    4632        2F      MOV      r2,r6
        0x00000e38:    4816        .H      LDR      r0,[pc,#88] ; [0xe94] = 0x7fc00000
        0x00000e3a:    42aa        .B      CMP      r2,r5
        0x00000e3c:    d207        ..      BCS      0xe4e ; __aeabi_fdiv + 278
        0x00000e3e:    42ab        .B      CMP      r3,r5
        0x00000e40:    d205        ..      BCS      0xe4e ; __aeabi_fdiv + 278
        0x00000e42:    0219        ..      LSLS     r1,r3,#8
        0x00000e44:    0e09        ..      LSRS     r1,r1,#24
        0x00000e46:    d017        ..      BEQ      0xe78 ; __aeabi_fdiv + 320
        0x00000e48:    0ff8        ..      LSRS     r0,r7,#31
        0x00000e4a:    07c0        ..      LSLS     r0,r0,#31
        0x00000e4c:    bdf0        ..      POP      {r4-r7,pc}
        0x00000e4e:    25ff        .%      MOVS     r5,#0xff
        0x00000e50:    0063        c.      LSLS     r3,r4,#1
        0x00000e52:    062d        -.      LSLS     r5,r5,#24
        0x00000e54:    42ab        .B      CMP      r3,r5
        0x00000e56:    d8f9        ..      BHI      0xe4c ; __aeabi_fdiv + 276
        0x00000e58:    0049        I.      LSLS     r1,r1,#1
        0x00000e5a:    42a9        .B      CMP      r1,r5
        0x00000e5c:    d8f6        ..      BHI      0xe4c ; __aeabi_fdiv + 276
        0x00000e5e:    42ab        .B      CMP      r3,r5
        0x00000e60:    d101        ..      BNE      0xe66 ; __aeabi_fdiv + 302
        0x00000e62:    42a9        .B      CMP      r1,r5
        0x00000e64:    d0f2        ..      BEQ      0xe4c ; __aeabi_fdiv + 276
        0x00000e66:    42a9        .B      CMP      r1,r5
        0x00000e68:    d101        ..      BNE      0xe6e ; __aeabi_fdiv + 310
        0x00000e6a:    2100        .!      MOVS     r1,#0
        0x00000e6c:    e001        ..      B        0xe72 ; __aeabi_fdiv + 314
        0x00000e6e:    0061        a.      LSLS     r1,r4,#1
        0x00000e70:    0849        I.      LSRS     r1,r1,#1
        0x00000e72:    05d0        ..      LSLS     r0,r2,#23
        0x00000e74:    4308        .C      ORRS     r0,r0,r1
        0x00000e76:    bdf0        ..      POP      {r4-r7,pc}
        0x00000e78:    0211        ..      LSLS     r1,r2,#8
        0x00000e7a:    0e09        ..      LSRS     r1,r1,#24
        0x00000e7c:    d0fb        ..      BEQ      0xe76 ; __aeabi_fdiv + 318
        0x00000e7e:    20ff        .       MOVS     r0,#0xff
        0x00000e80:    4302        .C      ORRS     r2,r2,r0
        0x00000e82:    05d0        ..      LSLS     r0,r2,#23
        0x00000e84:    bdf0        ..      POP      {r4-r7,pc}
    _frdiv
        0x00000e86:    460a        .F      MOV      r2,r1
        0x00000e88:    4601        .F      MOV      r1,r0
        0x00000e8a:    4610        .F      MOV      r0,r2
        0x00000e8c:    e754        T.      B        __aeabi_fdiv ; 0xd38
    $d
        0x00000e8e:    0000        ..      DCW    0
        0x00000e90:    000064a2    .d..    DCD    25762
        0x00000e94:    7fc00000    ....    DCD    2143289344
    $t
    .text
    __aeabi_i2f_normalise
        0x00000e98:    221f        ."      MOVS     r2,#0x1f
        0x00000e9a:    0c03        ..      LSRS     r3,r0,#16
        0x00000e9c:    d102        ..      BNE      0xea4 ; __aeabi_i2f_normalise + 12
        0x00000e9e:    220f        ."      MOVS     r2,#0xf
        0x00000ea0:    0400        ..      LSLS     r0,r0,#16
        0x00000ea2:    d01c        ..      BEQ      0xede ; __aeabi_i2f_normalise + 70
        0x00000ea4:    0e03        ..      LSRS     r3,r0,#24
        0x00000ea6:    d101        ..      BNE      0xeac ; __aeabi_i2f_normalise + 20
        0x00000ea8:    0200        ..      LSLS     r0,r0,#8
        0x00000eaa:    3a08        .:      SUBS     r2,r2,#8
        0x00000eac:    0f03        ..      LSRS     r3,r0,#28
        0x00000eae:    d101        ..      BNE      0xeb4 ; __aeabi_i2f_normalise + 28
        0x00000eb0:    0100        ..      LSLS     r0,r0,#4
        0x00000eb2:    1f12        ..      SUBS     r2,r2,#4
        0x00000eb4:    0f83        ..      LSRS     r3,r0,#30
        0x00000eb6:    d101        ..      BNE      0xebc ; __aeabi_i2f_normalise + 36
        0x00000eb8:    0080        ..      LSLS     r0,r0,#2
        0x00000eba:    1e92        ..      SUBS     r2,r2,#2
        0x00000ebc:    2800        .(      CMP      r0,#0
        0x00000ebe:    db01        ..      BLT      0xec4 ; __aeabi_i2f_normalise + 44
        0x00000ec0:    0040        @.      LSLS     r0,r0,#1
        0x00000ec2:    1e52        R.      SUBS     r2,r2,#1
        0x00000ec4:    05d2        ..      LSLS     r2,r2,#23
        0x00000ec6:    1851        Q.      ADDS     r1,r2,r1
        0x00000ec8:    1202        ..      ASRS     r2,r0,#8
        0x00000eca:    1851        Q.      ADDS     r1,r2,r1
        0x00000ecc:    2219        ."      MOVS     r2,#0x19
        0x00000ece:    4090        .@      LSLS     r0,r0,r2
        0x00000ed0:    d304        ..      BCC      0xedc ; __aeabi_i2f_normalise + 68
        0x00000ed2:    1c49        I.      ADDS     r1,r1,#1
        0x00000ed4:    2800        .(      CMP      r0,#0
        0x00000ed6:    d101        ..      BNE      0xedc ; __aeabi_i2f_normalise + 68
        0x00000ed8:    0849        I.      LSRS     r1,r1,#1
        0x00000eda:    0049        I.      LSLS     r1,r1,#1
        0x00000edc:    4608        .F      MOV      r0,r1
        0x00000ede:    4770        pG      BX       lr
    __aeabi_i2f
    _fflt
        0x00000ee0:    0fc1        ..      LSRS     r1,r0,#31
        0x00000ee2:    07c9        ..      LSLS     r1,r1,#31
        0x00000ee4:    d000        ..      BEQ      0xee8 ; __aeabi_i2f + 8
        0x00000ee6:    4240        @B      RSBS     r0,r0,#0
        0x00000ee8:    2201        ."      MOVS     r2,#1
        0x00000eea:    0792        ..      LSLS     r2,r2,#30
        0x00000eec:    4311        .C      ORRS     r1,r1,r2
        0x00000eee:    e7d3        ..      B        __aeabi_i2f_normalise ; 0xe98
    __aeabi_ui2f
    _ffltu
        0x00000ef0:    2101        .!      MOVS     r1,#1
        0x00000ef2:    0789        ..      LSLS     r1,r1,#30
        0x00000ef4:    e7d0        ..      B        __aeabi_i2f_normalise ; 0xe98
    .text
    __user_setup_stackheap
        0x00000ef6:    4675        uF      MOV      r5,lr
        0x00000ef8:    f000f824    ..$.    BL       __user_libspace ; 0xf44
        0x00000efc:    46ae        .F      MOV      lr,r5
        0x00000efe:    0005        ..      MOVS     r5,r0
        0x00000f00:    4669        iF      MOV      r1,sp
        0x00000f02:    4653        SF      MOV      r3,r10
        0x00000f04:    08c0        ..      LSRS     r0,r0,#3
        0x00000f06:    00c0        ..      LSLS     r0,r0,#3
        0x00000f08:    4685        .F      MOV      sp,r0
        0x00000f0a:    b018        ..      ADD      sp,sp,#0x60
        0x00000f0c:    b520         .      PUSH     {r5,lr}
        0x00000f0e:    f7fff8ff    ....    BL       __user_initial_stackheap ; 0x110
        0x00000f12:    bc60        `.      POP      {r5,r6}
        0x00000f14:    2700        .'      MOVS     r7,#0
        0x00000f16:    0849        I.      LSRS     r1,r1,#1
        0x00000f18:    46b6        .F      MOV      lr,r6
        0x00000f1a:    2600        .&      MOVS     r6,#0
        0x00000f1c:    c5c0        ..      STM      r5!,{r6,r7}
        0x00000f1e:    c5c0        ..      STM      r5!,{r6,r7}
        0x00000f20:    c5c0        ..      STM      r5!,{r6,r7}
        0x00000f22:    c5c0        ..      STM      r5!,{r6,r7}
        0x00000f24:    c5c0        ..      STM      r5!,{r6,r7}
        0x00000f26:    c5c0        ..      STM      r5!,{r6,r7}
        0x00000f28:    c5c0        ..      STM      r5!,{r6,r7}
        0x00000f2a:    c5c0        ..      STM      r5!,{r6,r7}
        0x00000f2c:    3d40        @=      SUBS     r5,r5,#0x40
        0x00000f2e:    0049        I.      LSLS     r1,r1,#1
        0x00000f30:    468d        .F      MOV      sp,r1
        0x00000f32:    4770        pG      BX       lr
    .text
    exit
        0x00000f34:    b510        ..      PUSH     {r4,lr}
        0x00000f36:    4604        .F      MOV      r4,r0
        0x00000f38:    46c0        .F      MOV      r8,r8
        0x00000f3a:    46c0        .F      MOV      r8,r8
        0x00000f3c:    4620         F      MOV      r0,r4
        0x00000f3e:    f7fff8d0    ....    BL       __rt_exit ; 0xe2
        0x00000f42:    bd10        ..      POP      {r4,pc}
    .text
    __user_libspace
    __user_perproc_libspace
    __user_perthread_libspace
        0x00000f44:    4800        .H      LDR      r0,[pc,#0] ; [0xf48] = 0x200001dc
        0x00000f46:    4770        pG      BX       lr
    $d
        0x00000f48:    200001dc    ...     DCD    536871388
    $t
    .text
    _sys_exit
        0x00000f4c:    4901        .I      LDR      r1,[pc,#4] ; [0xf54] = 0x20026
        0x00000f4e:    2018        .       MOVS     r0,#0x18
        0x00000f50:    beab        ..      BKPT     #0xab
        0x00000f52:    e7fe        ..      B        0xf52 ; _sys_exit + 6
    $d
        0x00000f54:    00020026    &...    DCD    131110
    $t
    .text
    __I$use$semihosting
    __use_no_semihosting_swi
        0x00000f58:    4770        pG      BX       lr
    i.Delay
    .text
    Delay
    __semihosting_library_function
        0x00000f5a:    2100        .!      MOVS     r1,#0
        0x00000f5c:    e003        ..      B        0xf66 ; Delay + 12
        0x00000f5e:    1c49        I.      ADDS     r1,r1,#1
        0x00000f60:    4281        .B      CMP      r1,r0
        0x00000f62:    d100        ..      BNE      0xf66 ; Delay + 12
        0x00000f64:    e000        ..      B        0xf68 ; Delay + 14
        0x00000f66:    e7fa        ..      B        0xf5e ; Delay + 4
        0x00000f68:    bf00        ..      NOP      
        0x00000f6a:    4770        pG      BX       lr
    i.Draw_pic
    Draw_pic
        0x00000f6c:    b570        p.      PUSH     {r4-r6,lr}
        0x00000f6e:    18cc        ..      ADDS     r4,r1,r3
        0x00000f70:    2cf0        .,      CMP      r4,#0xf0
        0x00000f72:    dc0e        ..      BGT      0xf92 ; Draw_pic + 38
        0x00000f74:    18d4        ..      ADDS     r4,r2,r3
        0x00000f76:    25ff        .%      MOVS     r5,#0xff
        0x00000f78:    3541        A5      ADDS     r5,r5,#0x41
        0x00000f7a:    42ac        .B      CMP      r4,r5
        0x00000f7c:    dc09        ..      BGT      0xf92 ; Draw_pic + 38
        0x00000f7e:    040e        ..      LSLS     r6,r1,#16
        0x00000f80:    4316        .C      ORRS     r6,r6,r2
        0x00000f82:    4634        4F      MOV      r4,r6
        0x00000f84:    1e5d        ].      SUBS     r5,r3,#1
        0x00000f86:    2605        .&      MOVS     r6,#5
        0x00000f88:    0736        6.      LSLS     r6,r6,#28
        0x00000f8a:    6034        4`      STR      r4,[r6,#0]
        0x00000f8c:    6035        5`      STR      r5,[r6,#0]
        0x00000f8e:    6030        0`      STR      r0,[r6,#0]
        0x00000f90:    bf00        ..      NOP      
        0x00000f92:    bd70        p.      POP      {r4-r6,pc}
    i.ENET_TX_EN
    ENET_TX_EN
        0x00000f94:    4901        .I      LDR      r1,[pc,#4] ; [0xf9c] = 0x40009000
        0x00000f96:    6008        .`      STR      r0,[r1,#0]
        0x00000f98:    4770        pG      BX       lr
    $d
        0x00000f9a:    0000        ..      DCW    0
        0x00000f9c:    40009000    ...@    DCD    1073778688
    $t
    i.I2C_Sent
    I2C_Sent
        0x00000fa0:    4903        .I      LDR      r1,[pc,#12] ; [0xfb0] = 0x40008000
        0x00000fa2:    6008        .`      STR      r0,[r1,#0]
        0x00000fa4:    2129        )!      MOVS     r1,#0x29
        0x00000fa6:    4a02        .J      LDR      r2,[pc,#8] ; [0xfb0] = 0x40008000
        0x00000fa8:    6051        Q`      STR      r1,[r2,#4]
        0x00000faa:    4902        .I      LDR      r1,[pc,#8] ; [0xfb4] = 0x2710
        0x00000fac:    6091        .`      STR      r1,[r2,#8]
        0x00000fae:    4770        pG      BX       lr
    $d
        0x00000fb0:    40008000    ...@    DCD    1073774592
        0x00000fb4:    00002710    .'..    DCD    10000
    $t
    i.KEY
    KEY
        0x00000fb8:    b51c        ..      PUSH     {r2-r4,lr}
        0x00000fba:    48fb        .H      LDR      r0,[pc,#1004] ; [0x13a8] = 0x40001000
        0x00000fbc:    6804        .h      LDR      r4,[r0,#0]
        0x00000fbe:    48fb        .H      LDR      r0,[pc,#1004] ; [0x13ac] = 0x20000022
        0x00000fc0:    8800        ..      LDRH     r0,[r0,#0]
        0x00000fc2:    2800        .(      CMP      r0,#0
        0x00000fc4:    d145        E.      BNE      0x1052 ; KEY + 154
        0x00000fc6:    07e0        ..      LSLS     r0,r4,#31
        0x00000fc8:    0fc0        ..      LSRS     r0,r0,#31
        0x00000fca:    2800        .(      CMP      r0,#0
        0x00000fcc:    d005        ..      BEQ      0xfda ; KEY + 34
        0x00000fce:    f000fe6d    ..m.    BL       draw_page1 ; 0x1cac
        0x00000fd2:    2001        .       MOVS     r0,#1
        0x00000fd4:    49f5        .I      LDR      r1,[pc,#980] ; [0x13ac] = 0x20000022
        0x00000fd6:    8008        ..      STRH     r0,[r1,#0]
        0x00000fd8:    e2de        ..      B        0x1598 ; KEY + 1504
        0x00000fda:    2002        .       MOVS     r0,#2
        0x00000fdc:    4020         @      ANDS     r0,r0,r4
        0x00000fde:    2800        .(      CMP      r0,#0
        0x00000fe0:    d005        ..      BEQ      0xfee ; KEY + 54
        0x00000fe2:    f001f861    ..a.    BL       draw_page2 ; 0x20a8
        0x00000fe6:    2002        .       MOVS     r0,#2
        0x00000fe8:    49f0        .I      LDR      r1,[pc,#960] ; [0x13ac] = 0x20000022
        0x00000fea:    8008        ..      STRH     r0,[r1,#0]
        0x00000fec:    e2d4        ..      B        0x1598 ; KEY + 1504
        0x00000fee:    2004        .       MOVS     r0,#4
        0x00000ff0:    4020         @      ANDS     r0,r0,r4
        0x00000ff2:    2800        .(      CMP      r0,#0
        0x00000ff4:    d00f        ..      BEQ      0x1016 ; KEY + 94
        0x00000ff6:    48ee        .H      LDR      r0,[pc,#952] ; [0x13b0] = 0x20000024
        0x00000ff8:    8800        ..      LDRH     r0,[r0,#0]
        0x00000ffa:    2800        .(      CMP      r0,#0
        0x00000ffc:    d102        ..      BNE      0x1004 ; KEY + 76
        0x00000ffe:    f001fe0f    ....    BL       draw_page3_search ; 0x2c20
        0x00001002:    e004        ..      B        0x100e ; KEY + 86
        0x00001004:    48eb        .H      LDR      r0,[pc,#940] ; [0x13b4] = 0x20000034
        0x00001006:    6801        .h      LDR      r1,[r0,#0]
        0x00001008:    48eb        .H      LDR      r0,[pc,#940] ; [0x13b8] = 0x20000114
        0x0000100a:    f001f8c3    ....    BL       draw_page3_result ; 0x2194
        0x0000100e:    2003        .       MOVS     r0,#3
        0x00001010:    49e6        .I      LDR      r1,[pc,#920] ; [0x13ac] = 0x20000022
        0x00001012:    8008        ..      STRH     r0,[r1,#0]
        0x00001014:    e2c0        ..      B        0x1598 ; KEY + 1504
        0x00001016:    2008        .       MOVS     r0,#8
        0x00001018:    4020         @      ANDS     r0,r0,r4
        0x0000101a:    2800        .(      CMP      r0,#0
        0x0000101c:    d005        ..      BEQ      0x102a ; KEY + 114
        0x0000101e:    f001fe6b    ..k.    BL       draw_page4 ; 0x2cf8
        0x00001022:    2004        .       MOVS     r0,#4
        0x00001024:    49e1        .I      LDR      r1,[pc,#900] ; [0x13ac] = 0x20000022
        0x00001026:    8008        ..      STRH     r0,[r1,#0]
        0x00001028:    e2b6        ..      B        0x1598 ; KEY + 1504
        0x0000102a:    2010        .       MOVS     r0,#0x10
        0x0000102c:    4020         @      ANDS     r0,r0,r4
        0x0000102e:    2800        .(      CMP      r0,#0
        0x00001030:    d005        ..      BEQ      0x103e ; KEY + 134
        0x00001032:    f002f85f    .._.    BL       draw_page5 ; 0x30f4
        0x00001036:    2005        .       MOVS     r0,#5
        0x00001038:    49dc        .I      LDR      r1,[pc,#880] ; [0x13ac] = 0x20000022
        0x0000103a:    8008        ..      STRH     r0,[r1,#0]
        0x0000103c:    e2ac        ..      B        0x1598 ; KEY + 1504
        0x0000103e:    2020                MOVS     r0,#0x20
        0x00001040:    4020         @      ANDS     r0,r0,r4
        0x00001042:    2800        .(      CMP      r0,#0
        0x00001044:    d0c8        ..      BEQ      0xfd8 ; KEY + 32
        0x00001046:    f002f94d    ..M.    BL       draw_page6 ; 0x32e4
        0x0000104a:    2006        .       MOVS     r0,#6
        0x0000104c:    49d7        .I      LDR      r1,[pc,#860] ; [0x13ac] = 0x20000022
        0x0000104e:    8008        ..      STRH     r0,[r1,#0]
        0x00001050:    e2a2        ..      B        0x1598 ; KEY + 1504
        0x00001052:    48d6        .H      LDR      r0,[pc,#856] ; [0x13ac] = 0x20000022
        0x00001054:    8800        ..      LDRH     r0,[r0,#0]
        0x00001056:    2801        .(      CMP      r0,#1
        0x00001058:    d17e        ~.      BNE      0x1158 ; KEY + 416
        0x0000105a:    03c0        ..      LSLS     r0,r0,#15
        0x0000105c:    4020         @      ANDS     r0,r0,r4
        0x0000105e:    2800        .(      CMP      r0,#0
        0x00001060:    d005        ..      BEQ      0x106e ; KEY + 182
        0x00001062:    f000fbd7    ....    BL       draw_homepage ; 0x1814
        0x00001066:    2000        .       MOVS     r0,#0
        0x00001068:    49d0        .I      LDR      r1,[pc,#832] ; [0x13ac] = 0x20000022
        0x0000106a:    8008        ..      STRH     r0,[r1,#0]
        0x0000106c:    e03a        :.      B        0x10e4 ; KEY + 300
        0x0000106e:    2020                MOVS     r0,#0x20
        0x00001070:    4020         @      ANDS     r0,r0,r4
        0x00001072:    2800        .(      CMP      r0,#0
        0x00001074:    d005        ..      BEQ      0x1082 ; KEY + 202
        0x00001076:    48d1        .H      LDR      r0,[pc,#836] ; [0x13bc] = 0x20000008
        0x00001078:    6800        .h      LDR      r0,[r0,#0]
        0x0000107a:    300a        .0      ADDS     r0,r0,#0xa
        0x0000107c:    49cf        .I      LDR      r1,[pc,#828] ; [0x13bc] = 0x20000008
        0x0000107e:    6008        .`      STR      r0,[r1,#0]
        0x00001080:    e030        0.      B        0x10e4 ; KEY + 300
        0x00001082:    2010        .       MOVS     r0,#0x10
        0x00001084:    4020         @      ANDS     r0,r0,r4
        0x00001086:    2800        .(      CMP      r0,#0
        0x00001088:    d005        ..      BEQ      0x1096 ; KEY + 222
        0x0000108a:    48cc        .H      LDR      r0,[pc,#816] ; [0x13bc] = 0x20000008
        0x0000108c:    6800        .h      LDR      r0,[r0,#0]
        0x0000108e:    1c40        @.      ADDS     r0,r0,#1
        0x00001090:    49ca        .I      LDR      r1,[pc,#808] ; [0x13bc] = 0x20000008
        0x00001092:    6008        .`      STR      r0,[r1,#0]
        0x00001094:    e026        &.      B        0x10e4 ; KEY + 300
        0x00001096:    2002        .       MOVS     r0,#2
        0x00001098:    4020         @      ANDS     r0,r0,r4
        0x0000109a:    2800        .(      CMP      r0,#0
        0x0000109c:    d005        ..      BEQ      0x10aa ; KEY + 242
        0x0000109e:    48c7        .H      LDR      r0,[pc,#796] ; [0x13bc] = 0x20000008
        0x000010a0:    6800        .h      LDR      r0,[r0,#0]
        0x000010a2:    380a        .8      SUBS     r0,r0,#0xa
        0x000010a4:    49c5        .I      LDR      r1,[pc,#788] ; [0x13bc] = 0x20000008
        0x000010a6:    6008        .`      STR      r0,[r1,#0]
        0x000010a8:    e01c        ..      B        0x10e4 ; KEY + 300
        0x000010aa:    07e0        ..      LSLS     r0,r4,#31
        0x000010ac:    0fc0        ..      LSRS     r0,r0,#31
        0x000010ae:    2800        .(      CMP      r0,#0
        0x000010b0:    d005        ..      BEQ      0x10be ; KEY + 262
        0x000010b2:    48c2        .H      LDR      r0,[pc,#776] ; [0x13bc] = 0x20000008
        0x000010b4:    6800        .h      LDR      r0,[r0,#0]
        0x000010b6:    1e40        @.      SUBS     r0,r0,#1
        0x000010b8:    49c0        .I      LDR      r1,[pc,#768] ; [0x13bc] = 0x20000008
        0x000010ba:    6008        .`      STR      r0,[r1,#0]
        0x000010bc:    e012        ..      B        0x10e4 ; KEY + 300
        0x000010be:    2004        .       MOVS     r0,#4
        0x000010c0:    4020         @      ANDS     r0,r0,r4
        0x000010c2:    2800        .(      CMP      r0,#0
        0x000010c4:    d005        ..      BEQ      0x10d2 ; KEY + 282
        0x000010c6:    48be        .H      LDR      r0,[pc,#760] ; [0x13c0] = 0x2000000c
        0x000010c8:    6800        .h      LDR      r0,[r0,#0]
        0x000010ca:    1e40        @.      SUBS     r0,r0,#1
        0x000010cc:    49bc        .I      LDR      r1,[pc,#752] ; [0x13c0] = 0x2000000c
        0x000010ce:    6008        .`      STR      r0,[r1,#0]
        0x000010d0:    e008        ..      B        0x10e4 ; KEY + 300
        0x000010d2:    2040        @       MOVS     r0,#0x40
        0x000010d4:    4020         @      ANDS     r0,r0,r4
        0x000010d6:    2800        .(      CMP      r0,#0
        0x000010d8:    d004        ..      BEQ      0x10e4 ; KEY + 300
        0x000010da:    48b9        .H      LDR      r0,[pc,#740] ; [0x13c0] = 0x2000000c
        0x000010dc:    6800        .h      LDR      r0,[r0,#0]
        0x000010de:    1c40        @.      ADDS     r0,r0,#1
        0x000010e0:    49b7        .I      LDR      r1,[pc,#732] ; [0x13c0] = 0x2000000c
        0x000010e2:    6008        .`      STR      r0,[r1,#0]
        0x000010e4:    4669        iF      MOV      r1,sp
        0x000010e6:    48b5        .H      LDR      r0,[pc,#724] ; [0x13bc] = 0x20000008
        0x000010e8:    f000faa2    ....    BL       MSI001_Frequency_calc ; 0x1630
        0x000010ec:    2118        .!      MOVS     r1,#0x18
        0x000010ee:    48b5        .H      LDR      r0,[pc,#724] ; [0x13c4] = 0x43420
        0x000010f0:    f000fb40    ..@.    BL       SPI_Sent ; 0x1774
        0x000010f4:    20ff        .       MOVS     r0,#0xff
        0x000010f6:    302d        -0      ADDS     r0,r0,#0x2d
        0x000010f8:    f7ffff2f    ../.    BL       Delay ; 0xf5a
        0x000010fc:    2118        .!      MOVS     r1,#0x18
        0x000010fe:    48b2        .H      LDR      r0,[pc,#712] ; [0x13c8] = 0x28bb85
        0x00001100:    f000fb38    ..8.    BL       SPI_Sent ; 0x1774
        0x00001104:    20ff        .       MOVS     r0,#0xff
        0x00001106:    302d        -0      ADDS     r0,r0,#0x2d
        0x00001108:    f7ffff27    ..'.    BL       Delay ; 0xf5a
        0x0000110c:    9900        ..      LDR      r1,[sp,#0]
        0x0000110e:    0409        ..      LSLS     r1,r1,#16
        0x00001110:    9a01        ..      LDR      r2,[sp,#4]
        0x00001112:    0112        ..      LSLS     r2,r2,#4
        0x00001114:    1889        ..      ADDS     r1,r1,r2
        0x00001116:    1c88        ..      ADDS     r0,r1,#2
        0x00001118:    2118        .!      MOVS     r1,#0x18
        0x0000111a:    f000fb2b    ..+.    BL       SPI_Sent ; 0x1774
        0x0000111e:    20ff        .       MOVS     r0,#0xff
        0x00001120:    302d        -0      ADDS     r0,r0,#0x2d
        0x00001122:    f7ffff1a    ....    BL       Delay ; 0xf5a
        0x00001126:    49a6        .I      LDR      r1,[pc,#664] ; [0x13c0] = 0x2000000c
        0x00001128:    6809        .h      LDR      r1,[r1,#0]
        0x0000112a:    0109        ..      LSLS     r1,r1,#4
        0x0000112c:    4aa7        .J      LDR      r2,[pc,#668] ; [0x13cc] = 0xc001
        0x0000112e:    1888        ..      ADDS     r0,r1,r2
        0x00001130:    2118        .!      MOVS     r1,#0x18
        0x00001132:    f000fb1f    ....    BL       SPI_Sent ; 0x1774
        0x00001136:    20ff        .       MOVS     r0,#0xff
        0x00001138:    302d        -0      ADDS     r0,r0,#0x2d
        0x0000113a:    f7ffff0e    ....    BL       Delay ; 0xf5a
        0x0000113e:    2118        .!      MOVS     r1,#0x18
        0x00001140:    48a3        .H      LDR      r0,[pc,#652] ; [0x13d0] = 0x200016
        0x00001142:    f000fb17    ....    BL       SPI_Sent ; 0x1774
        0x00001146:    20ff        .       MOVS     r0,#0xff
        0x00001148:    302d        -0      ADDS     r0,r0,#0x2d
        0x0000114a:    f7ffff06    ....    BL       Delay ; 0xf5a
        0x0000114e:    2118        .!      MOVS     r1,#0x18
        0x00001150:    48a0        .H      LDR      r0,[pc,#640] ; [0x13d4] = 0xfa03
        0x00001152:    f000fb0f    ....    BL       SPI_Sent ; 0x1774
        0x00001156:    e000        ..      B        0x115a ; KEY + 418
        0x00001158:    e004        ..      B        0x1164 ; KEY + 428
        0x0000115a:    4898        .H      LDR      r0,[pc,#608] ; [0x13bc] = 0x20000008
        0x0000115c:    6800        .h      LDR      r0,[r0,#0]
        0x0000115e:    f000fb21    ..!.    BL       TubeShow ; 0x17a4
        0x00001162:    e219        ..      B        0x1598 ; KEY + 1504
        0x00001164:    4891        .H      LDR      r0,[pc,#580] ; [0x13ac] = 0x20000022
        0x00001166:    8800        ..      LDRH     r0,[r0,#0]
        0x00001168:    2802        .(      CMP      r0,#2
        0x0000116a:    d156        V.      BNE      0x121a ; KEY + 610
        0x0000116c:    0380        ..      LSLS     r0,r0,#14
        0x0000116e:    4020         @      ANDS     r0,r0,r4
        0x00001170:    2800        .(      CMP      r0,#0
        0x00001172:    d005        ..      BEQ      0x1180 ; KEY + 456
        0x00001174:    f000fb4e    ..N.    BL       draw_homepage ; 0x1814
        0x00001178:    2000        .       MOVS     r0,#0
        0x0000117a:    498c        .I      LDR      r1,[pc,#560] ; [0x13ac] = 0x20000022
        0x0000117c:    8008        ..      STRH     r0,[r1,#0]
        0x0000117e:    e012        ..      B        0x11a6 ; KEY + 494
        0x00001180:    2004        .       MOVS     r0,#4
        0x00001182:    4020         @      ANDS     r0,r0,r4
        0x00001184:    2800        .(      CMP      r0,#0
        0x00001186:    d005        ..      BEQ      0x1194 ; KEY + 476
        0x00001188:    488d        .H      LDR      r0,[pc,#564] ; [0x13c0] = 0x2000000c
        0x0000118a:    6800        .h      LDR      r0,[r0,#0]
        0x0000118c:    1e40        @.      SUBS     r0,r0,#1
        0x0000118e:    498c        .I      LDR      r1,[pc,#560] ; [0x13c0] = 0x2000000c
        0x00001190:    6008        .`      STR      r0,[r1,#0]
        0x00001192:    e008        ..      B        0x11a6 ; KEY + 494
        0x00001194:    2040        @       MOVS     r0,#0x40
        0x00001196:    4020         @      ANDS     r0,r0,r4
        0x00001198:    2800        .(      CMP      r0,#0
        0x0000119a:    d004        ..      BEQ      0x11a6 ; KEY + 494
        0x0000119c:    4888        .H      LDR      r0,[pc,#544] ; [0x13c0] = 0x2000000c
        0x0000119e:    6800        .h      LDR      r0,[r0,#0]
        0x000011a0:    1c40        @.      ADDS     r0,r0,#1
        0x000011a2:    4987        .I      LDR      r1,[pc,#540] ; [0x13c0] = 0x2000000c
        0x000011a4:    6008        .`      STR      r0,[r1,#0]
        0x000011a6:    4669        iF      MOV      r1,sp
        0x000011a8:    4884        .H      LDR      r0,[pc,#528] ; [0x13bc] = 0x20000008
        0x000011aa:    f000fa41    ..A.    BL       MSI001_Frequency_calc ; 0x1630
        0x000011ae:    2118        .!      MOVS     r1,#0x18
        0x000011b0:    4884        .H      LDR      r0,[pc,#528] ; [0x13c4] = 0x43420
        0x000011b2:    f000fadf    ....    BL       SPI_Sent ; 0x1774
        0x000011b6:    20ff        .       MOVS     r0,#0xff
        0x000011b8:    302d        -0      ADDS     r0,r0,#0x2d
        0x000011ba:    f7fffece    ....    BL       Delay ; 0xf5a
        0x000011be:    2118        .!      MOVS     r1,#0x18
        0x000011c0:    4881        .H      LDR      r0,[pc,#516] ; [0x13c8] = 0x28bb85
        0x000011c2:    f000fad7    ....    BL       SPI_Sent ; 0x1774
        0x000011c6:    20ff        .       MOVS     r0,#0xff
        0x000011c8:    302d        -0      ADDS     r0,r0,#0x2d
        0x000011ca:    f7fffec6    ....    BL       Delay ; 0xf5a
        0x000011ce:    9900        ..      LDR      r1,[sp,#0]
        0x000011d0:    0409        ..      LSLS     r1,r1,#16
        0x000011d2:    9a01        ..      LDR      r2,[sp,#4]
        0x000011d4:    0112        ..      LSLS     r2,r2,#4
        0x000011d6:    1889        ..      ADDS     r1,r1,r2
        0x000011d8:    1c88        ..      ADDS     r0,r1,#2
        0x000011da:    2118        .!      MOVS     r1,#0x18
        0x000011dc:    f000faca    ....    BL       SPI_Sent ; 0x1774
        0x000011e0:    20ff        .       MOVS     r0,#0xff
        0x000011e2:    302d        -0      ADDS     r0,r0,#0x2d
        0x000011e4:    f7fffeb9    ....    BL       Delay ; 0xf5a
        0x000011e8:    4975        uI      LDR      r1,[pc,#468] ; [0x13c0] = 0x2000000c
        0x000011ea:    6809        .h      LDR      r1,[r1,#0]
        0x000011ec:    0109        ..      LSLS     r1,r1,#4
        0x000011ee:    4a77        wJ      LDR      r2,[pc,#476] ; [0x13cc] = 0xc001
        0x000011f0:    1888        ..      ADDS     r0,r1,r2
        0x000011f2:    2118        .!      MOVS     r1,#0x18
        0x000011f4:    f000fabe    ....    BL       SPI_Sent ; 0x1774
        0x000011f8:    20ff        .       MOVS     r0,#0xff
        0x000011fa:    302d        -0      ADDS     r0,r0,#0x2d
        0x000011fc:    f7fffead    ....    BL       Delay ; 0xf5a
        0x00001200:    2118        .!      MOVS     r1,#0x18
        0x00001202:    4873        sH      LDR      r0,[pc,#460] ; [0x13d0] = 0x200016
        0x00001204:    f000fab6    ....    BL       SPI_Sent ; 0x1774
        0x00001208:    20ff        .       MOVS     r0,#0xff
        0x0000120a:    302d        -0      ADDS     r0,r0,#0x2d
        0x0000120c:    f7fffea5    ....    BL       Delay ; 0xf5a
        0x00001210:    2118        .!      MOVS     r1,#0x18
        0x00001212:    4870        pH      LDR      r0,[pc,#448] ; [0x13d4] = 0xfa03
        0x00001214:    f000faae    ....    BL       SPI_Sent ; 0x1774
        0x00001218:    e1be        ..      B        0x1598 ; KEY + 1504
        0x0000121a:    4864        dH      LDR      r0,[pc,#400] ; [0x13ac] = 0x20000022
        0x0000121c:    8800        ..      LDRH     r0,[r0,#0]
        0x0000121e:    2803        .(      CMP      r0,#3
        0x00001220:    d17e        ~.      BNE      0x1320 ; KEY + 872
        0x00001222:    2001        .       MOVS     r0,#1
        0x00001224:    03c0        ..      LSLS     r0,r0,#15
        0x00001226:    4020         @      ANDS     r0,r0,r4
        0x00001228:    2800        .(      CMP      r0,#0
        0x0000122a:    d005        ..      BEQ      0x1238 ; KEY + 640
        0x0000122c:    f000faf2    ....    BL       draw_homepage ; 0x1814
        0x00001230:    2000        .       MOVS     r0,#0
        0x00001232:    495e        ^I      LDR      r1,[pc,#376] ; [0x13ac] = 0x20000022
        0x00001234:    8008        ..      STRH     r0,[r1,#0]
        0x00001236:    e058        X.      B        0x12ea ; KEY + 818
        0x00001238:    2010        .       MOVS     r0,#0x10
        0x0000123a:    4020         @      ANDS     r0,r0,r4
        0x0000123c:    2800        .(      CMP      r0,#0
        0x0000123e:    d019        ..      BEQ      0x1274 ; KEY + 700
        0x00001240:    4865        eH      LDR      r0,[pc,#404] ; [0x13d8] = 0x20000030
        0x00001242:    6800        .h      LDR      r0,[r0,#0]
        0x00001244:    2801        .(      CMP      r0,#1
        0x00001246:    d950        P.      BLS      0x12ea ; KEY + 818
        0x00001248:    4863        cH      LDR      r0,[pc,#396] ; [0x13d8] = 0x20000030
        0x0000124a:    6800        .h      LDR      r0,[r0,#0]
        0x0000124c:    1e40        @.      SUBS     r0,r0,#1
        0x0000124e:    4962        bI      LDR      r1,[pc,#392] ; [0x13d8] = 0x20000030
        0x00001250:    6008        .`      STR      r0,[r1,#0]
        0x00001252:    4608        .F      MOV      r0,r1
        0x00001254:    6800        .h      LDR      r0,[r0,#0]
        0x00001256:    0080        ..      LSLS     r0,r0,#2
        0x00001258:    4957        WI      LDR      r1,[pc,#348] ; [0x13b8] = 0x20000114
        0x0000125a:    5808        .X      LDR      r0,[r1,r0]
        0x0000125c:    4957        WI      LDR      r1,[pc,#348] ; [0x13bc] = 0x20000008
        0x0000125e:    6008        .`      STR      r0,[r1,#0]
        0x00001260:    4854        TH      LDR      r0,[pc,#336] ; [0x13b4] = 0x20000034
        0x00001262:    6801        .h      LDR      r1,[r0,#0]
        0x00001264:    4854        TH      LDR      r0,[pc,#336] ; [0x13b8] = 0x20000114
        0x00001266:    f000ff95    ....    BL       draw_page3_result ; 0x2194
        0x0000126a:    485b        [H      LDR      r0,[pc,#364] ; [0x13d8] = 0x20000030
        0x0000126c:    6800        .h      LDR      r0,[r0,#0]
        0x0000126e:    f001fd29    ..).    BL       draw_page3_zero ; 0x2cc4
        0x00001272:    e03a        :.      B        0x12ea ; KEY + 818
        0x00001274:    07e0        ..      LSLS     r0,r4,#31
        0x00001276:    0fc0        ..      LSRS     r0,r0,#31
        0x00001278:    2800        .(      CMP      r0,#0
        0x0000127a:    d01b        ..      BEQ      0x12b4 ; KEY + 764
        0x0000127c:    4856        VH      LDR      r0,[pc,#344] ; [0x13d8] = 0x20000030
        0x0000127e:    6800        .h      LDR      r0,[r0,#0]
        0x00001280:    494c        LI      LDR      r1,[pc,#304] ; [0x13b4] = 0x20000034
        0x00001282:    6809        .h      LDR      r1,[r1,#0]
        0x00001284:    4288        .B      CMP      r0,r1
        0x00001286:    d230        0.      BCS      0x12ea ; KEY + 818
        0x00001288:    4853        SH      LDR      r0,[pc,#332] ; [0x13d8] = 0x20000030
        0x0000128a:    6800        .h      LDR      r0,[r0,#0]
        0x0000128c:    1c40        @.      ADDS     r0,r0,#1
        0x0000128e:    4952        RI      LDR      r1,[pc,#328] ; [0x13d8] = 0x20000030
        0x00001290:    6008        .`      STR      r0,[r1,#0]
        0x00001292:    4608        .F      MOV      r0,r1
        0x00001294:    6800        .h      LDR      r0,[r0,#0]
        0x00001296:    0080        ..      LSLS     r0,r0,#2
        0x00001298:    4947        GI      LDR      r1,[pc,#284] ; [0x13b8] = 0x20000114
        0x0000129a:    5808        .X      LDR      r0,[r1,r0]
        0x0000129c:    4947        GI      LDR      r1,[pc,#284] ; [0x13bc] = 0x20000008
        0x0000129e:    6008        .`      STR      r0,[r1,#0]
        0x000012a0:    4844        DH      LDR      r0,[pc,#272] ; [0x13b4] = 0x20000034
        0x000012a2:    6801        .h      LDR      r1,[r0,#0]
        0x000012a4:    4844        DH      LDR      r0,[pc,#272] ; [0x13b8] = 0x20000114
        0x000012a6:    f000ff75    ..u.    BL       draw_page3_result ; 0x2194
        0x000012aa:    484b        KH      LDR      r0,[pc,#300] ; [0x13d8] = 0x20000030
        0x000012ac:    6800        .h      LDR      r0,[r0,#0]
        0x000012ae:    f001fd09    ....    BL       draw_page3_zero ; 0x2cc4
        0x000012b2:    e01a        ..      B        0x12ea ; KEY + 818
        0x000012b4:    2020                MOVS     r0,#0x20
        0x000012b6:    4020         @      ANDS     r0,r0,r4
        0x000012b8:    2800        .(      CMP      r0,#0
        0x000012ba:    d003        ..      BEQ      0x12c4 ; KEY + 780
        0x000012bc:    2000        .       MOVS     r0,#0
        0x000012be:    493c        <I      LDR      r1,[pc,#240] ; [0x13b0] = 0x20000024
        0x000012c0:    8008        ..      STRH     r0,[r1,#0]
        0x000012c2:    e012        ..      B        0x12ea ; KEY + 818
        0x000012c4:    2004        .       MOVS     r0,#4
        0x000012c6:    4020         @      ANDS     r0,r0,r4
        0x000012c8:    2800        .(      CMP      r0,#0
        0x000012ca:    d005        ..      BEQ      0x12d8 ; KEY + 800
        0x000012cc:    483c        <H      LDR      r0,[pc,#240] ; [0x13c0] = 0x2000000c
        0x000012ce:    6800        .h      LDR      r0,[r0,#0]
        0x000012d0:    1e40        @.      SUBS     r0,r0,#1
        0x000012d2:    493b        ;I      LDR      r1,[pc,#236] ; [0x13c0] = 0x2000000c
        0x000012d4:    6008        .`      STR      r0,[r1,#0]
        0x000012d6:    e008        ..      B        0x12ea ; KEY + 818
        0x000012d8:    2040        @       MOVS     r0,#0x40
        0x000012da:    4020         @      ANDS     r0,r0,r4
        0x000012dc:    2800        .(      CMP      r0,#0
        0x000012de:    d004        ..      BEQ      0x12ea ; KEY + 818
        0x000012e0:    4837        7H      LDR      r0,[pc,#220] ; [0x13c0] = 0x2000000c
        0x000012e2:    6800        .h      LDR      r0,[r0,#0]
        0x000012e4:    1c40        @.      ADDS     r0,r0,#1
        0x000012e6:    4936        6I      LDR      r1,[pc,#216] ; [0x13c0] = 0x2000000c
        0x000012e8:    6008        .`      STR      r0,[r1,#0]
        0x000012ea:    4669        iF      MOV      r1,sp
        0x000012ec:    4833        3H      LDR      r0,[pc,#204] ; [0x13bc] = 0x20000008
        0x000012ee:    f000f99f    ....    BL       MSI001_Frequency_calc ; 0x1630
        0x000012f2:    2118        .!      MOVS     r1,#0x18
        0x000012f4:    4833        3H      LDR      r0,[pc,#204] ; [0x13c4] = 0x43420
        0x000012f6:    f000fa3d    ..=.    BL       SPI_Sent ; 0x1774
        0x000012fa:    20ff        .       MOVS     r0,#0xff
        0x000012fc:    302d        -0      ADDS     r0,r0,#0x2d
        0x000012fe:    f7fffe2c    ..,.    BL       Delay ; 0xf5a
        0x00001302:    2118        .!      MOVS     r1,#0x18
        0x00001304:    4830        0H      LDR      r0,[pc,#192] ; [0x13c8] = 0x28bb85
        0x00001306:    f000fa35    ..5.    BL       SPI_Sent ; 0x1774
        0x0000130a:    20ff        .       MOVS     r0,#0xff
        0x0000130c:    302d        -0      ADDS     r0,r0,#0x2d
        0x0000130e:    f7fffe24    ..$.    BL       Delay ; 0xf5a
        0x00001312:    9900        ..      LDR      r1,[sp,#0]
        0x00001314:    0409        ..      LSLS     r1,r1,#16
        0x00001316:    9a01        ..      LDR      r2,[sp,#4]
        0x00001318:    0112        ..      LSLS     r2,r2,#4
        0x0000131a:    1889        ..      ADDS     r1,r1,r2
        0x0000131c:    1c88        ..      ADDS     r0,r1,#2
        0x0000131e:    e000        ..      B        0x1322 ; KEY + 874
        0x00001320:    e01f        ..      B        0x1362 ; KEY + 938
        0x00001322:    2118        .!      MOVS     r1,#0x18
        0x00001324:    f000fa26    ..&.    BL       SPI_Sent ; 0x1774
        0x00001328:    20ff        .       MOVS     r0,#0xff
        0x0000132a:    302d        -0      ADDS     r0,r0,#0x2d
        0x0000132c:    f7fffe15    ....    BL       Delay ; 0xf5a
        0x00001330:    4923        #I      LDR      r1,[pc,#140] ; [0x13c0] = 0x2000000c
        0x00001332:    6809        .h      LDR      r1,[r1,#0]
        0x00001334:    0109        ..      LSLS     r1,r1,#4
        0x00001336:    4a25        %J      LDR      r2,[pc,#148] ; [0x13cc] = 0xc001
        0x00001338:    1888        ..      ADDS     r0,r1,r2
        0x0000133a:    2118        .!      MOVS     r1,#0x18
        0x0000133c:    f000fa1a    ....    BL       SPI_Sent ; 0x1774
        0x00001340:    20ff        .       MOVS     r0,#0xff
        0x00001342:    302d        -0      ADDS     r0,r0,#0x2d
        0x00001344:    f7fffe09    ....    BL       Delay ; 0xf5a
        0x00001348:    2118        .!      MOVS     r1,#0x18
        0x0000134a:    4821        !H      LDR      r0,[pc,#132] ; [0x13d0] = 0x200016
        0x0000134c:    f000fa12    ....    BL       SPI_Sent ; 0x1774
        0x00001350:    20ff        .       MOVS     r0,#0xff
        0x00001352:    302d        -0      ADDS     r0,r0,#0x2d
        0x00001354:    f7fffe01    ....    BL       Delay ; 0xf5a
        0x00001358:    2118        .!      MOVS     r1,#0x18
        0x0000135a:    481e        .H      LDR      r0,[pc,#120] ; [0x13d4] = 0xfa03
        0x0000135c:    f000fa0a    ....    BL       SPI_Sent ; 0x1774
        0x00001360:    e11a        ..      B        0x1598 ; KEY + 1504
        0x00001362:    4812        .H      LDR      r0,[pc,#72] ; [0x13ac] = 0x20000022
        0x00001364:    8800        ..      LDRH     r0,[r0,#0]
        0x00001366:    2804        .(      CMP      r0,#4
        0x00001368:    d17e        ~.      BNE      0x1468 ; KEY + 1200
        0x0000136a:    0340        @.      LSLS     r0,r0,#13
        0x0000136c:    4020         @      ANDS     r0,r0,r4
        0x0000136e:    2800        .(      CMP      r0,#0
        0x00001370:    d005        ..      BEQ      0x137e ; KEY + 966
        0x00001372:    f000fa4f    ..O.    BL       draw_homepage ; 0x1814
        0x00001376:    2000        .       MOVS     r0,#0
        0x00001378:    490c        .I      LDR      r1,[pc,#48] ; [0x13ac] = 0x20000022
        0x0000137a:    8008        ..      STRH     r0,[r1,#0]
        0x0000137c:    e043        C.      B        0x1406 ; KEY + 1102
        0x0000137e:    2020                MOVS     r0,#0x20
        0x00001380:    4020         @      ANDS     r0,r0,r4
        0x00001382:    2800        .(      CMP      r0,#0
        0x00001384:    d005        ..      BEQ      0x1392 ; KEY + 986
        0x00001386:    4815        .H      LDR      r0,[pc,#84] ; [0x13dc] = 0x20000010
        0x00001388:    6800        .h      LDR      r0,[r0,#0]
        0x0000138a:    300a        .0      ADDS     r0,r0,#0xa
        0x0000138c:    4913        .I      LDR      r1,[pc,#76] ; [0x13dc] = 0x20000010
        0x0000138e:    6008        .`      STR      r0,[r1,#0]
        0x00001390:    e039        9.      B        0x1406 ; KEY + 1102
        0x00001392:    2010        .       MOVS     r0,#0x10
        0x00001394:    4020         @      ANDS     r0,r0,r4
        0x00001396:    2800        .(      CMP      r0,#0
        0x00001398:    d022        ".      BEQ      0x13e0 ; KEY + 1064
        0x0000139a:    4810        .H      LDR      r0,[pc,#64] ; [0x13dc] = 0x20000010
        0x0000139c:    6800        .h      LDR      r0,[r0,#0]
        0x0000139e:    1c40        @.      ADDS     r0,r0,#1
        0x000013a0:    490e        .I      LDR      r1,[pc,#56] ; [0x13dc] = 0x20000010
        0x000013a2:    6008        .`      STR      r0,[r1,#0]
        0x000013a4:    e02f        /.      B        0x1406 ; KEY + 1102
    $d
        0x000013a6:    0000        ..      DCW    0
        0x000013a8:    40001000    ...@    DCD    1073745920
        0x000013ac:    20000022    "..     DCD    536870946
        0x000013b0:    20000024    $..     DCD    536870948
        0x000013b4:    20000034    4..     DCD    536870964
        0x000013b8:    20000114    ...     DCD    536871188
        0x000013bc:    20000008    ...     DCD    536870920
        0x000013c0:    2000000c    ...     DCD    536870924
        0x000013c4:    00043420     4..    DCD    275488
        0x000013c8:    0028bb85    ..(.    DCD    2669445
        0x000013cc:    0000c001    ....    DCD    49153
        0x000013d0:    00200016    .. .    DCD    2097174
        0x000013d4:    0000fa03    ....    DCD    64003
        0x000013d8:    20000030    0..     DCD    536870960
        0x000013dc:    20000010    ...     DCD    536870928
    $t
        0x000013e0:    2002        .       MOVS     r0,#2
        0x000013e2:    4020         @      ANDS     r0,r0,r4
        0x000013e4:    2800        .(      CMP      r0,#0
        0x000013e6:    d005        ..      BEQ      0x13f4 ; KEY + 1084
        0x000013e8:    486c        lH      LDR      r0,[pc,#432] ; [0x159c] = 0x20000010
        0x000013ea:    6800        .h      LDR      r0,[r0,#0]
        0x000013ec:    380a        .8      SUBS     r0,r0,#0xa
        0x000013ee:    496b        kI      LDR      r1,[pc,#428] ; [0x159c] = 0x20000010
        0x000013f0:    6008        .`      STR      r0,[r1,#0]
        0x000013f2:    e008        ..      B        0x1406 ; KEY + 1102
        0x000013f4:    07e0        ..      LSLS     r0,r4,#31
        0x000013f6:    0fc0        ..      LSRS     r0,r0,#31
        0x000013f8:    2800        .(      CMP      r0,#0
        0x000013fa:    d004        ..      BEQ      0x1406 ; KEY + 1102
        0x000013fc:    4867        gH      LDR      r0,[pc,#412] ; [0x159c] = 0x20000010
        0x000013fe:    6800        .h      LDR      r0,[r0,#0]
        0x00001400:    1e40        @.      SUBS     r0,r0,#1
        0x00001402:    4966        fI      LDR      r1,[pc,#408] ; [0x159c] = 0x20000010
        0x00001404:    6008        .`      STR      r0,[r1,#0]
        0x00001406:    4b66        fK      LDR      r3,[pc,#408] ; [0x15a0] = 0x20000108
        0x00001408:    4a66        fJ      LDR      r2,[pc,#408] ; [0x15a4] = 0x20000018
        0x0000140a:    4967        gI      LDR      r1,[pc,#412] ; [0x15a8] = 0x20000014
        0x0000140c:    4863        cH      LDR      r0,[pc,#396] ; [0x159c] = 0x20000010
        0x0000140e:    f000f95b    ..[.    BL       QN8027_Frequency_calc ; 0x16c8
        0x00001412:    4963        cI      LDR      r1,[pc,#396] ; [0x15a0] = 0x20000108
        0x00001414:    6809        .h      LDR      r1,[r1,#0]
        0x00001416:    0a09        ..      LSRS     r1,r1,#8
        0x00001418:    4a64        dJ      LDR      r2,[pc,#400] ; [0x15ac] = 0x580030
        0x0000141a:    1888        ..      ADDS     r0,r1,r2
        0x0000141c:    f7fffdc0    ....    BL       I2C_Sent ; 0xfa0
        0x00001420:    2064        d       MOVS     r0,#0x64
        0x00001422:    f7fffd9a    ....    BL       Delay ; 0xf5a
        0x00001426:    495e        ^I      LDR      r1,[pc,#376] ; [0x15a0] = 0x20000108
        0x00001428:    7809        .x      LDRB     r1,[r1,#0]
        0x0000142a:    4a60        `J      LDR      r2,[pc,#384] ; [0x15ac] = 0x580030
        0x0000142c:    32d0        .2      ADDS     r2,r2,#0xd0
        0x0000142e:    1888        ..      ADDS     r0,r1,r2
        0x00001430:    f7fffdb6    ....    BL       I2C_Sent ; 0xfa0
        0x00001434:    2064        d       MOVS     r0,#0x64
        0x00001436:    f7fffd90    ....    BL       Delay ; 0xf5a
        0x0000143a:    485d        ]H      LDR      r0,[pc,#372] ; [0x15b0] = 0x5802b9
        0x0000143c:    f7fffdb0    ....    BL       I2C_Sent ; 0xfa0
        0x00001440:    2064        d       MOVS     r0,#0x64
        0x00001442:    f7fffd8a    ....    BL       Delay ; 0xf5a
        0x00001446:    485a        ZH      LDR      r0,[pc,#360] ; [0x15b0] = 0x5802b9
        0x00001448:    30c7        .0      ADDS     r0,r0,#0xc7
        0x0000144a:    f7fffda9    ....    BL       I2C_Sent ; 0xfa0
        0x0000144e:    2064        d       MOVS     r0,#0x64
        0x00001450:    f7fffd83    ....    BL       Delay ; 0xf5a
        0x00001454:    4857        WH      LDR      r0,[pc,#348] ; [0x15b4] = 0x5804b2
        0x00001456:    f7fffda3    ....    BL       I2C_Sent ; 0xfa0
        0x0000145a:    2064        d       MOVS     r0,#0x64
        0x0000145c:    f7fffd7d    ..}.    BL       Delay ; 0xf5a
        0x00001460:    494f        OI      LDR      r1,[pc,#316] ; [0x15a0] = 0x20000108
        0x00001462:    6849        Ih      LDR      r1,[r1,#4]
        0x00001464:    4a54        TJ      LDR      r2,[pc,#336] ; [0x15b8] = 0x581000
        0x00001466:    e000        ..      B        0x146a ; KEY + 1202
        0x00001468:    e00c        ..      B        0x1484 ; KEY + 1228
        0x0000146a:    1888        ..      ADDS     r0,r1,r2
        0x0000146c:    f7fffd98    ....    BL       I2C_Sent ; 0xfa0
        0x00001470:    2064        d       MOVS     r0,#0x64
        0x00001472:    f7fffd72    ..r.    BL       Delay ; 0xf5a
        0x00001476:    494a        JI      LDR      r1,[pc,#296] ; [0x15a0] = 0x20000108
        0x00001478:    6889        .h      LDR      r1,[r1,#8]
        0x0000147a:    4a50        PJ      LDR      r2,[pc,#320] ; [0x15bc] = 0x581100
        0x0000147c:    1888        ..      ADDS     r0,r1,r2
        0x0000147e:    f7fffd8f    ....    BL       I2C_Sent ; 0xfa0
        0x00001482:    e089        ..      B        0x1598 ; KEY + 1504
        0x00001484:    484e        NH      LDR      r0,[pc,#312] ; [0x15c0] = 0x20000022
        0x00001486:    8800        ..      LDRH     r0,[r0,#0]
        0x00001488:    2805        .(      CMP      r0,#5
        0x0000148a:    d11a        ..      BNE      0x14c2 ; KEY + 1290
        0x0000148c:    2001        .       MOVS     r0,#1
        0x0000148e:    03c0        ..      LSLS     r0,r0,#15
        0x00001490:    4020         @      ANDS     r0,r0,r4
        0x00001492:    2800        .(      CMP      r0,#0
        0x00001494:    d005        ..      BEQ      0x14a2 ; KEY + 1258
        0x00001496:    f000f9bd    ....    BL       draw_homepage ; 0x1814
        0x0000149a:    2000        .       MOVS     r0,#0
        0x0000149c:    4948        HI      LDR      r1,[pc,#288] ; [0x15c0] = 0x20000022
        0x0000149e:    8008        ..      STRH     r0,[r1,#0]
        0x000014a0:    e07a        z.      B        0x1598 ; KEY + 1504
        0x000014a2:    07e0        ..      LSLS     r0,r4,#31
        0x000014a4:    0fc0        ..      LSRS     r0,r0,#31
        0x000014a6:    2800        .(      CMP      r0,#0
        0x000014a8:    d003        ..      BEQ      0x14b2 ; KEY + 1274
        0x000014aa:    2001        .       MOVS     r0,#1
        0x000014ac:    f7fffd72    ..r.    BL       ENET_TX_EN ; 0xf94
        0x000014b0:    e072        r.      B        0x1598 ; KEY + 1504
        0x000014b2:    2002        .       MOVS     r0,#2
        0x000014b4:    4020         @      ANDS     r0,r0,r4
        0x000014b6:    2800        .(      CMP      r0,#0
        0x000014b8:    d06e        n.      BEQ      0x1598 ; KEY + 1504
        0x000014ba:    2000        .       MOVS     r0,#0
        0x000014bc:    f7fffd6a    ..j.    BL       ENET_TX_EN ; 0xf94
        0x000014c0:    e06a        j.      B        0x1598 ; KEY + 1504
        0x000014c2:    483f        ?H      LDR      r0,[pc,#252] ; [0x15c0] = 0x20000022
        0x000014c4:    8800        ..      LDRH     r0,[r0,#0]
        0x000014c6:    2806        .(      CMP      r0,#6
        0x000014c8:    d166        f.      BNE      0x1598 ; KEY + 1504
        0x000014ca:    2001        .       MOVS     r0,#1
        0x000014cc:    03c0        ..      LSLS     r0,r0,#15
        0x000014ce:    4020         @      ANDS     r0,r0,r4
        0x000014d0:    2800        .(      CMP      r0,#0
        0x000014d2:    d005        ..      BEQ      0x14e0 ; KEY + 1320
        0x000014d4:    f000f99e    ....    BL       draw_homepage ; 0x1814
        0x000014d8:    2000        .       MOVS     r0,#0
        0x000014da:    4939        9I      LDR      r1,[pc,#228] ; [0x15c0] = 0x20000022
        0x000014dc:    8008        ..      STRH     r0,[r1,#0]
        0x000014de:    e022        ".      B        0x1526 ; KEY + 1390
        0x000014e0:    07e0        ..      LSLS     r0,r4,#31
        0x000014e2:    0fc0        ..      LSRS     r0,r0,#31
        0x000014e4:    2800        .(      CMP      r0,#0
        0x000014e6:    d003        ..      BEQ      0x14f0 ; KEY + 1336
        0x000014e8:    2001        .       MOVS     r0,#1
        0x000014ea:    f000f89b    ....    BL       LEDWATER ; 0x1624
        0x000014ee:    e01a        ..      B        0x1526 ; KEY + 1390
        0x000014f0:    2002        .       MOVS     r0,#2
        0x000014f2:    4020         @      ANDS     r0,r0,r4
        0x000014f4:    2800        .(      CMP      r0,#0
        0x000014f6:    d003        ..      BEQ      0x1500 ; KEY + 1352
        0x000014f8:    2000        .       MOVS     r0,#0
        0x000014fa:    f000f893    ....    BL       LEDWATER ; 0x1624
        0x000014fe:    e012        ..      B        0x1526 ; KEY + 1390
        0x00001500:    2004        .       MOVS     r0,#4
        0x00001502:    4020         @      ANDS     r0,r0,r4
        0x00001504:    2800        .(      CMP      r0,#0
        0x00001506:    d005        ..      BEQ      0x1514 ; KEY + 1372
        0x00001508:    482e        .H      LDR      r0,[pc,#184] ; [0x15c4] = 0x2000000c
        0x0000150a:    6800        .h      LDR      r0,[r0,#0]
        0x0000150c:    1e40        @.      SUBS     r0,r0,#1
        0x0000150e:    492d        -I      LDR      r1,[pc,#180] ; [0x15c4] = 0x2000000c
        0x00001510:    6008        .`      STR      r0,[r1,#0]
        0x00001512:    e008        ..      B        0x1526 ; KEY + 1390
        0x00001514:    2040        @       MOVS     r0,#0x40
        0x00001516:    4020         @      ANDS     r0,r0,r4
        0x00001518:    2800        .(      CMP      r0,#0
        0x0000151a:    d004        ..      BEQ      0x1526 ; KEY + 1390
        0x0000151c:    4829        )H      LDR      r0,[pc,#164] ; [0x15c4] = 0x2000000c
        0x0000151e:    6800        .h      LDR      r0,[r0,#0]
        0x00001520:    1c40        @.      ADDS     r0,r0,#1
        0x00001522:    4928        (I      LDR      r1,[pc,#160] ; [0x15c4] = 0x2000000c
        0x00001524:    6008        .`      STR      r0,[r1,#0]
        0x00001526:    4669        iF      MOV      r1,sp
        0x00001528:    4827        'H      LDR      r0,[pc,#156] ; [0x15c8] = 0x20000008
        0x0000152a:    f000f881    ....    BL       MSI001_Frequency_calc ; 0x1630
        0x0000152e:    2118        .!      MOVS     r1,#0x18
        0x00001530:    4826        &H      LDR      r0,[pc,#152] ; [0x15cc] = 0x43420
        0x00001532:    f000f91f    ....    BL       SPI_Sent ; 0x1774
        0x00001536:    20ff        .       MOVS     r0,#0xff
        0x00001538:    302d        -0      ADDS     r0,r0,#0x2d
        0x0000153a:    f7fffd0e    ....    BL       Delay ; 0xf5a
        0x0000153e:    2118        .!      MOVS     r1,#0x18
        0x00001540:    4823        #H      LDR      r0,[pc,#140] ; [0x15d0] = 0x28bb85
        0x00001542:    f000f917    ....    BL       SPI_Sent ; 0x1774
        0x00001546:    20ff        .       MOVS     r0,#0xff
        0x00001548:    302d        -0      ADDS     r0,r0,#0x2d
        0x0000154a:    f7fffd06    ....    BL       Delay ; 0xf5a
        0x0000154e:    9900        ..      LDR      r1,[sp,#0]
        0x00001550:    0409        ..      LSLS     r1,r1,#16
        0x00001552:    9a01        ..      LDR      r2,[sp,#4]
        0x00001554:    0112        ..      LSLS     r2,r2,#4
        0x00001556:    1889        ..      ADDS     r1,r1,r2
        0x00001558:    1c88        ..      ADDS     r0,r1,#2
        0x0000155a:    2118        .!      MOVS     r1,#0x18
        0x0000155c:    f000f90a    ....    BL       SPI_Sent ; 0x1774
        0x00001560:    20ff        .       MOVS     r0,#0xff
        0x00001562:    302d        -0      ADDS     r0,r0,#0x2d
        0x00001564:    f7fffcf9    ....    BL       Delay ; 0xf5a
        0x00001568:    4916        .I      LDR      r1,[pc,#88] ; [0x15c4] = 0x2000000c
        0x0000156a:    6809        .h      LDR      r1,[r1,#0]
        0x0000156c:    0109        ..      LSLS     r1,r1,#4
        0x0000156e:    4a19        .J      LDR      r2,[pc,#100] ; [0x15d4] = 0xc001
        0x00001570:    1888        ..      ADDS     r0,r1,r2
        0x00001572:    2118        .!      MOVS     r1,#0x18
        0x00001574:    f000f8fe    ....    BL       SPI_Sent ; 0x1774
        0x00001578:    20ff        .       MOVS     r0,#0xff
        0x0000157a:    302d        -0      ADDS     r0,r0,#0x2d
        0x0000157c:    f7fffced    ....    BL       Delay ; 0xf5a
        0x00001580:    2118        .!      MOVS     r1,#0x18
        0x00001582:    4815        .H      LDR      r0,[pc,#84] ; [0x15d8] = 0x200016
        0x00001584:    f000f8f6    ....    BL       SPI_Sent ; 0x1774
        0x00001588:    20ff        .       MOVS     r0,#0xff
        0x0000158a:    302d        -0      ADDS     r0,r0,#0x2d
        0x0000158c:    f7fffce5    ....    BL       Delay ; 0xf5a
        0x00001590:    2118        .!      MOVS     r1,#0x18
        0x00001592:    4812        .H      LDR      r0,[pc,#72] ; [0x15dc] = 0xfa03
        0x00001594:    f000f8ee    ....    BL       SPI_Sent ; 0x1774
        0x00001598:    bd1c        ..      POP      {r2-r4,pc}
    $d
        0x0000159a:    0000        ..      DCW    0
        0x0000159c:    20000010    ...     DCD    536870928
        0x000015a0:    20000108    ...     DCD    536871176
        0x000015a4:    20000018    ...     DCD    536870936
        0x000015a8:    20000014    ...     DCD    536870932
        0x000015ac:    00580030    0.X.    DCD    5767216
        0x000015b0:    005802b9    ..X.    DCD    5767865
        0x000015b4:    005804b2    ..X.    DCD    5768370
        0x000015b8:    00581000    ..X.    DCD    5771264
        0x000015bc:    00581100    ..X.    DCD    5771520
        0x000015c0:    20000022    "..     DCD    536870946
        0x000015c4:    2000000c    ...     DCD    536870924
        0x000015c8:    20000008    ...     DCD    536870920
        0x000015cc:    00043420     4..    DCD    275488
        0x000015d0:    0028bb85    ..(.    DCD    2669445
        0x000015d4:    0000c001    ....    DCD    49153
        0x000015d8:    00200016    .. .    DCD    2097174
        0x000015dc:    0000fa03    ....    DCD    64003
    $t
    i.LCD_clear
    LCD_clear
        0x000015e0:    b530        0.      PUSH     {r4,r5,lr}
        0x000015e2:    2000        .       MOVS     r0,#0
        0x000015e4:    e012        ..      B        0x160c ; LCD_clear + 44
        0x000015e6:    2100        .!      MOVS     r1,#0
        0x000015e8:    e00b        ..      B        0x1602 ; LCD_clear + 34
        0x000015ea:    0403        ..      LSLS     r3,r0,#16
        0x000015ec:    430b        .C      ORRS     r3,r3,r1
        0x000015ee:    220b        ."      MOVS     r2,#0xb
        0x000015f0:    2405        .$      MOVS     r4,#5
        0x000015f2:    0724        $.      LSLS     r4,r4,#28
        0x000015f4:    6023        #`      STR      r3,[r4,#0]
        0x000015f6:    6022        "`      STR      r2,[r4,#0]
        0x000015f8:    4c06        .L      LDR      r4,[pc,#24] ; [0x1614] = 0x708c
        0x000015fa:    2505        .%      MOVS     r5,#5
        0x000015fc:    072d        -.      LSLS     r5,r5,#28
        0x000015fe:    602c        ,`      STR      r4,[r5,#0]
        0x00001600:    310c        .1      ADDS     r1,r1,#0xc
        0x00001602:    24ff        .$      MOVS     r4,#0xff
        0x00001604:    3441        A4      ADDS     r4,r4,#0x41
        0x00001606:    42a1        .B      CMP      r1,r4
        0x00001608:    dbef        ..      BLT      0x15ea ; LCD_clear + 10
        0x0000160a:    300c        .0      ADDS     r0,r0,#0xc
        0x0000160c:    28f0        .(      CMP      r0,#0xf0
        0x0000160e:    dbea        ..      BLT      0x15e6 ; LCD_clear + 6
        0x00001610:    bd30        0.      POP      {r4,r5,pc}
    $d
        0x00001612:    0000        ..      DCW    0
        0x00001614:    0000708c    .p..    DCD    28812
    $t
    i.LCD_init
    LCD_init
        0x00001618:    2000        .       MOVS     r0,#0
        0x0000161a:    43c0        .C      MVNS     r0,r0
        0x0000161c:    2105        .!      MOVS     r1,#5
        0x0000161e:    0709        ..      LSLS     r1,r1,#28
        0x00001620:    6008        .`      STR      r0,[r1,#0]
        0x00001622:    4770        pG      BX       lr
    i.LEDWATER
    LEDWATER
        0x00001624:    4901        .I      LDR      r1,[pc,#4] ; [0x162c] = 0x4000a000
        0x00001626:    6008        .`      STR      r0,[r1,#0]
        0x00001628:    4770        pG      BX       lr
    $d
        0x0000162a:    0000        ..      DCW    0
        0x0000162c:    4000a000    ...@    DCD    1073782784
    $t
    i.MSI001_Frequency_calc
    MSI001_Frequency_calc
        0x00001630:    b5f0        ..      PUSH     {r4-r7,lr}
        0x00001632:    b08f        ..      SUB      sp,sp,#0x3c
        0x00001634:    4605        .F      MOV      r5,r0
        0x00001636:    460c        .F      MOV      r4,r1
        0x00001638:    6828        (h      LDR      r0,[r5,#0]
        0x0000163a:    0140        @.      LSLS     r0,r0,#5
        0x0000163c:    900e        ..      STR      r0,[sp,#0x38]
        0x0000163e:    481d        .H      LDR      r0,[pc,#116] ; [0x16b4] = 0xbb8
        0x00001640:    900d        ..      STR      r0,[sp,#0x34]
        0x00001642:    210f        .!      MOVS     r1,#0xf
        0x00001644:    0189        ..      LSLS     r1,r1,#6
        0x00001646:    980e        ..      LDR      r0,[sp,#0x38]
        0x00001648:    f7fefd7c    ..|.    BL       __aeabi_idiv ; 0x144
        0x0000164c:    4606        .F      MOV      r6,r0
        0x0000164e:    980d        ..      LDR      r0,[sp,#0x34]
        0x00001650:    f7fffc46    ..F.    BL       __aeabi_i2f ; 0xee0
        0x00001654:    210a        .!      MOVS     r1,#0xa
        0x00001656:    4371        qC      MULS     r1,r6,r1
        0x00001658:    9005        ..      STR      r0,[sp,#0x14]
        0x0000165a:    4608        .F      MOV      r0,r1
        0x0000165c:    f7fffc40    ..@.    BL       __aeabi_i2f ; 0xee0
        0x00001660:    9003        ..      STR      r0,[sp,#0xc]
        0x00001662:    980e        ..      LDR      r0,[sp,#0x38]
        0x00001664:    f7fffc3c    ..<.    BL       __aeabi_i2f ; 0xee0
        0x00001668:    4913        .I      LDR      r1,[pc,#76] ; [0x16b8] = 0x42c00000
        0x0000166a:    9001        ..      STR      r0,[sp,#4]
        0x0000166c:    f7fffb64    ..d.    BL       __aeabi_fdiv ; 0xd38
        0x00001670:    9002        ..      STR      r0,[sp,#8]
        0x00001672:    9903        ..      LDR      r1,[sp,#0xc]
        0x00001674:    f002f9b2    ....    BL       __aeabi_fsub ; 0x39dc
        0x00001678:    9004        ..      STR      r0,[sp,#0x10]
        0x0000167a:    9905        ..      LDR      r1,[sp,#0x14]
        0x0000167c:    f002f956    ..V.    BL       __aeabi_fmul ; 0x392c
        0x00001680:    4607        .F      MOV      r7,r0
        0x00001682:    f7fffb2f    ../.    BL       __aeabi_f2d ; 0xce4
        0x00001686:    4a0d        .J      LDR      r2,[pc,#52] ; [0x16bc] = 0x9999999a
        0x00001688:    4b0d        .K      LDR      r3,[pc,#52] ; [0x16c0] = 0x3fb99999
        0x0000168a:    9107        ..      STR      r1,[sp,#0x1c]
        0x0000168c:    9006        ..      STR      r0,[sp,#0x18]
        0x0000168e:    f7fffa05    ....    BL       __aeabi_dmul ; 0xa9c
        0x00001692:    2200        ."      MOVS     r2,#0
        0x00001694:    4b0b        .K      LDR      r3,[pc,#44] ; [0x16c4] = 0x3fe00000
        0x00001696:    9109        ..      STR      r1,[sp,#0x24]
        0x00001698:    9008        ..      STR      r0,[sp,#0x20]
        0x0000169a:    f7feff75    ..u.    BL       __aeabi_dadd ; 0x588
        0x0000169e:    910b        ..      STR      r1,[sp,#0x2c]
        0x000016a0:    900a        ..      STR      r0,[sp,#0x28]
        0x000016a2:    f7fff9c5    ....    BL       __aeabi_d2iz ; 0xa30
        0x000016a6:    900c        ..      STR      r0,[sp,#0x30]
        0x000016a8:    6026        &`      STR      r6,[r4,#0]
        0x000016aa:    980c        ..      LDR      r0,[sp,#0x30]
        0x000016ac:    6060        ``      STR      r0,[r4,#4]
        0x000016ae:    b00f        ..      ADD      sp,sp,#0x3c
        0x000016b0:    bdf0        ..      POP      {r4-r7,pc}
    $d
        0x000016b2:    0000        ..      DCW    0
        0x000016b4:    00000bb8    ....    DCD    3000
        0x000016b8:    42c00000    ...B    DCD    1119879168
        0x000016bc:    9999999a    ....    DCD    2576980378
        0x000016c0:    3fb99999    ...?    DCD    1069128089
        0x000016c4:    3fe00000    ...?    DCD    1071644672
    $t
    i.QN8027_Frequency_calc
    QN8027_Frequency_calc
        0x000016c8:    b5ff        ..      PUSH     {r0-r7,lr}
        0x000016ca:    b08b        ..      SUB      sp,sp,#0x2c
        0x000016cc:    460c        .F      MOV      r4,r1
        0x000016ce:    4617        .F      MOV      r7,r2
        0x000016d0:    461d        .F      MOV      r5,r3
        0x000016d2:    980b        ..      LDR      r0,[sp,#0x2c]
        0x000016d4:    6800        .h      LDR      r0,[r0,#0]
        0x000016d6:    215f        _!      MOVS     r1,#0x5f
        0x000016d8:    00c9        ..      LSLS     r1,r1,#3
        0x000016da:    1a40        @.      SUBS     r0,r0,r1
        0x000016dc:    0040        @.      LSLS     r0,r0,#1
        0x000016de:    9009        ..      STR      r0,[sp,#0x24]
        0x000016e0:    6820         h      LDR      r0,[r4,#0]
        0x000016e2:    2875        u(      CMP      r0,#0x75
        0x000016e4:    d802        ..      BHI      0x16ec ; QN8027_Frequency_calc + 36
        0x000016e6:    6820         h      LDR      r0,[r4,#0]
        0x000016e8:    2854        T(      CMP      r0,#0x54
        0x000016ea:    d201        ..      BCS      0x16f0 ; QN8027_Frequency_calc + 40
        0x000016ec:    bf00        ..      NOP      
        0x000016ee:    e7fe        ..      B        0x16ee ; QN8027_Frequency_calc + 38
        0x000016f0:    6821        !h      LDR      r1,[r4,#0]
        0x000016f2:    4608        .F      MOV      r0,r1
        0x000016f4:    3847        G8      SUBS     r0,r0,#0x47
        0x000016f6:    f7fffbfb    ....    BL       __aeabi_ui2f ; 0xef0
        0x000016fa:    9001        ..      STR      r0,[sp,#4]
        0x000016fc:    f7fffaf2    ....    BL       __aeabi_f2d ; 0xce4
        0x00001700:    4a17        .J      LDR      r2,[pc,#92] ; [0x1760] = 0x3d70a3d7
        0x00001702:    4b18        .K      LDR      r3,[pc,#96] ; [0x1764] = 0x3fe3d70a
        0x00001704:    9103        ..      STR      r1,[sp,#0xc]
        0x00001706:    9002        ..      STR      r0,[sp,#8]
        0x00001708:    f7feff6e    ..n.    BL       __aeabi_ddiv ; 0x5e8
        0x0000170c:    2200        ."      MOVS     r2,#0
        0x0000170e:    4b16        .K      LDR      r3,[pc,#88] ; [0x1768] = 0x3fe00000
        0x00001710:    9105        ..      STR      r1,[sp,#0x14]
        0x00001712:    9004        ..      STR      r0,[sp,#0x10]
        0x00001714:    f7feff38    ..8.    BL       __aeabi_dadd ; 0x588
        0x00001718:    9107        ..      STR      r1,[sp,#0x1c]
        0x0000171a:    9006        ..      STR      r0,[sp,#0x18]
        0x0000171c:    f7fff988    ....    BL       __aeabi_d2iz ; 0xa30
        0x00001720:    9008        ..      STR      r0,[sp,#0x20]
        0x00001722:    6838        8h      LDR      r0,[r7,#0]
        0x00001724:    f7fffbe4    ....    BL       __aeabi_ui2f ; 0xef0
        0x00001728:    9001        ..      STR      r0,[sp,#4]
        0x0000172a:    f7fffadb    ....    BL       __aeabi_f2d ; 0xce4
        0x0000172e:    4a0f        .J      LDR      r2,[pc,#60] ; [0x176c] = 0x28f5c28f
        0x00001730:    4b0f        .K      LDR      r3,[pc,#60] ; [0x1770] = 0x3fe28f5c
        0x00001732:    9103        ..      STR      r1,[sp,#0xc]
        0x00001734:    9002        ..      STR      r0,[sp,#8]
        0x00001736:    f7feff57    ..W.    BL       __aeabi_ddiv ; 0x5e8
        0x0000173a:    2200        ."      MOVS     r2,#0
        0x0000173c:    4b0a        .K      LDR      r3,[pc,#40] ; [0x1768] = 0x3fe00000
        0x0000173e:    9105        ..      STR      r1,[sp,#0x14]
        0x00001740:    9004        ..      STR      r0,[sp,#0x10]
        0x00001742:    f7feff21    ..!.    BL       __aeabi_dadd ; 0x588
        0x00001746:    9107        ..      STR      r1,[sp,#0x1c]
        0x00001748:    9006        ..      STR      r0,[sp,#0x18]
        0x0000174a:    f7fff971    ..q.    BL       __aeabi_d2iz ; 0xa30
        0x0000174e:    4606        .F      MOV      r6,r0
        0x00001750:    9809        ..      LDR      r0,[sp,#0x24]
        0x00001752:    6028        (`      STR      r0,[r5,#0]
        0x00001754:    9808        ..      LDR      r0,[sp,#0x20]
        0x00001756:    6068        h`      STR      r0,[r5,#4]
        0x00001758:    60ae        .`      STR      r6,[r5,#8]
        0x0000175a:    b00f        ..      ADD      sp,sp,#0x3c
        0x0000175c:    bdf0        ..      POP      {r4-r7,pc}
    $d
        0x0000175e:    0000        ..      DCW    0
        0x00001760:    3d70a3d7    ..p=    DCD    1030792151
        0x00001764:    3fe3d70a    ...?    DCD    1071896330
        0x00001768:    3fe00000    ...?    DCD    1071644672
        0x0000176c:    28f5c28f    ...(    DCD    687194767
        0x00001770:    3fe28f5c    \..?    DCD    1071812444
    $t
    i.SPI_Sent
    SPI_Sent
        0x00001774:    220a        ."      MOVS     r2,#0xa
        0x00001776:    4b09        .K      LDR      r3,[pc,#36] ; [0x179c] = 0x40004000
        0x00001778:    605a        Z`      STR      r2,[r3,#4]
        0x0000177a:    2900        .)      CMP      r1,#0
        0x0000177c:    d00d        ..      BEQ      0x179a ; SPI_Sent + 38
        0x0000177e:    291f        .)      CMP      r1,#0x1f
        0x00001780:    d80b        ..      BHI      0x179a ; SPI_Sent + 38
        0x00001782:    2220         "      MOVS     r2,#0x20
        0x00001784:    1a53        S.      SUBS     r3,r2,r1
        0x00001786:    4602        .F      MOV      r2,r0
        0x00001788:    409a        .@      LSLS     r2,r2,r3
        0x0000178a:    4b04        .K      LDR      r3,[pc,#16] ; [0x179c] = 0x40004000
        0x0000178c:    619a        .a      STR      r2,[r3,#0x18]
        0x0000178e:    1c4a        J.      ADDS     r2,r1,#1
        0x00001790:    0412        ..      LSLS     r2,r2,#16
        0x00001792:    611a        .a      STR      r2,[r3,#0x10]
        0x00001794:    22ff        ."      MOVS     r2,#0xff
        0x00001796:    3203        .2      ADDS     r2,#3
        0x00001798:    601a        .`      STR      r2,[r3,#0]
        0x0000179a:    4770        pG      BX       lr
    $d
        0x0000179c:    40004000    .@.@    DCD    1073758208
    $t
    i.Timer_IRQ
    Timer_IRQ
        0x000017a0:    4770        pG      BX       lr
        0x000017a2:    0000        ..      MOVS     r0,r0
    i.TubeShow
    TubeShow
        0x000017a4:    b5f8        ..      PUSH     {r3-r7,lr}
        0x000017a6:    4607        .F      MOV      r7,r0
        0x000017a8:    2500        .%      MOVS     r5,#0
        0x000017aa:    2001        .       MOVS     r0,#1
        0x000017ac:    0240        @.      LSLS     r0,r0,#9
        0x000017ae:    4305        .C      ORRS     r5,r5,r0
        0x000017b0:    2400        .$      MOVS     r4,#0
        0x000017b2:    e013        ..      B        0x17dc ; TubeShow + 56
        0x000017b4:    210a        .!      MOVS     r1,#0xa
        0x000017b6:    4638        8F      MOV      r0,r7
        0x000017b8:    f7fefcba    ....    BL       __aeabi_uidiv ; 0x130
        0x000017bc:    00a0        ..      LSLS     r0,r4,#2
        0x000017be:    1820         .      ADDS     r0,r4,r0
        0x000017c0:    4081        .@      LSLS     r1,r1,r0
        0x000017c2:    430d        .C      ORRS     r5,r5,r1
        0x000017c4:    2001        .       MOVS     r0,#1
        0x000017c6:    40a0        .@      LSLS     r0,r0,r4
        0x000017c8:    4306        .C      ORRS     r6,r6,r0
        0x000017ca:    210a        .!      MOVS     r1,#0xa
        0x000017cc:    4638        8F      MOV      r0,r7
        0x000017ce:    f7fefcaf    ....    BL       __aeabi_uidiv ; 0x130
        0x000017d2:    4607        .F      MOV      r7,r0
        0x000017d4:    2f00        ./      CMP      r7,#0
        0x000017d6:    d100        ..      BNE      0x17da ; TubeShow + 54
        0x000017d8:    e002        ..      B        0x17e0 ; TubeShow + 60
        0x000017da:    1c64        d.      ADDS     r4,r4,#1
        0x000017dc:    2c04        .,      CMP      r4,#4
        0x000017de:    dbe9        ..      BLT      0x17b4 ; TubeShow + 16
        0x000017e0:    bf00        ..      NOP      
        0x000017e2:    2007        .       MOVS     r0,#7
        0x000017e4:    4306        .C      ORRS     r6,r6,r0
        0x000017e6:    4802        .H      LDR      r0,[pc,#8] ; [0x17f0] = 0x40005000
        0x000017e8:    6005        .`      STR      r5,[r0,#0]
        0x000017ea:    6046        F`      STR      r6,[r0,#4]
        0x000017ec:    bdf8        ..      POP      {r3-r7,pc}
    $d
        0x000017ee:    0000        ..      DCW    0
        0x000017f0:    40005000    .P.@    DCD    1073762304
    $t
    i.UARTRX_IRQ
    UARTRX_IRQ
        0x000017f4:    4770        pG      BX       lr
    i.__ARM_common_switch8
    __ARM_common_switch8
        0x000017f6:    b430        0.      PUSH     {r4,r5}
        0x000017f8:    4674        tF      MOV      r4,lr
        0x000017fa:    1e64        d.      SUBS     r4,r4,#1
        0x000017fc:    7825        %x      LDRB     r5,[r4,#0]
        0x000017fe:    1c64        d.      ADDS     r4,r4,#1
        0x00001800:    42ab        .B      CMP      r3,r5
        0x00001802:    d304        ..      BCC      0x180e ; __ARM_common_switch8 + 24
        0x00001804:    5d63        c]      LDRB     r3,[r4,r5]
        0x00001806:    005b        [.      LSLS     r3,r3,#1
        0x00001808:    18e3        ..      ADDS     r3,r4,r3
        0x0000180a:    bc30        0.      POP      {r4,r5}
        0x0000180c:    4718        .G      BX       r3
        0x0000180e:    461d        .F      MOV      r5,r3
        0x00001810:    e7f8        ..      B        0x1804 ; __ARM_common_switch8 + 14
        0x00001812:    0000        ..      MOVS     r0,r0
    i.draw_homepage
    draw_homepage
        0x00001814:    b510        ..      PUSH     {r4,lr}
        0x00001816:    48fe        .H      LDR      r0,[pc,#1016] ; [0x1c10] = 0xc350
        0x00001818:    f7fffb9f    ....    BL       Delay ; 0xf5a
        0x0000181c:    f7fffee0    ....    BL       LCD_clear ; 0x15e0
        0x00001820:    230c        .#      MOVS     r3,#0xc
        0x00001822:    2200        ."      MOVS     r2,#0
        0x00001824:    4611        .F      MOV      r1,r2
        0x00001826:    48fb        .H      LDR      r0,[pc,#1004] ; [0x1c14] = 0x58ec
        0x00001828:    f7fffba0    ....    BL       Draw_pic ; 0xf6c
        0x0000182c:    230c        .#      MOVS     r3,#0xc
        0x0000182e:    2200        ."      MOVS     r2,#0
        0x00001830:    4619        .F      MOV      r1,r3
        0x00001832:    48f9        .H      LDR      r0,[pc,#996] ; [0x1c18] = 0x546c
        0x00001834:    f7fffb9a    ....    BL       Draw_pic ; 0xf6c
        0x00001838:    230c        .#      MOVS     r3,#0xc
        0x0000183a:    2200        ."      MOVS     r2,#0
        0x0000183c:    2118        .!      MOVS     r1,#0x18
        0x0000183e:    48f7        .H      LDR      r0,[pc,#988] ; [0x1c1c] = 0x4c8c
        0x00001840:    f7fffb94    ....    BL       Draw_pic ; 0xf6c
        0x00001844:    230c        .#      MOVS     r3,#0xc
        0x00001846:    2200        ."      MOVS     r2,#0
        0x00001848:    2124        $!      MOVS     r1,#0x24
        0x0000184a:    48f5        .H      LDR      r0,[pc,#980] ; [0x1c20] = 0x480c
        0x0000184c:    f7fffb8e    ....    BL       Draw_pic ; 0xf6c
        0x00001850:    230c        .#      MOVS     r3,#0xc
        0x00001852:    2200        ."      MOVS     r2,#0
        0x00001854:    2130        0!      MOVS     r1,#0x30
        0x00001856:    48f3        .H      LDR      r0,[pc,#972] ; [0x1c24] = 0x5c4c
        0x00001858:    f7fffb88    ....    BL       Draw_pic ; 0xf6c
        0x0000185c:    230c        .#      MOVS     r3,#0xc
        0x0000185e:    2200        ."      MOVS     r2,#0
        0x00001860:    213c        <!      MOVS     r1,#0x3c
        0x00001862:    48ee        .H      LDR      r0,[pc,#952] ; [0x1c1c] = 0x4c8c
        0x00001864:    f7fffb82    ....    BL       Draw_pic ; 0xf6c
        0x00001868:    230c        .#      MOVS     r3,#0xc
        0x0000186a:    2200        ."      MOVS     r2,#0
        0x0000186c:    2154        T!      MOVS     r1,#0x54
        0x0000186e:    48e9        .H      LDR      r0,[pc,#932] ; [0x1c14] = 0x58ec
        0x00001870:    f7fffb7c    ..|.    BL       Draw_pic ; 0xf6c
        0x00001874:    230c        .#      MOVS     r3,#0xc
        0x00001876:    2200        ."      MOVS     r2,#0
        0x00001878:    2160        `!      MOVS     r1,#0x60
        0x0000187a:    48eb        .H      LDR      r0,[pc,#940] ; [0x1c28] = 0x5b2c
        0x0000187c:    f7fffb76    ..v.    BL       Draw_pic ; 0xf6c
        0x00001880:    230c        .#      MOVS     r3,#0xc
        0x00001882:    2200        ."      MOVS     r2,#0
        0x00001884:    216c        l!      MOVS     r1,#0x6c
        0x00001886:    48e5        .H      LDR      r0,[pc,#916] ; [0x1c1c] = 0x4c8c
        0x00001888:    f7fffb70    ..p.    BL       Draw_pic ; 0xf6c
        0x0000188c:    230c        .#      MOVS     r3,#0xc
        0x0000188e:    2200        ."      MOVS     r2,#0
        0x00001890:    2178        x!      MOVS     r1,#0x78
        0x00001892:    48e4        .H      LDR      r0,[pc,#912] ; [0x1c24] = 0x5c4c
        0x00001894:    f7fffb6a    ..j.    BL       Draw_pic ; 0xf6c
        0x00001898:    230c        .#      MOVS     r3,#0xc
        0x0000189a:    2200        ."      MOVS     r2,#0
        0x0000189c:    2184        .!      MOVS     r1,#0x84
        0x0000189e:    48e1        .H      LDR      r0,[pc,#900] ; [0x1c24] = 0x5c4c
        0x000018a0:    f7fffb64    ..d.    BL       Draw_pic ; 0xf6c
        0x000018a4:    230c        .#      MOVS     r3,#0xc
        0x000018a6:    2200        ."      MOVS     r2,#0
        0x000018a8:    219c        .!      MOVS     r1,#0x9c
        0x000018aa:    48e0        .H      LDR      r0,[pc,#896] ; [0x1c2c] = 0x56ac
        0x000018ac:    f7fffb5e    ..^.    BL       Draw_pic ; 0xf6c
        0x000018b0:    230c        .#      MOVS     r3,#0xc
        0x000018b2:    2200        ."      MOVS     r2,#0
        0x000018b4:    21a8        .!      MOVS     r1,#0xa8
        0x000018b6:    48de        .H      LDR      r0,[pc,#888] ; [0x1c30] = 0x5e8c
        0x000018b8:    f7fffb58    ..X.    BL       Draw_pic ; 0xf6c
        0x000018bc:    230c        .#      MOVS     r3,#0xc
        0x000018be:    2200        ."      MOVS     r2,#0
        0x000018c0:    21b4        .!      MOVS     r1,#0xb4
        0x000018c2:    48dc        .H      LDR      r0,[pc,#880] ; [0x1c34] = 0x558c
        0x000018c4:    f7fffb52    ..R.    BL       Draw_pic ; 0xf6c
        0x000018c8:    230c        .#      MOVS     r3,#0xc
        0x000018ca:    2200        ."      MOVS     r2,#0
        0x000018cc:    21c0        .!      MOVS     r1,#0xc0
        0x000018ce:    48da        .H      LDR      r0,[pc,#872] ; [0x1c38] = 0x492c
        0x000018d0:    f7fffb4c    ..L.    BL       Draw_pic ; 0xf6c
        0x000018d4:    230c        .#      MOVS     r3,#0xc
        0x000018d6:    2200        ."      MOVS     r2,#0
        0x000018d8:    21cc        .!      MOVS     r1,#0xcc
        0x000018da:    48d0        .H      LDR      r0,[pc,#832] ; [0x1c1c] = 0x4c8c
        0x000018dc:    f7fffb46    ..F.    BL       Draw_pic ; 0xf6c
        0x000018e0:    230c        .#      MOVS     r3,#0xc
        0x000018e2:    2200        ."      MOVS     r2,#0
        0x000018e4:    21d8        .!      MOVS     r1,#0xd8
        0x000018e6:    48d0        .H      LDR      r0,[pc,#832] ; [0x1c28] = 0x5b2c
        0x000018e8:    f7fffb40    ..@.    BL       Draw_pic ; 0xf6c
        0x000018ec:    230c        .#      MOVS     r3,#0xc
        0x000018ee:    2218        ."      MOVS     r2,#0x18
        0x000018f0:    2100        .!      MOVS     r1,#0
        0x000018f2:    48d2        .H      LDR      r0,[pc,#840] ; [0x1c3c] = 0x6f6c
        0x000018f4:    f7fffb3a    ..:.    BL       Draw_pic ; 0xf6c
        0x000018f8:    230c        .#      MOVS     r3,#0xc
        0x000018fa:    2218        ."      MOVS     r2,#0x18
        0x000018fc:    4611        .F      MOV      r1,r2
        0x000018fe:    48ca        .H      LDR      r0,[pc,#808] ; [0x1c28] = 0x5b2c
        0x00001900:    f7fffb34    ..4.    BL       Draw_pic ; 0xf6c
        0x00001904:    230c        .#      MOVS     r3,#0xc
        0x00001906:    2218        ."      MOVS     r2,#0x18
        0x00001908:    2124        $!      MOVS     r1,#0x24
        0x0000190a:    48cd        .H      LDR      r0,[pc,#820] ; [0x1c40] = 0x61ec
        0x0000190c:    f7fffb2e    ....    BL       Draw_pic ; 0xf6c
        0x00001910:    230c        .#      MOVS     r3,#0xc
        0x00001912:    2218        ."      MOVS     r2,#0x18
        0x00001914:    213c        <!      MOVS     r1,#0x3c
        0x00001916:    48cb        .H      LDR      r0,[pc,#812] ; [0x1c44] = 0x4dac
        0x00001918:    f7fffb28    ..(.    BL       Draw_pic ; 0xf6c
        0x0000191c:    230c        .#      MOVS     r3,#0xc
        0x0000191e:    2218        ."      MOVS     r2,#0x18
        0x00001920:    2148        H!      MOVS     r1,#0x48
        0x00001922:    48c1        .H      LDR      r0,[pc,#772] ; [0x1c28] = 0x5b2c
        0x00001924:    f7fffb22    ..".    BL       Draw_pic ; 0xf6c
        0x00001928:    230c        .#      MOVS     r3,#0xc
        0x0000192a:    2218        ."      MOVS     r2,#0x18
        0x0000192c:    2154        T!      MOVS     r1,#0x54
        0x0000192e:    48bb        .H      LDR      r0,[pc,#748] ; [0x1c1c] = 0x4c8c
        0x00001930:    f7fffb1c    ....    BL       Draw_pic ; 0xf6c
        0x00001934:    230c        .#      MOVS     r3,#0xc
        0x00001936:    2218        ."      MOVS     r2,#0x18
        0x00001938:    2160        `!      MOVS     r1,#0x60
        0x0000193a:    48bc        .H      LDR      r0,[pc,#752] ; [0x1c2c] = 0x56ac
        0x0000193c:    f7fffb16    ....    BL       Draw_pic ; 0xf6c
        0x00001940:    230c        .#      MOVS     r3,#0xc
        0x00001942:    2218        ."      MOVS     r2,#0x18
        0x00001944:    216c        l!      MOVS     r1,#0x6c
        0x00001946:    48c0        .H      LDR      r0,[pc,#768] ; [0x1c48] = 0x5a0c
        0x00001948:    f7fffb10    ....    BL       Draw_pic ; 0xf6c
        0x0000194c:    230c        .#      MOVS     r3,#0xc
        0x0000194e:    2218        ."      MOVS     r2,#0x18
        0x00001950:    2178        x!      MOVS     r1,#0x78
        0x00001952:    48b7        .H      LDR      r0,[pc,#732] ; [0x1c30] = 0x5e8c
        0x00001954:    f7fffb0a    ....    BL       Draw_pic ; 0xf6c
        0x00001958:    230c        .#      MOVS     r3,#0xc
        0x0000195a:    2218        ."      MOVS     r2,#0x18
        0x0000195c:    2184        .!      MOVS     r1,#0x84
        0x0000195e:    48af        .H      LDR      r0,[pc,#700] ; [0x1c1c] = 0x4c8c
        0x00001960:    f7fffb04    ....    BL       Draw_pic ; 0xf6c
        0x00001964:    230c        .#      MOVS     r3,#0xc
        0x00001966:    2218        ."      MOVS     r2,#0x18
        0x00001968:    2190        .!      MOVS     r1,#0x90
        0x0000196a:    48b0        .H      LDR      r0,[pc,#704] ; [0x1c2c] = 0x56ac
        0x0000196c:    f7fffafe    ....    BL       Draw_pic ; 0xf6c
        0x00001970:    230c        .#      MOVS     r3,#0xc
        0x00001972:    2218        ."      MOVS     r2,#0x18
        0x00001974:    219c        .!      MOVS     r1,#0x9c
        0x00001976:    48b5        .H      LDR      r0,[pc,#724] ; [0x1c4c] = 0x4a4c
        0x00001978:    f7fffaf8    ....    BL       Draw_pic ; 0xf6c
        0x0000197c:    230c        .#      MOVS     r3,#0xc
        0x0000197e:    2218        ."      MOVS     r2,#0x18
        0x00001980:    21a8        .!      MOVS     r1,#0xa8
        0x00001982:    48b3        .H      LDR      r0,[pc,#716] ; [0x1c50] = 0x630c
        0x00001984:    f7fffaf2    ....    BL       Draw_pic ; 0xf6c
        0x00001988:    230c        .#      MOVS     r3,#0xc
        0x0000198a:    2230        0"      MOVS     r2,#0x30
        0x0000198c:    2100        .!      MOVS     r1,#0
        0x0000198e:    48b1        .H      LDR      r0,[pc,#708] ; [0x1c54] = 0x654c
        0x00001990:    f7fffaec    ....    BL       Draw_pic ; 0xf6c
        0x00001994:    230c        .#      MOVS     r3,#0xc
        0x00001996:    2230        0"      MOVS     r2,#0x30
        0x00001998:    2118        .!      MOVS     r1,#0x18
        0x0000199a:    48af        .H      LDR      r0,[pc,#700] ; [0x1c58] = 0x5fac
        0x0000199c:    f7fffae6    ....    BL       Draw_pic ; 0xf6c
        0x000019a0:    230c        .#      MOVS     r3,#0xc
        0x000019a2:    2230        0"      MOVS     r2,#0x30
        0x000019a4:    2124        $!      MOVS     r1,#0x24
        0x000019a6:    48ad        .H      LDR      r0,[pc,#692] ; [0x1c5c] = 0x510c
        0x000019a8:    f7fffae0    ....    BL       Draw_pic ; 0xf6c
        0x000019ac:    230c        .#      MOVS     r3,#0xc
        0x000019ae:    2230        0"      MOVS     r2,#0x30
        0x000019b0:    4611        .F      MOV      r1,r2
        0x000019b2:    489a        .H      LDR      r0,[pc,#616] ; [0x1c1c] = 0x4c8c
        0x000019b4:    f7fffada    ....    BL       Draw_pic ; 0xf6c
        0x000019b8:    230c        .#      MOVS     r3,#0xc
        0x000019ba:    2230        0"      MOVS     r2,#0x30
        0x000019bc:    213c        <!      MOVS     r1,#0x3c
        0x000019be:    48a8        .H      LDR      r0,[pc,#672] ; [0x1c60] = 0x60cc
        0x000019c0:    f7fffad4    ....    BL       Draw_pic ; 0xf6c
        0x000019c4:    230c        .#      MOVS     r3,#0xc
        0x000019c6:    2230        0"      MOVS     r2,#0x30
        0x000019c8:    2154        T!      MOVS     r1,#0x54
        0x000019ca:    4896        .H      LDR      r0,[pc,#600] ; [0x1c24] = 0x5c4c
        0x000019cc:    f7ffface    ....    BL       Draw_pic ; 0xf6c
        0x000019d0:    230c        .#      MOVS     r3,#0xc
        0x000019d2:    2230        0"      MOVS     r2,#0x30
        0x000019d4:    2160        `!      MOVS     r1,#0x60
        0x000019d6:    4895        .H      LDR      r0,[pc,#596] ; [0x1c2c] = 0x56ac
        0x000019d8:    f7fffac8    ....    BL       Draw_pic ; 0xf6c
        0x000019dc:    230c        .#      MOVS     r3,#0xc
        0x000019de:    2230        0"      MOVS     r2,#0x30
        0x000019e0:    216c        l!      MOVS     r1,#0x6c
        0x000019e2:    4891        .H      LDR      r0,[pc,#580] ; [0x1c28] = 0x5b2c
        0x000019e4:    f7fffac2    ....    BL       Draw_pic ; 0xf6c
        0x000019e8:    230c        .#      MOVS     r3,#0xc
        0x000019ea:    2248        H"      MOVS     r2,#0x48
        0x000019ec:    2100        .!      MOVS     r1,#0
        0x000019ee:    489d        .H      LDR      r0,[pc,#628] ; [0x1c64] = 0x666c
        0x000019f0:    f7fffabc    ....    BL       Draw_pic ; 0xf6c
        0x000019f4:    230c        .#      MOVS     r3,#0xc
        0x000019f6:    2248        H"      MOVS     r2,#0x48
        0x000019f8:    2118        .!      MOVS     r1,#0x18
        0x000019fa:    488a        .H      LDR      r0,[pc,#552] ; [0x1c24] = 0x5c4c
        0x000019fc:    f7fffab6    ....    BL       Draw_pic ; 0xf6c
        0x00001a00:    230c        .#      MOVS     r3,#0xc
        0x00001a02:    2248        H"      MOVS     r2,#0x48
        0x00001a04:    2124        $!      MOVS     r1,#0x24
        0x00001a06:    4885        .H      LDR      r0,[pc,#532] ; [0x1c1c] = 0x4c8c
        0x00001a08:    f7fffab0    ....    BL       Draw_pic ; 0xf6c
        0x00001a0c:    230c        .#      MOVS     r3,#0xc
        0x00001a0e:    2248        H"      MOVS     r2,#0x48
        0x00001a10:    2130        0!      MOVS     r1,#0x30
        0x00001a12:    4883        .H      LDR      r0,[pc,#524] ; [0x1c20] = 0x480c
        0x00001a14:    f7fffaaa    ....    BL       Draw_pic ; 0xf6c
        0x00001a18:    230c        .#      MOVS     r3,#0xc
        0x00001a1a:    2248        H"      MOVS     r2,#0x48
        0x00001a1c:    213c        <!      MOVS     r1,#0x3c
        0x00001a1e:    4882        .H      LDR      r0,[pc,#520] ; [0x1c28] = 0x5b2c
        0x00001a20:    f7fffaa4    ....    BL       Draw_pic ; 0xf6c
        0x00001a24:    230c        .#      MOVS     r3,#0xc
        0x00001a26:    2248        H"      MOVS     r2,#0x48
        0x00001a28:    4611        .F      MOV      r1,r2
        0x00001a2a:    4888        .H      LDR      r0,[pc,#544] ; [0x1c4c] = 0x4a4c
        0x00001a2c:    f7fffa9e    ....    BL       Draw_pic ; 0xf6c
        0x00001a30:    230c        .#      MOVS     r3,#0xc
        0x00001a32:    2248        H"      MOVS     r2,#0x48
        0x00001a34:    2154        T!      MOVS     r1,#0x54
        0x00001a36:    488c        .H      LDR      r0,[pc,#560] ; [0x1c68] = 0x4fec
        0x00001a38:    f7fffa98    ....    BL       Draw_pic ; 0xf6c
        0x00001a3c:    230c        .#      MOVS     r3,#0xc
        0x00001a3e:    2248        H"      MOVS     r2,#0x48
        0x00001a40:    216c        l!      MOVS     r1,#0x6c
        0x00001a42:    4880        .H      LDR      r0,[pc,#512] ; [0x1c44] = 0x4dac
        0x00001a44:    f7fffa92    ....    BL       Draw_pic ; 0xf6c
        0x00001a48:    230c        .#      MOVS     r3,#0xc
        0x00001a4a:    2248        H"      MOVS     r2,#0x48
        0x00001a4c:    2178        x!      MOVS     r1,#0x78
        0x00001a4e:    4887        .H      LDR      r0,[pc,#540] ; [0x1c6c] = 0x57cc
        0x00001a50:    f7fffa8c    ....    BL       Draw_pic ; 0xf6c
        0x00001a54:    230c        .#      MOVS     r3,#0xc
        0x00001a56:    2248        H"      MOVS     r2,#0x48
        0x00001a58:    2184        .!      MOVS     r1,#0x84
        0x00001a5a:    4873        sH      LDR      r0,[pc,#460] ; [0x1c28] = 0x5b2c
        0x00001a5c:    f7fffa86    ....    BL       Draw_pic ; 0xf6c
        0x00001a60:    230c        .#      MOVS     r3,#0xc
        0x00001a62:    2248        H"      MOVS     r2,#0x48
        0x00001a64:    219c        .!      MOVS     r1,#0x9c
        0x00001a66:    486f        oH      LDR      r0,[pc,#444] ; [0x1c24] = 0x5c4c
        0x00001a68:    f7fffa80    ....    BL       Draw_pic ; 0xf6c
        0x00001a6c:    230c        .#      MOVS     r3,#0xc
        0x00001a6e:    2248        H"      MOVS     r2,#0x48
        0x00001a70:    21a8        .!      MOVS     r1,#0xa8
        0x00001a72:    487f        .H      LDR      r0,[pc,#508] ; [0x1c70] = 0x5d6c
        0x00001a74:    f7fffa7a    ..z.    BL       Draw_pic ; 0xf6c
        0x00001a78:    230c        .#      MOVS     r3,#0xc
        0x00001a7a:    2248        H"      MOVS     r2,#0x48
        0x00001a7c:    21b4        .!      MOVS     r1,#0xb4
        0x00001a7e:    4868        hH      LDR      r0,[pc,#416] ; [0x1c20] = 0x480c
        0x00001a80:    f7fffa74    ..t.    BL       Draw_pic ; 0xf6c
        0x00001a84:    230c        .#      MOVS     r3,#0xc
        0x00001a86:    2248        H"      MOVS     r2,#0x48
        0x00001a88:    21c0        .!      MOVS     r1,#0xc0
        0x00001a8a:    4879        yH      LDR      r0,[pc,#484] ; [0x1c70] = 0x5d6c
        0x00001a8c:    f7fffa6e    ..n.    BL       Draw_pic ; 0xf6c
        0x00001a90:    230c        .#      MOVS     r3,#0xc
        0x00001a92:    2248        H"      MOVS     r2,#0x48
        0x00001a94:    21cc        .!      MOVS     r1,#0xcc
        0x00001a96:    4871        qH      LDR      r0,[pc,#452] ; [0x1c5c] = 0x510c
        0x00001a98:    f7fffa68    ..h.    BL       Draw_pic ; 0xf6c
        0x00001a9c:    230c        .#      MOVS     r3,#0xc
        0x00001a9e:    2248        H"      MOVS     r2,#0x48
        0x00001aa0:    21d8        .!      MOVS     r1,#0xd8
        0x00001aa2:    4872        rH      LDR      r0,[pc,#456] ; [0x1c6c] = 0x57cc
        0x00001aa4:    f7fffa62    ..b.    BL       Draw_pic ; 0xf6c
        0x00001aa8:    230c        .#      MOVS     r3,#0xc
        0x00001aaa:    2248        H"      MOVS     r2,#0x48
        0x00001aac:    21e4        .!      MOVS     r1,#0xe4
        0x00001aae:    485f        _H      LDR      r0,[pc,#380] ; [0x1c2c] = 0x56ac
        0x00001ab0:    f7fffa5c    ..\.    BL       Draw_pic ; 0xf6c
        0x00001ab4:    230c        .#      MOVS     r3,#0xc
        0x00001ab6:    2260        `"      MOVS     r2,#0x60
        0x00001ab8:    2100        .!      MOVS     r1,#0
        0x00001aba:    486e        nH      LDR      r0,[pc,#440] ; [0x1c74] = 0x678c
        0x00001abc:    f7fffa56    ..V.    BL       Draw_pic ; 0xf6c
        0x00001ac0:    230c        .#      MOVS     r3,#0xc
        0x00001ac2:    2260        `"      MOVS     r2,#0x60
        0x00001ac4:    2118        .!      MOVS     r1,#0x18
        0x00001ac6:    486a        jH      LDR      r0,[pc,#424] ; [0x1c70] = 0x5d6c
        0x00001ac8:    f7fffa50    ..P.    BL       Draw_pic ; 0xf6c
        0x00001acc:    230c        .#      MOVS     r3,#0xc
        0x00001ace:    2260        `"      MOVS     r2,#0x60
        0x00001ad0:    2124        $!      MOVS     r1,#0x24
        0x00001ad2:    485b        [H      LDR      r0,[pc,#364] ; [0x1c40] = 0x61ec
        0x00001ad4:    f7fffa4a    ..J.    BL       Draw_pic ; 0xf6c
        0x00001ad8:    230c        .#      MOVS     r3,#0xc
        0x00001ada:    2260        `"      MOVS     r2,#0x60
        0x00001adc:    213c        <!      MOVS     r1,#0x3c
        0x00001ade:    4859        YH      LDR      r0,[pc,#356] ; [0x1c44] = 0x4dac
        0x00001ae0:    f7fffa44    ..D.    BL       Draw_pic ; 0xf6c
        0x00001ae4:    230c        .#      MOVS     r3,#0xc
        0x00001ae6:    2260        `"      MOVS     r2,#0x60
        0x00001ae8:    2148        H!      MOVS     r1,#0x48
        0x00001aea:    484f        OH      LDR      r0,[pc,#316] ; [0x1c28] = 0x5b2c
        0x00001aec:    f7fffa3e    ..>.    BL       Draw_pic ; 0xf6c
        0x00001af0:    230c        .#      MOVS     r3,#0xc
        0x00001af2:    2260        `"      MOVS     r2,#0x60
        0x00001af4:    2154        T!      MOVS     r1,#0x54
        0x00001af6:    4849        IH      LDR      r0,[pc,#292] ; [0x1c1c] = 0x4c8c
        0x00001af8:    f7fffa38    ..8.    BL       Draw_pic ; 0xf6c
        0x00001afc:    230c        .#      MOVS     r3,#0xc
        0x00001afe:    2260        `"      MOVS     r2,#0x60
        0x00001b00:    4611        .F      MOV      r1,r2
        0x00001b02:    484a        JH      LDR      r0,[pc,#296] ; [0x1c2c] = 0x56ac
        0x00001b04:    f7fffa32    ..2.    BL       Draw_pic ; 0xf6c
        0x00001b08:    230c        .#      MOVS     r3,#0xc
        0x00001b0a:    2260        `"      MOVS     r2,#0x60
        0x00001b0c:    216c        l!      MOVS     r1,#0x6c
        0x00001b0e:    484e        NH      LDR      r0,[pc,#312] ; [0x1c48] = 0x5a0c
        0x00001b10:    f7fffa2c    ..,.    BL       Draw_pic ; 0xf6c
        0x00001b14:    230c        .#      MOVS     r3,#0xc
        0x00001b16:    2260        `"      MOVS     r2,#0x60
        0x00001b18:    2178        x!      MOVS     r1,#0x78
        0x00001b1a:    4845        EH      LDR      r0,[pc,#276] ; [0x1c30] = 0x5e8c
        0x00001b1c:    f7fffa26    ..&.    BL       Draw_pic ; 0xf6c
        0x00001b20:    230c        .#      MOVS     r3,#0xc
        0x00001b22:    2260        `"      MOVS     r2,#0x60
        0x00001b24:    2184        .!      MOVS     r1,#0x84
        0x00001b26:    483d        =H      LDR      r0,[pc,#244] ; [0x1c1c] = 0x4c8c
        0x00001b28:    f7fffa20    .. .    BL       Draw_pic ; 0xf6c
        0x00001b2c:    230c        .#      MOVS     r3,#0xc
        0x00001b2e:    2260        `"      MOVS     r2,#0x60
        0x00001b30:    2190        .!      MOVS     r1,#0x90
        0x00001b32:    483e        >H      LDR      r0,[pc,#248] ; [0x1c2c] = 0x56ac
        0x00001b34:    f7fffa1a    ....    BL       Draw_pic ; 0xf6c
        0x00001b38:    230c        .#      MOVS     r3,#0xc
        0x00001b3a:    2260        `"      MOVS     r2,#0x60
        0x00001b3c:    219c        .!      MOVS     r1,#0x9c
        0x00001b3e:    4843        CH      LDR      r0,[pc,#268] ; [0x1c4c] = 0x4a4c
        0x00001b40:    f7fffa14    ....    BL       Draw_pic ; 0xf6c
        0x00001b44:    230c        .#      MOVS     r3,#0xc
        0x00001b46:    2260        `"      MOVS     r2,#0x60
        0x00001b48:    21a8        .!      MOVS     r1,#0xa8
        0x00001b4a:    4841        AH      LDR      r0,[pc,#260] ; [0x1c50] = 0x630c
        0x00001b4c:    f7fffa0e    ....    BL       Draw_pic ; 0xf6c
        0x00001b50:    230c        .#      MOVS     r3,#0xc
        0x00001b52:    2278        x"      MOVS     r2,#0x78
        0x00001b54:    2100        .!      MOVS     r1,#0
        0x00001b56:    4848        HH      LDR      r0,[pc,#288] ; [0x1c78] = 0x68ac
        0x00001b58:    f7fffa08    ....    BL       Draw_pic ; 0xf6c
        0x00001b5c:    230c        .#      MOVS     r3,#0xc
        0x00001b5e:    2278        x"      MOVS     r2,#0x78
        0x00001b60:    2118        .!      MOVS     r1,#0x18
        0x00001b62:    482e        .H      LDR      r0,[pc,#184] ; [0x1c1c] = 0x4c8c
        0x00001b64:    f7fffa02    ....    BL       Draw_pic ; 0xf6c
        0x00001b68:    230c        .#      MOVS     r3,#0xc
        0x00001b6a:    2278        x"      MOVS     r2,#0x78
        0x00001b6c:    2124        $!      MOVS     r1,#0x24
        0x00001b6e:    4840        @H      LDR      r0,[pc,#256] ; [0x1c70] = 0x5d6c
        0x00001b70:    f7fff9fc    ....    BL       Draw_pic ; 0xf6c
        0x00001b74:    230c        .#      MOVS     r3,#0xc
        0x00001b76:    2278        x"      MOVS     r2,#0x78
        0x00001b78:    2130        0!      MOVS     r1,#0x30
        0x00001b7a:    483b        ;H      LDR      r0,[pc,#236] ; [0x1c68] = 0x4fec
        0x00001b7c:    f7fff9f6    ....    BL       Draw_pic ; 0xf6c
        0x00001b80:    230c        .#      MOVS     r3,#0xc
        0x00001b82:    2278        x"      MOVS     r2,#0x78
        0x00001b84:    213c        <!      MOVS     r1,#0x3c
        0x00001b86:    4825        %H      LDR      r0,[pc,#148] ; [0x1c1c] = 0x4c8c
        0x00001b88:    f7fff9f0    ....    BL       Draw_pic ; 0xf6c
        0x00001b8c:    230c        .#      MOVS     r3,#0xc
        0x00001b8e:    2278        x"      MOVS     r2,#0x78
        0x00001b90:    2148        H!      MOVS     r1,#0x48
        0x00001b92:    4825        %H      LDR      r0,[pc,#148] ; [0x1c28] = 0x5b2c
        0x00001b94:    f7fff9ea    ....    BL       Draw_pic ; 0xf6c
        0x00001b98:    230c        .#      MOVS     r3,#0xc
        0x00001b9a:    2278        x"      MOVS     r2,#0x78
        0x00001b9c:    2154        T!      MOVS     r1,#0x54
        0x00001b9e:    4823        #H      LDR      r0,[pc,#140] ; [0x1c2c] = 0x56ac
        0x00001ba0:    f7fff9e4    ....    BL       Draw_pic ; 0xf6c
        0x00001ba4:    230c        .#      MOVS     r3,#0xc
        0x00001ba6:    2278        x"      MOVS     r2,#0x78
        0x00001ba8:    2160        `!      MOVS     r1,#0x60
        0x00001baa:    481c        .H      LDR      r0,[pc,#112] ; [0x1c1c] = 0x4c8c
        0x00001bac:    f7fff9de    ....    BL       Draw_pic ; 0xf6c
        0x00001bb0:    230c        .#      MOVS     r3,#0xc
        0x00001bb2:    2278        x"      MOVS     r2,#0x78
        0x00001bb4:    216c        l!      MOVS     r1,#0x6c
        0x00001bb6:    482e        .H      LDR      r0,[pc,#184] ; [0x1c70] = 0x5d6c
        0x00001bb8:    f7fff9d8    ....    BL       Draw_pic ; 0xf6c
        0x00001bbc:    230c        .#      MOVS     r3,#0xc
        0x00001bbe:    2290        ."      MOVS     r2,#0x90
        0x00001bc0:    2100        .!      MOVS     r1,#0
        0x00001bc2:    482e        .H      LDR      r0,[pc,#184] ; [0x1c7c] = 0x69cc
        0x00001bc4:    f7fff9d2    ....    BL       Draw_pic ; 0xf6c
        0x00001bc8:    230c        .#      MOVS     r3,#0xc
        0x00001bca:    2290        ."      MOVS     r2,#0x90
        0x00001bcc:    2118        .!      MOVS     r1,#0x18
        0x00001bce:    4812        .H      LDR      r0,[pc,#72] ; [0x1c18] = 0x546c
        0x00001bd0:    f7fff9cc    ....    BL       Draw_pic ; 0xf6c
        0x00001bd4:    230c        .#      MOVS     r3,#0xc
        0x00001bd6:    2290        ."      MOVS     r2,#0x90
        0x00001bd8:    2124        $!      MOVS     r1,#0x24
        0x00001bda:    4810        .H      LDR      r0,[pc,#64] ; [0x1c1c] = 0x4c8c
        0x00001bdc:    f7fff9c6    ....    BL       Draw_pic ; 0xf6c
        0x00001be0:    230c        .#      MOVS     r3,#0xc
        0x00001be2:    2290        ."      MOVS     r2,#0x90
        0x00001be4:    2130        0!      MOVS     r1,#0x30
        0x00001be6:    4826        &H      LDR      r0,[pc,#152] ; [0x1c80] = 0x4b6c
        0x00001be8:    f7fff9c0    ....    BL       Draw_pic ; 0xf6c
        0x00001bec:    230c        .#      MOVS     r3,#0xc
        0x00001bee:    2290        ."      MOVS     r2,#0x90
        0x00001bf0:    213c        <!      MOVS     r1,#0x3c
        0x00001bf2:    481b        .H      LDR      r0,[pc,#108] ; [0x1c60] = 0x60cc
        0x00001bf4:    f7fff9ba    ....    BL       Draw_pic ; 0xf6c
        0x00001bf8:    230c        .#      MOVS     r3,#0xc
        0x00001bfa:    2290        ."      MOVS     r2,#0x90
        0x00001bfc:    2148        H!      MOVS     r1,#0x48
        0x00001bfe:    4808        .H      LDR      r0,[pc,#32] ; [0x1c20] = 0x480c
        0x00001c00:    f7fff9b4    ....    BL       Draw_pic ; 0xf6c
        0x00001c04:    230c        .#      MOVS     r3,#0xc
        0x00001c06:    2290        ."      MOVS     r2,#0x90
        0x00001c08:    2154        T!      MOVS     r1,#0x54
        0x00001c0a:    4819        .H      LDR      r0,[pc,#100] ; [0x1c70] = 0x5d6c
        0x00001c0c:    e03a        :.      B        0x1c84 ; draw_homepage + 1136
    $d
        0x00001c0e:    0000        ..      DCW    0
        0x00001c10:    0000c350    P...    DCD    50000
        0x00001c14:    000058ec    .X..    DCD    22764
        0x00001c18:    0000546c    lT..    DCD    21612
        0x00001c1c:    00004c8c    .L..    DCD    19596
        0x00001c20:    0000480c    .H..    DCD    18444
        0x00001c24:    00005c4c    L\..    DCD    23628
        0x00001c28:    00005b2c    ,[..    DCD    23340
        0x00001c2c:    000056ac    .V..    DCD    22188
        0x00001c30:    00005e8c    .^..    DCD    24204
        0x00001c34:    0000558c    .U..    DCD    21900
        0x00001c38:    0000492c    ,I..    DCD    18732
        0x00001c3c:    00006f6c    lo..    DCD    28524
        0x00001c40:    000061ec    .a..    DCD    25068
        0x00001c44:    00004dac    .M..    DCD    19884
        0x00001c48:    00005a0c    .Z..    DCD    23052
        0x00001c4c:    00004a4c    LJ..    DCD    19020
        0x00001c50:    0000630c    .c..    DCD    25356
        0x00001c54:    0000654c    Le..    DCD    25932
        0x00001c58:    00005fac    ._..    DCD    24492
        0x00001c5c:    0000510c    .Q..    DCD    20748
        0x00001c60:    000060cc    .`..    DCD    24780
        0x00001c64:    0000666c    lf..    DCD    26220
        0x00001c68:    00004fec    .O..    DCD    20460
        0x00001c6c:    000057cc    .W..    DCD    22476
        0x00001c70:    00005d6c    l]..    DCD    23916
        0x00001c74:    0000678c    .g..    DCD    26508
        0x00001c78:    000068ac    .h..    DCD    26796
        0x00001c7c:    000069cc    .i..    DCD    27084
        0x00001c80:    00004b6c    lK..    DCD    19308
    $t
        0x00001c84:    f7fff972    ..r.    BL       Draw_pic ; 0xf6c
        0x00001c88:    230c        .#      MOVS     r3,#0xc
        0x00001c8a:    2290        ."      MOVS     r2,#0x90
        0x00001c8c:    2160        `!      MOVS     r1,#0x60
        0x00001c8e:    4805        .H      LDR      r0,[pc,#20] ; [0x1ca4] = 0x4c8c
        0x00001c90:    f7fff96c    ..l.    BL       Draw_pic ; 0xf6c
        0x00001c94:    230c        .#      MOVS     r3,#0xc
        0x00001c96:    2290        ."      MOVS     r2,#0x90
        0x00001c98:    216c        l!      MOVS     r1,#0x6c
        0x00001c9a:    4803        .H      LDR      r0,[pc,#12] ; [0x1ca8] = 0x5b2c
        0x00001c9c:    f7fff966    ..f.    BL       Draw_pic ; 0xf6c
        0x00001ca0:    bd10        ..      POP      {r4,pc}
    $d
        0x00001ca2:    0000        ..      DCW    0
        0x00001ca4:    00004c8c    .L..    DCD    19596
        0x00001ca8:    00005b2c    ,[..    DCD    23340
    $t
    i.draw_page1
    draw_page1
        0x00001cac:    b510        ..      PUSH     {r4,lr}
        0x00001cae:    48e4        .H      LDR      r0,[pc,#912] ; [0x2040] = 0xc350
        0x00001cb0:    f7fff953    ..S.    BL       Delay ; 0xf5a
        0x00001cb4:    f7fffc94    ....    BL       LCD_clear ; 0x15e0
        0x00001cb8:    230c        .#      MOVS     r3,#0xc
        0x00001cba:    2200        ."      MOVS     r2,#0
        0x00001cbc:    4611        .F      MOV      r1,r2
        0x00001cbe:    48e1        .H      LDR      r0,[pc,#900] ; [0x2044] = 0x58ec
        0x00001cc0:    f7fff954    ..T.    BL       Draw_pic ; 0xf6c
        0x00001cc4:    230c        .#      MOVS     r3,#0xc
        0x00001cc6:    2200        ."      MOVS     r2,#0
        0x00001cc8:    4619        .F      MOV      r1,r3
        0x00001cca:    48df        .H      LDR      r0,[pc,#892] ; [0x2048] = 0x546c
        0x00001ccc:    f7fff94e    ..N.    BL       Draw_pic ; 0xf6c
        0x00001cd0:    230c        .#      MOVS     r3,#0xc
        0x00001cd2:    2200        ."      MOVS     r2,#0
        0x00001cd4:    2118        .!      MOVS     r1,#0x18
        0x00001cd6:    48dd        .H      LDR      r0,[pc,#884] ; [0x204c] = 0x4c8c
        0x00001cd8:    f7fff948    ..H.    BL       Draw_pic ; 0xf6c
        0x00001cdc:    230c        .#      MOVS     r3,#0xc
        0x00001cde:    2200        ."      MOVS     r2,#0
        0x00001ce0:    2124        $!      MOVS     r1,#0x24
        0x00001ce2:    48db        .H      LDR      r0,[pc,#876] ; [0x2050] = 0x480c
        0x00001ce4:    f7fff942    ..B.    BL       Draw_pic ; 0xf6c
        0x00001ce8:    230c        .#      MOVS     r3,#0xc
        0x00001cea:    2200        ."      MOVS     r2,#0
        0x00001cec:    2130        0!      MOVS     r1,#0x30
        0x00001cee:    48d9        .H      LDR      r0,[pc,#868] ; [0x2054] = 0x5c4c
        0x00001cf0:    f7fff93c    ..<.    BL       Draw_pic ; 0xf6c
        0x00001cf4:    230c        .#      MOVS     r3,#0xc
        0x00001cf6:    2200        ."      MOVS     r2,#0
        0x00001cf8:    213c        <!      MOVS     r1,#0x3c
        0x00001cfa:    48d4        .H      LDR      r0,[pc,#848] ; [0x204c] = 0x4c8c
        0x00001cfc:    f7fff936    ..6.    BL       Draw_pic ; 0xf6c
        0x00001d00:    230c        .#      MOVS     r3,#0xc
        0x00001d02:    2200        ."      MOVS     r2,#0
        0x00001d04:    2154        T!      MOVS     r1,#0x54
        0x00001d06:    48d4        .H      LDR      r0,[pc,#848] ; [0x2058] = 0x4a4c
        0x00001d08:    f7fff930    ..0.    BL       Draw_pic ; 0xf6c
        0x00001d0c:    230c        .#      MOVS     r3,#0xc
        0x00001d0e:    2200        ."      MOVS     r2,#0
        0x00001d10:    2160        `!      MOVS     r1,#0x60
        0x00001d12:    48d2        .H      LDR      r0,[pc,#840] ; [0x205c] = 0x4fec
        0x00001d14:    f7fff92a    ..*.    BL       Draw_pic ; 0xf6c
        0x00001d18:    230c        .#      MOVS     r3,#0xc
        0x00001d1a:    2200        ."      MOVS     r2,#0
        0x00001d1c:    216c        l!      MOVS     r1,#0x6c
        0x00001d1e:    48cc        .H      LDR      r0,[pc,#816] ; [0x2050] = 0x480c
        0x00001d20:    f7fff924    ..$.    BL       Draw_pic ; 0xf6c
        0x00001d24:    230c        .#      MOVS     r3,#0xc
        0x00001d26:    2200        ."      MOVS     r2,#0
        0x00001d28:    2178        x!      MOVS     r1,#0x78
        0x00001d2a:    48cd        .H      LDR      r0,[pc,#820] ; [0x2060] = 0x56ac
        0x00001d2c:    f7fff91e    ....    BL       Draw_pic ; 0xf6c
        0x00001d30:    230c        .#      MOVS     r3,#0xc
        0x00001d32:    2200        ."      MOVS     r2,#0
        0x00001d34:    2184        .!      MOVS     r1,#0x84
        0x00001d36:    48cb        .H      LDR      r0,[pc,#812] ; [0x2064] = 0x4ecc
        0x00001d38:    f7fff918    ....    BL       Draw_pic ; 0xf6c
        0x00001d3c:    230c        .#      MOVS     r3,#0xc
        0x00001d3e:    2200        ."      MOVS     r2,#0
        0x00001d40:    2190        .!      MOVS     r1,#0x90
        0x00001d42:    48c2        .H      LDR      r0,[pc,#776] ; [0x204c] = 0x4c8c
        0x00001d44:    f7fff912    ....    BL       Draw_pic ; 0xf6c
        0x00001d48:    230c        .#      MOVS     r3,#0xc
        0x00001d4a:    461a        .F      MOV      r2,r3
        0x00001d4c:    2100        .!      MOVS     r1,#0
        0x00001d4e:    48c6        .H      LDR      r0,[pc,#792] ; [0x2068] = 0x5b2c
        0x00001d50:    f7fff90c    ....    BL       Draw_pic ; 0xf6c
        0x00001d54:    230c        .#      MOVS     r3,#0xc
        0x00001d56:    461a        .F      MOV      r2,r3
        0x00001d58:    4619        .F      MOV      r1,r3
        0x00001d5a:    48c4        .H      LDR      r0,[pc,#784] ; [0x206c] = 0x61ec
        0x00001d5c:    f7fff906    ....    BL       Draw_pic ; 0xf6c
        0x00001d60:    230c        .#      MOVS     r3,#0xc
        0x00001d62:    461a        .F      MOV      r2,r3
        0x00001d64:    2124        $!      MOVS     r1,#0x24
        0x00001d66:    48c2        .H      LDR      r0,[pc,#776] ; [0x2070] = 0x4dac
        0x00001d68:    f7fff900    ....    BL       Draw_pic ; 0xf6c
        0x00001d6c:    230c        .#      MOVS     r3,#0xc
        0x00001d6e:    461a        .F      MOV      r2,r3
        0x00001d70:    2130        0!      MOVS     r1,#0x30
        0x00001d72:    48bd        .H      LDR      r0,[pc,#756] ; [0x2068] = 0x5b2c
        0x00001d74:    f7fff8fa    ....    BL       Draw_pic ; 0xf6c
        0x00001d78:    230c        .#      MOVS     r3,#0xc
        0x00001d7a:    461a        .F      MOV      r2,r3
        0x00001d7c:    213c        <!      MOVS     r1,#0x3c
        0x00001d7e:    48b3        .H      LDR      r0,[pc,#716] ; [0x204c] = 0x4c8c
        0x00001d80:    f7fff8f4    ....    BL       Draw_pic ; 0xf6c
        0x00001d84:    230c        .#      MOVS     r3,#0xc
        0x00001d86:    461a        .F      MOV      r2,r3
        0x00001d88:    2148        H!      MOVS     r1,#0x48
        0x00001d8a:    48b5        .H      LDR      r0,[pc,#724] ; [0x2060] = 0x56ac
        0x00001d8c:    f7fff8ee    ....    BL       Draw_pic ; 0xf6c
        0x00001d90:    230c        .#      MOVS     r3,#0xc
        0x00001d92:    461a        .F      MOV      r2,r3
        0x00001d94:    2154        T!      MOVS     r1,#0x54
        0x00001d96:    48b0        .H      LDR      r0,[pc,#704] ; [0x2058] = 0x4a4c
        0x00001d98:    f7fff8e8    ....    BL       Draw_pic ; 0xf6c
        0x00001d9c:    230c        .#      MOVS     r3,#0xc
        0x00001d9e:    461a        .F      MOV      r2,r3
        0x00001da0:    2160        `!      MOVS     r1,#0x60
        0x00001da2:    48b4        .H      LDR      r0,[pc,#720] ; [0x2074] = 0x5a0c
        0x00001da4:    f7fff8e2    ....    BL       Draw_pic ; 0xf6c
        0x00001da8:    230c        .#      MOVS     r3,#0xc
        0x00001daa:    461a        .F      MOV      r2,r3
        0x00001dac:    216c        l!      MOVS     r1,#0x6c
        0x00001dae:    48b2        .H      LDR      r0,[pc,#712] ; [0x2078] = 0x5e8c
        0x00001db0:    f7fff8dc    ....    BL       Draw_pic ; 0xf6c
        0x00001db4:    230c        .#      MOVS     r3,#0xc
        0x00001db6:    461a        .F      MOV      r2,r3
        0x00001db8:    2178        x!      MOVS     r1,#0x78
        0x00001dba:    48a4        .H      LDR      r0,[pc,#656] ; [0x204c] = 0x4c8c
        0x00001dbc:    f7fff8d6    ....    BL       Draw_pic ; 0xf6c
        0x00001dc0:    230c        .#      MOVS     r3,#0xc
        0x00001dc2:    461a        .F      MOV      r2,r3
        0x00001dc4:    2184        .!      MOVS     r1,#0x84
        0x00001dc6:    48a6        .H      LDR      r0,[pc,#664] ; [0x2060] = 0x56ac
        0x00001dc8:    f7fff8d0    ....    BL       Draw_pic ; 0xf6c
        0x00001dcc:    230c        .#      MOVS     r3,#0xc
        0x00001dce:    461a        .F      MOV      r2,r3
        0x00001dd0:    2190        .!      MOVS     r1,#0x90
        0x00001dd2:    48a1        .H      LDR      r0,[pc,#644] ; [0x2058] = 0x4a4c
        0x00001dd4:    f7fff8ca    ....    BL       Draw_pic ; 0xf6c
        0x00001dd8:    230c        .#      MOVS     r3,#0xc
        0x00001dda:    461a        .F      MOV      r2,r3
        0x00001ddc:    219c        .!      MOVS     r1,#0x9c
        0x00001dde:    48a7        .H      LDR      r0,[pc,#668] ; [0x207c] = 0x630c
        0x00001de0:    f7fff8c4    ....    BL       Draw_pic ; 0xf6c
        0x00001de4:    230c        .#      MOVS     r3,#0xc
        0x00001de6:    2224        $"      MOVS     r2,#0x24
        0x00001de8:    2100        .!      MOVS     r1,#0
        0x00001dea:    4896        .H      LDR      r0,[pc,#600] ; [0x2044] = 0x58ec
        0x00001dec:    f7fff8be    ....    BL       Draw_pic ; 0xf6c
        0x00001df0:    230c        .#      MOVS     r3,#0xc
        0x00001df2:    2224        $"      MOVS     r2,#0x24
        0x00001df4:    4619        .F      MOV      r1,r3
        0x00001df6:    489c        .H      LDR      r0,[pc,#624] ; [0x2068] = 0x5b2c
        0x00001df8:    f7fff8b8    ....    BL       Draw_pic ; 0xf6c
        0x00001dfc:    230c        .#      MOVS     r3,#0xc
        0x00001dfe:    2224        $"      MOVS     r2,#0x24
        0x00001e00:    2118        .!      MOVS     r1,#0x18
        0x00001e02:    4892        .H      LDR      r0,[pc,#584] ; [0x204c] = 0x4c8c
        0x00001e04:    f7fff8b2    ....    BL       Draw_pic ; 0xf6c
        0x00001e08:    230c        .#      MOVS     r3,#0xc
        0x00001e0a:    2224        $"      MOVS     r2,#0x24
        0x00001e0c:    4611        .F      MOV      r1,r2
        0x00001e0e:    4891        .H      LDR      r0,[pc,#580] ; [0x2054] = 0x5c4c
        0x00001e10:    f7fff8ac    ....    BL       Draw_pic ; 0xf6c
        0x00001e14:    230c        .#      MOVS     r3,#0xc
        0x00001e16:    2224        $"      MOVS     r2,#0x24
        0x00001e18:    2130        0!      MOVS     r1,#0x30
        0x00001e1a:    488e        .H      LDR      r0,[pc,#568] ; [0x2054] = 0x5c4c
        0x00001e1c:    f7fff8a6    ....    BL       Draw_pic ; 0xf6c
        0x00001e20:    230c        .#      MOVS     r3,#0xc
        0x00001e22:    2224        $"      MOVS     r2,#0x24
        0x00001e24:    2148        H!      MOVS     r1,#0x48
        0x00001e26:    4896        .H      LDR      r0,[pc,#600] ; [0x2080] = 0x6f6c
        0x00001e28:    f7fff8a0    ....    BL       Draw_pic ; 0xf6c
        0x00001e2c:    230c        .#      MOVS     r3,#0xc
        0x00001e2e:    2224        $"      MOVS     r2,#0x24
        0x00001e30:    2160        `!      MOVS     r1,#0x60
        0x00001e32:    4894        .H      LDR      r0,[pc,#592] ; [0x2084] = 0x57cc
        0x00001e34:    f7fff89a    ....    BL       Draw_pic ; 0xf6c
        0x00001e38:    230c        .#      MOVS     r3,#0xc
        0x00001e3a:    2224        $"      MOVS     r2,#0x24
        0x00001e3c:    216c        l!      MOVS     r1,#0x6c
        0x00001e3e:    488a        .H      LDR      r0,[pc,#552] ; [0x2068] = 0x5b2c
        0x00001e40:    f7fff894    ....    BL       Draw_pic ; 0xf6c
        0x00001e44:    230c        .#      MOVS     r3,#0xc
        0x00001e46:    2224        $"      MOVS     r2,#0x24
        0x00001e48:    2184        .!      MOVS     r1,#0x84
        0x00001e4a:    488f        .H      LDR      r0,[pc,#572] ; [0x2088] = 0x654c
        0x00001e4c:    f7fff88e    ....    BL       Draw_pic ; 0xf6c
        0x00001e50:    230c        .#      MOVS     r3,#0xc
        0x00001e52:    2224        $"      MOVS     r2,#0x24
        0x00001e54:    219c        .!      MOVS     r1,#0x9c
        0x00001e56:    488d        .H      LDR      r0,[pc,#564] ; [0x208c] = 0x5d6c
        0x00001e58:    f7fff888    ....    BL       Draw_pic ; 0xf6c
        0x00001e5c:    230c        .#      MOVS     r3,#0xc
        0x00001e5e:    2224        $"      MOVS     r2,#0x24
        0x00001e60:    21a8        .!      MOVS     r1,#0xa8
        0x00001e62:    4888        .H      LDR      r0,[pc,#544] ; [0x2084] = 0x57cc
        0x00001e64:    f7fff882    ....    BL       Draw_pic ; 0xf6c
        0x00001e68:    230c        .#      MOVS     r3,#0xc
        0x00001e6a:    2230        0"      MOVS     r2,#0x30
        0x00001e6c:    2100        .!      MOVS     r1,#0
        0x00001e6e:    4887        .H      LDR      r0,[pc,#540] ; [0x208c] = 0x5d6c
        0x00001e70:    f7fff87c    ..|.    BL       Draw_pic ; 0xf6c
        0x00001e74:    230c        .#      MOVS     r3,#0xc
        0x00001e76:    2230        0"      MOVS     r2,#0x30
        0x00001e78:    4619        .F      MOV      r1,r3
        0x00001e7a:    487f        .H      LDR      r0,[pc,#508] ; [0x2078] = 0x5e8c
        0x00001e7c:    f7fff876    ..v.    BL       Draw_pic ; 0xf6c
        0x00001e80:    230c        .#      MOVS     r3,#0xc
        0x00001e82:    2230        0"      MOVS     r2,#0x30
        0x00001e84:    2118        .!      MOVS     r1,#0x18
        0x00001e86:    4878        xH      LDR      r0,[pc,#480] ; [0x2068] = 0x5b2c
        0x00001e88:    f7fff870    ..p.    BL       Draw_pic ; 0xf6c
        0x00001e8c:    230c        .#      MOVS     r3,#0xc
        0x00001e8e:    2230        0"      MOVS     r2,#0x30
        0x00001e90:    2124        $!      MOVS     r1,#0x24
        0x00001e92:    4873        sH      LDR      r0,[pc,#460] ; [0x2060] = 0x56ac
        0x00001e94:    f7fff86a    ..j.    BL       Draw_pic ; 0xf6c
        0x00001e98:    230c        .#      MOVS     r3,#0xc
        0x00001e9a:    2230        0"      MOVS     r2,#0x30
        0x00001e9c:    213c        <!      MOVS     r1,#0x3c
        0x00001e9e:    4876        vH      LDR      r0,[pc,#472] ; [0x2078] = 0x5e8c
        0x00001ea0:    f7fff864    ..d.    BL       Draw_pic ; 0xf6c
        0x00001ea4:    230c        .#      MOVS     r3,#0xc
        0x00001ea6:    2230        0"      MOVS     r2,#0x30
        0x00001ea8:    2148        H!      MOVS     r1,#0x48
        0x00001eaa:    4866        fH      LDR      r0,[pc,#408] ; [0x2044] = 0x58ec
        0x00001eac:    f7fff85e    ..^.    BL       Draw_pic ; 0xf6c
        0x00001eb0:    230c        .#      MOVS     r3,#0xc
        0x00001eb2:    2248        H"      MOVS     r2,#0x48
        0x00001eb4:    2100        .!      MOVS     r1,#0
        0x00001eb6:    4863        cH      LDR      r0,[pc,#396] ; [0x2044] = 0x58ec
        0x00001eb8:    f7fff858    ..X.    BL       Draw_pic ; 0xf6c
        0x00001ebc:    230c        .#      MOVS     r3,#0xc
        0x00001ebe:    2248        H"      MOVS     r2,#0x48
        0x00001ec0:    4619        .F      MOV      r1,r3
        0x00001ec2:    4869        iH      LDR      r0,[pc,#420] ; [0x2068] = 0x5b2c
        0x00001ec4:    f7fff852    ..R.    BL       Draw_pic ; 0xf6c
        0x00001ec8:    230c        .#      MOVS     r3,#0xc
        0x00001eca:    2248        H"      MOVS     r2,#0x48
        0x00001ecc:    2118        .!      MOVS     r1,#0x18
        0x00001ece:    485f        _H      LDR      r0,[pc,#380] ; [0x204c] = 0x4c8c
        0x00001ed0:    f7fff84c    ..L.    BL       Draw_pic ; 0xf6c
        0x00001ed4:    230c        .#      MOVS     r3,#0xc
        0x00001ed6:    2248        H"      MOVS     r2,#0x48
        0x00001ed8:    2124        $!      MOVS     r1,#0x24
        0x00001eda:    485e        ^H      LDR      r0,[pc,#376] ; [0x2054] = 0x5c4c
        0x00001edc:    f7fff846    ..F.    BL       Draw_pic ; 0xf6c
        0x00001ee0:    230c        .#      MOVS     r3,#0xc
        0x00001ee2:    2248        H"      MOVS     r2,#0x48
        0x00001ee4:    2130        0!      MOVS     r1,#0x30
        0x00001ee6:    485b        [H      LDR      r0,[pc,#364] ; [0x2054] = 0x5c4c
        0x00001ee8:    f7fff840    ..@.    BL       Draw_pic ; 0xf6c
        0x00001eec:    230c        .#      MOVS     r3,#0xc
        0x00001eee:    2248        H"      MOVS     r2,#0x48
        0x00001ef0:    4611        .F      MOV      r1,r2
        0x00001ef2:    4867        gH      LDR      r0,[pc,#412] ; [0x2090] = 0x68ac
        0x00001ef4:    f7fff83a    ..:.    BL       Draw_pic ; 0xf6c
        0x00001ef8:    230c        .#      MOVS     r3,#0xc
        0x00001efa:    2248        H"      MOVS     r2,#0x48
        0x00001efc:    2160        `!      MOVS     r1,#0x60
        0x00001efe:    4861        aH      LDR      r0,[pc,#388] ; [0x2084] = 0x57cc
        0x00001f00:    f7fff834    ..4.    BL       Draw_pic ; 0xf6c
        0x00001f04:    230c        .#      MOVS     r3,#0xc
        0x00001f06:    2248        H"      MOVS     r2,#0x48
        0x00001f08:    216c        l!      MOVS     r1,#0x6c
        0x00001f0a:    4857        WH      LDR      r0,[pc,#348] ; [0x2068] = 0x5b2c
        0x00001f0c:    f7fff82e    ....    BL       Draw_pic ; 0xf6c
        0x00001f10:    230c        .#      MOVS     r3,#0xc
        0x00001f12:    2248        H"      MOVS     r2,#0x48
        0x00001f14:    2184        .!      MOVS     r1,#0x84
        0x00001f16:    485f        _H      LDR      r0,[pc,#380] ; [0x2094] = 0x69cc
        0x00001f18:    f7fff828    ..(.    BL       Draw_pic ; 0xf6c
        0x00001f1c:    230c        .#      MOVS     r3,#0xc
        0x00001f1e:    2248        H"      MOVS     r2,#0x48
        0x00001f20:    219c        .!      MOVS     r1,#0x9c
        0x00001f22:    485a        ZH      LDR      r0,[pc,#360] ; [0x208c] = 0x5d6c
        0x00001f24:    f7fff822    ..".    BL       Draw_pic ; 0xf6c
        0x00001f28:    230c        .#      MOVS     r3,#0xc
        0x00001f2a:    2248        H"      MOVS     r2,#0x48
        0x00001f2c:    21a8        .!      MOVS     r1,#0xa8
        0x00001f2e:    4855        UH      LDR      r0,[pc,#340] ; [0x2084] = 0x57cc
        0x00001f30:    f7fff81c    ....    BL       Draw_pic ; 0xf6c
        0x00001f34:    230c        .#      MOVS     r3,#0xc
        0x00001f36:    2254        T"      MOVS     r2,#0x54
        0x00001f38:    2100        .!      MOVS     r1,#0
        0x00001f3a:    4854        TH      LDR      r0,[pc,#336] ; [0x208c] = 0x5d6c
        0x00001f3c:    f7fff816    ....    BL       Draw_pic ; 0xf6c
        0x00001f40:    230c        .#      MOVS     r3,#0xc
        0x00001f42:    2254        T"      MOVS     r2,#0x54
        0x00001f44:    4619        .F      MOV      r1,r3
        0x00001f46:    484c        LH      LDR      r0,[pc,#304] ; [0x2078] = 0x5e8c
        0x00001f48:    f7fff810    ....    BL       Draw_pic ; 0xf6c
        0x00001f4c:    230c        .#      MOVS     r3,#0xc
        0x00001f4e:    2254        T"      MOVS     r2,#0x54
        0x00001f50:    2118        .!      MOVS     r1,#0x18
        0x00001f52:    4845        EH      LDR      r0,[pc,#276] ; [0x2068] = 0x5b2c
        0x00001f54:    f7fff80a    ....    BL       Draw_pic ; 0xf6c
        0x00001f58:    230c        .#      MOVS     r3,#0xc
        0x00001f5a:    2254        T"      MOVS     r2,#0x54
        0x00001f5c:    2124        $!      MOVS     r1,#0x24
        0x00001f5e:    4840        @H      LDR      r0,[pc,#256] ; [0x2060] = 0x56ac
        0x00001f60:    f7fff804    ....    BL       Draw_pic ; 0xf6c
        0x00001f64:    230c        .#      MOVS     r3,#0xc
        0x00001f66:    2254        T"      MOVS     r2,#0x54
        0x00001f68:    213c        <!      MOVS     r1,#0x3c
        0x00001f6a:    484b        KH      LDR      r0,[pc,#300] ; [0x2098] = 0x4b6c
        0x00001f6c:    f7fefffe    ....    BL       Draw_pic ; 0xf6c
        0x00001f70:    230c        .#      MOVS     r3,#0xc
        0x00001f72:    2254        T"      MOVS     r2,#0x54
        0x00001f74:    2148        H!      MOVS     r1,#0x48
        0x00001f76:    4843        CH      LDR      r0,[pc,#268] ; [0x2084] = 0x57cc
        0x00001f78:    f7fefff8    ....    BL       Draw_pic ; 0xf6c
        0x00001f7c:    230c        .#      MOVS     r3,#0xc
        0x00001f7e:    2254        T"      MOVS     r2,#0x54
        0x00001f80:    4611        .F      MOV      r1,r2
        0x00001f82:    4846        FH      LDR      r0,[pc,#280] ; [0x209c] = 0x60cc
        0x00001f84:    f7fefff2    ....    BL       Draw_pic ; 0xf6c
        0x00001f88:    230c        .#      MOVS     r3,#0xc
        0x00001f8a:    2254        T"      MOVS     r2,#0x54
        0x00001f8c:    2160        `!      MOVS     r1,#0x60
        0x00001f8e:    4834        4H      LDR      r0,[pc,#208] ; [0x2060] = 0x56ac
        0x00001f90:    f7feffec    ....    BL       Draw_pic ; 0xf6c
        0x00001f94:    230c        .#      MOVS     r3,#0xc
        0x00001f96:    2278        x"      MOVS     r2,#0x78
        0x00001f98:    2100        .!      MOVS     r1,#0
        0x00001f9a:    482a        *H      LDR      r0,[pc,#168] ; [0x2044] = 0x58ec
        0x00001f9c:    f7feffe6    ....    BL       Draw_pic ; 0xf6c
        0x00001fa0:    230c        .#      MOVS     r3,#0xc
        0x00001fa2:    2278        x"      MOVS     r2,#0x78
        0x00001fa4:    4619        .F      MOV      r1,r3
        0x00001fa6:    4830        0H      LDR      r0,[pc,#192] ; [0x2068] = 0x5b2c
        0x00001fa8:    f7feffe0    ....    BL       Draw_pic ; 0xf6c
        0x00001fac:    230c        .#      MOVS     r3,#0xc
        0x00001fae:    2278        x"      MOVS     r2,#0x78
        0x00001fb0:    2118        .!      MOVS     r1,#0x18
        0x00001fb2:    4826        &H      LDR      r0,[pc,#152] ; [0x204c] = 0x4c8c
        0x00001fb4:    f7feffda    ....    BL       Draw_pic ; 0xf6c
        0x00001fb8:    230c        .#      MOVS     r3,#0xc
        0x00001fba:    2278        x"      MOVS     r2,#0x78
        0x00001fbc:    2124        $!      MOVS     r1,#0x24
        0x00001fbe:    4825        %H      LDR      r0,[pc,#148] ; [0x2054] = 0x5c4c
        0x00001fc0:    f7feffd4    ....    BL       Draw_pic ; 0xf6c
        0x00001fc4:    230c        .#      MOVS     r3,#0xc
        0x00001fc6:    2278        x"      MOVS     r2,#0x78
        0x00001fc8:    2130        0!      MOVS     r1,#0x30
        0x00001fca:    4822        "H      LDR      r0,[pc,#136] ; [0x2054] = 0x5c4c
        0x00001fcc:    f7feffce    ....    BL       Draw_pic ; 0xf6c
        0x00001fd0:    230c        .#      MOVS     r3,#0xc
        0x00001fd2:    2278        x"      MOVS     r2,#0x78
        0x00001fd4:    2148        H!      MOVS     r1,#0x48
        0x00001fd6:    4826        &H      LDR      r0,[pc,#152] ; [0x2070] = 0x4dac
        0x00001fd8:    f7feffc8    ....    BL       Draw_pic ; 0xf6c
        0x00001fdc:    230c        .#      MOVS     r3,#0xc
        0x00001fde:    2278        x"      MOVS     r2,#0x78
        0x00001fe0:    2160        `!      MOVS     r1,#0x60
        0x00001fe2:    482a        *H      LDR      r0,[pc,#168] ; [0x208c] = 0x5d6c
        0x00001fe4:    f7feffc2    ....    BL       Draw_pic ; 0xf6c
        0x00001fe8:    230c        .#      MOVS     r3,#0xc
        0x00001fea:    2278        x"      MOVS     r2,#0x78
        0x00001fec:    216c        l!      MOVS     r1,#0x6c
        0x00001fee:    4825        %H      LDR      r0,[pc,#148] ; [0x2084] = 0x57cc
        0x00001ff0:    f7feffbc    ....    BL       Draw_pic ; 0xf6c
        0x00001ff4:    230c        .#      MOVS     r3,#0xc
        0x00001ff6:    2278        x"      MOVS     r2,#0x78
        0x00001ff8:    2184        .!      MOVS     r1,#0x84
        0x00001ffa:    481a        .H      LDR      r0,[pc,#104] ; [0x2064] = 0x4ecc
        0x00001ffc:    f7feffb6    ....    BL       Draw_pic ; 0xf6c
        0x00002000:    230c        .#      MOVS     r3,#0xc
        0x00002002:    2278        x"      MOVS     r2,#0x78
        0x00002004:    2190        .!      MOVS     r1,#0x90
        0x00002006:    481f        .H      LDR      r0,[pc,#124] ; [0x2084] = 0x57cc
        0x00002008:    f7feffb0    ....    BL       Draw_pic ; 0xf6c
        0x0000200c:    230c        .#      MOVS     r3,#0xc
        0x0000200e:    2278        x"      MOVS     r2,#0x78
        0x00002010:    21a8        .!      MOVS     r1,#0xa8
        0x00002012:    4823        #H      LDR      r0,[pc,#140] ; [0x20a0] = 0x492c
        0x00002014:    f7feffaa    ....    BL       Draw_pic ; 0xf6c
        0x00002018:    230c        .#      MOVS     r3,#0xc
        0x0000201a:    2278        x"      MOVS     r2,#0x78
        0x0000201c:    21b4        .!      MOVS     r1,#0xb4
        0x0000201e:    480c        .H      LDR      r0,[pc,#48] ; [0x2050] = 0x480c
        0x00002020:    f7feffa4    ....    BL       Draw_pic ; 0xf6c
        0x00002024:    230c        .#      MOVS     r3,#0xc
        0x00002026:    2278        x"      MOVS     r2,#0x78
        0x00002028:    21c0        .!      MOVS     r1,#0xc0
        0x0000202a:    480b        .H      LDR      r0,[pc,#44] ; [0x2058] = 0x4a4c
        0x0000202c:    f7feff9e    ....    BL       Draw_pic ; 0xf6c
        0x00002030:    230c        .#      MOVS     r3,#0xc
        0x00002032:    2278        x"      MOVS     r2,#0x78
        0x00002034:    21cc        .!      MOVS     r1,#0xcc
        0x00002036:    481b        .H      LDR      r0,[pc,#108] ; [0x20a4] = 0x534c
        0x00002038:    f7feff98    ....    BL       Draw_pic ; 0xf6c
        0x0000203c:    bd10        ..      POP      {r4,pc}
    $d
        0x0000203e:    0000        ..      DCW    0
        0x00002040:    0000c350    P...    DCD    50000
        0x00002044:    000058ec    .X..    DCD    22764
        0x00002048:    0000546c    lT..    DCD    21612
        0x0000204c:    00004c8c    .L..    DCD    19596
        0x00002050:    0000480c    .H..    DCD    18444
        0x00002054:    00005c4c    L\..    DCD    23628
        0x00002058:    00004a4c    LJ..    DCD    19020
        0x0000205c:    00004fec    .O..    DCD    20460
        0x00002060:    000056ac    .V..    DCD    22188
        0x00002064:    00004ecc    .N..    DCD    20172
        0x00002068:    00005b2c    ,[..    DCD    23340
        0x0000206c:    000061ec    .a..    DCD    25068
        0x00002070:    00004dac    .M..    DCD    19884
        0x00002074:    00005a0c    .Z..    DCD    23052
        0x00002078:    00005e8c    .^..    DCD    24204
        0x0000207c:    0000630c    .c..    DCD    25356
        0x00002080:    00006f6c    lo..    DCD    28524
        0x00002084:    000057cc    .W..    DCD    22476
        0x00002088:    0000654c    Le..    DCD    25932
        0x0000208c:    00005d6c    l]..    DCD    23916
        0x00002090:    000068ac    .h..    DCD    26796
        0x00002094:    000069cc    .i..    DCD    27084
        0x00002098:    00004b6c    lK..    DCD    19308
        0x0000209c:    000060cc    .`..    DCD    24780
        0x000020a0:    0000492c    ,I..    DCD    18732
        0x000020a4:    0000534c    LS..    DCD    21324
    $t
    i.draw_page2
    draw_page2
        0x000020a8:    b510        ..      PUSH     {r4,lr}
        0x000020aa:    482d        -H      LDR      r0,[pc,#180] ; [0x2160] = 0xc350
        0x000020ac:    f7feff55    ..U.    BL       Delay ; 0xf5a
        0x000020b0:    f7fffa96    ....    BL       LCD_clear ; 0x15e0
        0x000020b4:    230c        .#      MOVS     r3,#0xc
        0x000020b6:    2278        x"      MOVS     r2,#0x78
        0x000020b8:    2100        .!      MOVS     r1,#0
        0x000020ba:    482a        *H      LDR      r0,[pc,#168] ; [0x2164] = 0x58ec
        0x000020bc:    f7feff56    ..V.    BL       Draw_pic ; 0xf6c
        0x000020c0:    230c        .#      MOVS     r3,#0xc
        0x000020c2:    2278        x"      MOVS     r2,#0x78
        0x000020c4:    4619        .F      MOV      r1,r3
        0x000020c6:    4828        (H      LDR      r0,[pc,#160] ; [0x2168] = 0x5b2c
        0x000020c8:    f7feff50    ..P.    BL       Draw_pic ; 0xf6c
        0x000020cc:    230c        .#      MOVS     r3,#0xc
        0x000020ce:    2278        x"      MOVS     r2,#0x78
        0x000020d0:    2118        .!      MOVS     r1,#0x18
        0x000020d2:    4826        &H      LDR      r0,[pc,#152] ; [0x216c] = 0x4c8c
        0x000020d4:    f7feff4a    ..J.    BL       Draw_pic ; 0xf6c
        0x000020d8:    230c        .#      MOVS     r3,#0xc
        0x000020da:    2278        x"      MOVS     r2,#0x78
        0x000020dc:    2124        $!      MOVS     r1,#0x24
        0x000020de:    4824        $H      LDR      r0,[pc,#144] ; [0x2170] = 0x5c4c
        0x000020e0:    f7feff44    ..D.    BL       Draw_pic ; 0xf6c
        0x000020e4:    230c        .#      MOVS     r3,#0xc
        0x000020e6:    2278        x"      MOVS     r2,#0x78
        0x000020e8:    2130        0!      MOVS     r1,#0x30
        0x000020ea:    4821        !H      LDR      r0,[pc,#132] ; [0x2170] = 0x5c4c
        0x000020ec:    f7feff3e    ..>.    BL       Draw_pic ; 0xf6c
        0x000020f0:    230c        .#      MOVS     r3,#0xc
        0x000020f2:    2278        x"      MOVS     r2,#0x78
        0x000020f4:    2148        H!      MOVS     r1,#0x48
        0x000020f6:    481f        .H      LDR      r0,[pc,#124] ; [0x2174] = 0x4dac
        0x000020f8:    f7feff38    ..8.    BL       Draw_pic ; 0xf6c
        0x000020fc:    230c        .#      MOVS     r3,#0xc
        0x000020fe:    2278        x"      MOVS     r2,#0x78
        0x00002100:    2160        `!      MOVS     r1,#0x60
        0x00002102:    481d        .H      LDR      r0,[pc,#116] ; [0x2178] = 0x5d6c
        0x00002104:    f7feff32    ..2.    BL       Draw_pic ; 0xf6c
        0x00002108:    230c        .#      MOVS     r3,#0xc
        0x0000210a:    2278        x"      MOVS     r2,#0x78
        0x0000210c:    216c        l!      MOVS     r1,#0x6c
        0x0000210e:    481b        .H      LDR      r0,[pc,#108] ; [0x217c] = 0x57cc
        0x00002110:    f7feff2c    ..,.    BL       Draw_pic ; 0xf6c
        0x00002114:    230c        .#      MOVS     r3,#0xc
        0x00002116:    2278        x"      MOVS     r2,#0x78
        0x00002118:    2184        .!      MOVS     r1,#0x84
        0x0000211a:    4819        .H      LDR      r0,[pc,#100] ; [0x2180] = 0x4ecc
        0x0000211c:    f7feff26    ..&.    BL       Draw_pic ; 0xf6c
        0x00002120:    230c        .#      MOVS     r3,#0xc
        0x00002122:    2278        x"      MOVS     r2,#0x78
        0x00002124:    2190        .!      MOVS     r1,#0x90
        0x00002126:    4815        .H      LDR      r0,[pc,#84] ; [0x217c] = 0x57cc
        0x00002128:    f7feff20    .. .    BL       Draw_pic ; 0xf6c
        0x0000212c:    230c        .#      MOVS     r3,#0xc
        0x0000212e:    2278        x"      MOVS     r2,#0x78
        0x00002130:    21a8        .!      MOVS     r1,#0xa8
        0x00002132:    4814        .H      LDR      r0,[pc,#80] ; [0x2184] = 0x492c
        0x00002134:    f7feff1a    ....    BL       Draw_pic ; 0xf6c
        0x00002138:    230c        .#      MOVS     r3,#0xc
        0x0000213a:    2278        x"      MOVS     r2,#0x78
        0x0000213c:    21b4        .!      MOVS     r1,#0xb4
        0x0000213e:    4812        .H      LDR      r0,[pc,#72] ; [0x2188] = 0x480c
        0x00002140:    f7feff14    ....    BL       Draw_pic ; 0xf6c
        0x00002144:    230c        .#      MOVS     r3,#0xc
        0x00002146:    2278        x"      MOVS     r2,#0x78
        0x00002148:    21c0        .!      MOVS     r1,#0xc0
        0x0000214a:    4810        .H      LDR      r0,[pc,#64] ; [0x218c] = 0x4a4c
        0x0000214c:    f7feff0e    ....    BL       Draw_pic ; 0xf6c
        0x00002150:    230c        .#      MOVS     r3,#0xc
        0x00002152:    2278        x"      MOVS     r2,#0x78
        0x00002154:    21cc        .!      MOVS     r1,#0xcc
        0x00002156:    480e        .H      LDR      r0,[pc,#56] ; [0x2190] = 0x534c
        0x00002158:    f7feff08    ....    BL       Draw_pic ; 0xf6c
        0x0000215c:    bd10        ..      POP      {r4,pc}
    $d
        0x0000215e:    0000        ..      DCW    0
        0x00002160:    0000c350    P...    DCD    50000
        0x00002164:    000058ec    .X..    DCD    22764
        0x00002168:    00005b2c    ,[..    DCD    23340
        0x0000216c:    00004c8c    .L..    DCD    19596
        0x00002170:    00005c4c    L\..    DCD    23628
        0x00002174:    00004dac    .M..    DCD    19884
        0x00002178:    00005d6c    l]..    DCD    23916
        0x0000217c:    000057cc    .W..    DCD    22476
        0x00002180:    00004ecc    .N..    DCD    20172
        0x00002184:    0000492c    ,I..    DCD    18732
        0x00002188:    0000480c    .H..    DCD    18444
        0x0000218c:    00004a4c    LJ..    DCD    19020
        0x00002190:    0000534c    LS..    DCD    21324
    $t
    i.draw_page3_result
    draw_page3_result
        0x00002194:    b503        ..      PUSH     {r0,r1,lr}
        0x00002196:    b083        ..      SUB      sp,sp,#0xc
        0x00002198:    48fb        .H      LDR      r0,[pc,#1004] ; [0x2588] = 0xc350
        0x0000219a:    f7fefede    ....    BL       Delay ; 0xf5a
        0x0000219e:    f7fffa1f    ....    BL       LCD_clear ; 0x15e0
        0x000021a2:    2001        .       MOVS     r0,#1
        0x000021a4:    9002        ..      STR      r0,[sp,#8]
        0x000021a6:    e3ee        ..      B        0x2986 ; draw_page3_result + 2034
        0x000021a8:    9802        ..      LDR      r0,[sp,#8]
        0x000021aa:    2818        .(      CMP      r0,#0x18
        0x000021ac:    da71        q.      BGE      0x2292 ; draw_page3_result + 254
        0x000021ae:    9802        ..      LDR      r0,[sp,#8]
        0x000021b0:    0081        ..      LSLS     r1,r0,#2
        0x000021b2:    9803        ..      LDR      r0,[sp,#0xc]
        0x000021b4:    5840        @X      LDR      r0,[r0,r1]
        0x000021b6:    217d        }!      MOVS     r1,#0x7d
        0x000021b8:    00c9        ..      LSLS     r1,r1,#3
        0x000021ba:    9001        ..      STR      r0,[sp,#4]
        0x000021bc:    f7fdffb8    ....    BL       __aeabi_uidiv ; 0x130
        0x000021c0:    0003        ..      MOVS     r3,r0
        0x000021c2:    f7fffb18    ....    BL       __ARM_common_switch8 ; 0x17f6
    $d
        0x000021c6:    060a        ..      DCW    1546
        0x000021c8:    362a1e12    ..*6    DCD    908729874
        0x000021cc:    675a4e42    BNZg    DCD    1733971522
        0x000021d0:    7f73        s.      DCW    32627
    $t
        0x000021d2:    210c        .!      MOVS     r1,#0xc
        0x000021d4:    9802        ..      LDR      r0,[sp,#8]
        0x000021d6:    4348        HC      MULS     r0,r1,r0
        0x000021d8:    b280        ..      UXTH     r0,r0
        0x000021da:    460b        .F      MOV      r3,r1
        0x000021dc:    4602        .F      MOV      r2,r0
        0x000021de:    2100        .!      MOVS     r1,#0
        0x000021e0:    9001        ..      STR      r0,[sp,#4]
        0x000021e2:    48ea        .H      LDR      r0,[pc,#936] ; [0x258c] = 0x6f6c
        0x000021e4:    f7fefec2    ....    BL       Draw_pic ; 0xf6c
        0x000021e8:    e078        x.      B        0x22dc ; draw_page3_result + 328
        0x000021ea:    210c        .!      MOVS     r1,#0xc
        0x000021ec:    9802        ..      LDR      r0,[sp,#8]
        0x000021ee:    4348        HC      MULS     r0,r1,r0
        0x000021f0:    b280        ..      UXTH     r0,r0
        0x000021f2:    460b        .F      MOV      r3,r1
        0x000021f4:    4602        .F      MOV      r2,r0
        0x000021f6:    2100        .!      MOVS     r1,#0
        0x000021f8:    9001        ..      STR      r0,[sp,#4]
        0x000021fa:    48e5        .H      LDR      r0,[pc,#916] ; [0x2590] = 0x654c
        0x000021fc:    f7fefeb6    ....    BL       Draw_pic ; 0xf6c
        0x00002200:    e06c        l.      B        0x22dc ; draw_page3_result + 328
        0x00002202:    210c        .!      MOVS     r1,#0xc
        0x00002204:    9802        ..      LDR      r0,[sp,#8]
        0x00002206:    4348        HC      MULS     r0,r1,r0
        0x00002208:    b280        ..      UXTH     r0,r0
        0x0000220a:    460b        .F      MOV      r3,r1
        0x0000220c:    4602        .F      MOV      r2,r0
        0x0000220e:    2100        .!      MOVS     r1,#0
        0x00002210:    9001        ..      STR      r0,[sp,#4]
        0x00002212:    48e0        .H      LDR      r0,[pc,#896] ; [0x2594] = 0x666c
        0x00002214:    f7fefeaa    ....    BL       Draw_pic ; 0xf6c
        0x00002218:    e060        `.      B        0x22dc ; draw_page3_result + 328
        0x0000221a:    210c        .!      MOVS     r1,#0xc
        0x0000221c:    9802        ..      LDR      r0,[sp,#8]
        0x0000221e:    4348        HC      MULS     r0,r1,r0
        0x00002220:    b280        ..      UXTH     r0,r0
        0x00002222:    460b        .F      MOV      r3,r1
        0x00002224:    4602        .F      MOV      r2,r0
        0x00002226:    2100        .!      MOVS     r1,#0
        0x00002228:    9001        ..      STR      r0,[sp,#4]
        0x0000222a:    48db        .H      LDR      r0,[pc,#876] ; [0x2598] = 0x678c
        0x0000222c:    f7fefe9e    ....    BL       Draw_pic ; 0xf6c
        0x00002230:    e054        T.      B        0x22dc ; draw_page3_result + 328
        0x00002232:    210c        .!      MOVS     r1,#0xc
        0x00002234:    9802        ..      LDR      r0,[sp,#8]
        0x00002236:    4348        HC      MULS     r0,r1,r0
        0x00002238:    b280        ..      UXTH     r0,r0
        0x0000223a:    460b        .F      MOV      r3,r1
        0x0000223c:    4602        .F      MOV      r2,r0
        0x0000223e:    2100        .!      MOVS     r1,#0
        0x00002240:    9001        ..      STR      r0,[sp,#4]
        0x00002242:    48d6        .H      LDR      r0,[pc,#856] ; [0x259c] = 0x68ac
        0x00002244:    f7fefe92    ....    BL       Draw_pic ; 0xf6c
        0x00002248:    e048        H.      B        0x22dc ; draw_page3_result + 328
        0x0000224a:    210c        .!      MOVS     r1,#0xc
        0x0000224c:    9802        ..      LDR      r0,[sp,#8]
        0x0000224e:    4348        HC      MULS     r0,r1,r0
        0x00002250:    b280        ..      UXTH     r0,r0
        0x00002252:    460b        .F      MOV      r3,r1
        0x00002254:    4602        .F      MOV      r2,r0
        0x00002256:    2100        .!      MOVS     r1,#0
        0x00002258:    9001        ..      STR      r0,[sp,#4]
        0x0000225a:    48d1        .H      LDR      r0,[pc,#836] ; [0x25a0] = 0x69cc
        0x0000225c:    f7fefe86    ....    BL       Draw_pic ; 0xf6c
        0x00002260:    e03c        <.      B        0x22dc ; draw_page3_result + 328
        0x00002262:    210c        .!      MOVS     r1,#0xc
        0x00002264:    9802        ..      LDR      r0,[sp,#8]
        0x00002266:    4348        HC      MULS     r0,r1,r0
        0x00002268:    b280        ..      UXTH     r0,r0
        0x0000226a:    460b        .F      MOV      r3,r1
        0x0000226c:    4602        .F      MOV      r2,r0
        0x0000226e:    2100        .!      MOVS     r1,#0
        0x00002270:    9001        ..      STR      r0,[sp,#4]
        0x00002272:    48cc        .H      LDR      r0,[pc,#816] ; [0x25a4] = 0x6aec
        0x00002274:    f7fefe7a    ..z.    BL       Draw_pic ; 0xf6c
        0x00002278:    e030        0.      B        0x22dc ; draw_page3_result + 328
        0x0000227a:    210c        .!      MOVS     r1,#0xc
        0x0000227c:    9802        ..      LDR      r0,[sp,#8]
        0x0000227e:    4348        HC      MULS     r0,r1,r0
        0x00002280:    b280        ..      UXTH     r0,r0
        0x00002282:    460b        .F      MOV      r3,r1
        0x00002284:    4602        .F      MOV      r2,r0
        0x00002286:    2100        .!      MOVS     r1,#0
        0x00002288:    9001        ..      STR      r0,[sp,#4]
        0x0000228a:    48c7        .H      LDR      r0,[pc,#796] ; [0x25a8] = 0x6c0c
        0x0000228c:    f7fefe6e    ..n.    BL       Draw_pic ; 0xf6c
        0x00002290:    e024        $.      B        0x22dc ; draw_page3_result + 328
        0x00002292:    e1fc        ..      B        0x268e ; draw_page3_result + 1274
        0x00002294:    210c        .!      MOVS     r1,#0xc
        0x00002296:    9802        ..      LDR      r0,[sp,#8]
        0x00002298:    4348        HC      MULS     r0,r1,r0
        0x0000229a:    b280        ..      UXTH     r0,r0
        0x0000229c:    460b        .F      MOV      r3,r1
        0x0000229e:    4602        .F      MOV      r2,r0
        0x000022a0:    2100        .!      MOVS     r1,#0
        0x000022a2:    9001        ..      STR      r0,[sp,#4]
        0x000022a4:    48c1        .H      LDR      r0,[pc,#772] ; [0x25ac] = 0x6d2c
        0x000022a6:    f7fefe61    ..a.    BL       Draw_pic ; 0xf6c
        0x000022aa:    e017        ..      B        0x22dc ; draw_page3_result + 328
        0x000022ac:    210c        .!      MOVS     r1,#0xc
        0x000022ae:    9802        ..      LDR      r0,[sp,#8]
        0x000022b0:    4348        HC      MULS     r0,r1,r0
        0x000022b2:    b280        ..      UXTH     r0,r0
        0x000022b4:    460b        .F      MOV      r3,r1
        0x000022b6:    4602        .F      MOV      r2,r0
        0x000022b8:    2100        .!      MOVS     r1,#0
        0x000022ba:    9001        ..      STR      r0,[sp,#4]
        0x000022bc:    48bc        .H      LDR      r0,[pc,#752] ; [0x25b0] = 0x6e4c
        0x000022be:    f7fefe55    ..U.    BL       Draw_pic ; 0xf6c
        0x000022c2:    e00b        ..      B        0x22dc ; draw_page3_result + 328
        0x000022c4:    210c        .!      MOVS     r1,#0xc
        0x000022c6:    9802        ..      LDR      r0,[sp,#8]
        0x000022c8:    4348        HC      MULS     r0,r1,r0
        0x000022ca:    b280        ..      UXTH     r0,r0
        0x000022cc:    460b        .F      MOV      r3,r1
        0x000022ce:    4602        .F      MOV      r2,r0
        0x000022d0:    2100        .!      MOVS     r1,#0
        0x000022d2:    9001        ..      STR      r0,[sp,#4]
        0x000022d4:    48ad        .H      LDR      r0,[pc,#692] ; [0x258c] = 0x6f6c
        0x000022d6:    f7fefe49    ..I.    BL       Draw_pic ; 0xf6c
        0x000022da:    bf00        ..      NOP      
        0x000022dc:    bf00        ..      NOP      
        0x000022de:    9802        ..      LDR      r0,[sp,#8]
        0x000022e0:    0081        ..      LSLS     r1,r0,#2
        0x000022e2:    9803        ..      LDR      r0,[sp,#0xc]
        0x000022e4:    5840        @X      LDR      r0,[r0,r1]
        0x000022e6:    217d        }!      MOVS     r1,#0x7d
        0x000022e8:    00c9        ..      LSLS     r1,r1,#3
        0x000022ea:    9000        ..      STR      r0,[sp,#0]
        0x000022ec:    f7fdff20    .. .    BL       __aeabi_uidiv ; 0x130
        0x000022f0:    9101        ..      STR      r1,[sp,#4]
        0x000022f2:    2164        d!      MOVS     r1,#0x64
        0x000022f4:    9801        ..      LDR      r0,[sp,#4]
        0x000022f6:    f7fdff1b    ....    BL       __aeabi_uidiv ; 0x130
        0x000022fa:    0003        ..      MOVS     r3,r0
        0x000022fc:    f7fffa7b    ..{.    BL       __ARM_common_switch8 ; 0x17f6
    $d
        0x00002300:    1c11060a    ....    DCD    470877706
        0x00002304:    483d3227    '2=H    DCD    1211970087
        0x00002308:    74695e53    S^it    DCD    1953062483
    $t
        0x0000230c:    210c        .!      MOVS     r1,#0xc
        0x0000230e:    9802        ..      LDR      r0,[sp,#8]
        0x00002310:    4348        HC      MULS     r0,r1,r0
        0x00002312:    b280        ..      UXTH     r0,r0
        0x00002314:    460b        .F      MOV      r3,r1
        0x00002316:    4602        .F      MOV      r2,r0
        0x00002318:    9001        ..      STR      r0,[sp,#4]
        0x0000231a:    489c        .H      LDR      r0,[pc,#624] ; [0x258c] = 0x6f6c
        0x0000231c:    f7fefe26    ..&.    BL       Draw_pic ; 0xf6c
        0x00002320:    e06d        m.      B        0x23fe ; draw_page3_result + 618
        0x00002322:    210c        .!      MOVS     r1,#0xc
        0x00002324:    9802        ..      LDR      r0,[sp,#8]
        0x00002326:    4348        HC      MULS     r0,r1,r0
        0x00002328:    b280        ..      UXTH     r0,r0
        0x0000232a:    460b        .F      MOV      r3,r1
        0x0000232c:    4602        .F      MOV      r2,r0
        0x0000232e:    9001        ..      STR      r0,[sp,#4]
        0x00002330:    4897        .H      LDR      r0,[pc,#604] ; [0x2590] = 0x654c
        0x00002332:    f7fefe1b    ....    BL       Draw_pic ; 0xf6c
        0x00002336:    e062        b.      B        0x23fe ; draw_page3_result + 618
        0x00002338:    210c        .!      MOVS     r1,#0xc
        0x0000233a:    9802        ..      LDR      r0,[sp,#8]
        0x0000233c:    4348        HC      MULS     r0,r1,r0
        0x0000233e:    b280        ..      UXTH     r0,r0
        0x00002340:    460b        .F      MOV      r3,r1
        0x00002342:    4602        .F      MOV      r2,r0
        0x00002344:    9001        ..      STR      r0,[sp,#4]
        0x00002346:    4893        .H      LDR      r0,[pc,#588] ; [0x2594] = 0x666c
        0x00002348:    f7fefe10    ....    BL       Draw_pic ; 0xf6c
        0x0000234c:    e057        W.      B        0x23fe ; draw_page3_result + 618
        0x0000234e:    210c        .!      MOVS     r1,#0xc
        0x00002350:    9802        ..      LDR      r0,[sp,#8]
        0x00002352:    4348        HC      MULS     r0,r1,r0
        0x00002354:    b280        ..      UXTH     r0,r0
        0x00002356:    460b        .F      MOV      r3,r1
        0x00002358:    4602        .F      MOV      r2,r0
        0x0000235a:    9001        ..      STR      r0,[sp,#4]
        0x0000235c:    488e        .H      LDR      r0,[pc,#568] ; [0x2598] = 0x678c
        0x0000235e:    f7fefe05    ....    BL       Draw_pic ; 0xf6c
        0x00002362:    e04c        L.      B        0x23fe ; draw_page3_result + 618
        0x00002364:    210c        .!      MOVS     r1,#0xc
        0x00002366:    9802        ..      LDR      r0,[sp,#8]
        0x00002368:    4348        HC      MULS     r0,r1,r0
        0x0000236a:    b280        ..      UXTH     r0,r0
        0x0000236c:    460b        .F      MOV      r3,r1
        0x0000236e:    4602        .F      MOV      r2,r0
        0x00002370:    9001        ..      STR      r0,[sp,#4]
        0x00002372:    488a        .H      LDR      r0,[pc,#552] ; [0x259c] = 0x68ac
        0x00002374:    f7fefdfa    ....    BL       Draw_pic ; 0xf6c
        0x00002378:    e041        A.      B        0x23fe ; draw_page3_result + 618
        0x0000237a:    210c        .!      MOVS     r1,#0xc
        0x0000237c:    9802        ..      LDR      r0,[sp,#8]
        0x0000237e:    4348        HC      MULS     r0,r1,r0
        0x00002380:    b280        ..      UXTH     r0,r0
        0x00002382:    460b        .F      MOV      r3,r1
        0x00002384:    4602        .F      MOV      r2,r0
        0x00002386:    9001        ..      STR      r0,[sp,#4]
        0x00002388:    4885        .H      LDR      r0,[pc,#532] ; [0x25a0] = 0x69cc
        0x0000238a:    f7fefdef    ....    BL       Draw_pic ; 0xf6c
        0x0000238e:    e036        6.      B        0x23fe ; draw_page3_result + 618
        0x00002390:    210c        .!      MOVS     r1,#0xc
        0x00002392:    9802        ..      LDR      r0,[sp,#8]
        0x00002394:    4348        HC      MULS     r0,r1,r0
        0x00002396:    b280        ..      UXTH     r0,r0
        0x00002398:    460b        .F      MOV      r3,r1
        0x0000239a:    4602        .F      MOV      r2,r0
        0x0000239c:    9001        ..      STR      r0,[sp,#4]
        0x0000239e:    4881        .H      LDR      r0,[pc,#516] ; [0x25a4] = 0x6aec
        0x000023a0:    f7fefde4    ....    BL       Draw_pic ; 0xf6c
        0x000023a4:    e02b        +.      B        0x23fe ; draw_page3_result + 618
        0x000023a6:    210c        .!      MOVS     r1,#0xc
        0x000023a8:    9802        ..      LDR      r0,[sp,#8]
        0x000023aa:    4348        HC      MULS     r0,r1,r0
        0x000023ac:    b280        ..      UXTH     r0,r0
        0x000023ae:    460b        .F      MOV      r3,r1
        0x000023b0:    4602        .F      MOV      r2,r0
        0x000023b2:    9001        ..      STR      r0,[sp,#4]
        0x000023b4:    487c        |H      LDR      r0,[pc,#496] ; [0x25a8] = 0x6c0c
        0x000023b6:    f7fefdd9    ....    BL       Draw_pic ; 0xf6c
        0x000023ba:    e020         .      B        0x23fe ; draw_page3_result + 618
        0x000023bc:    210c        .!      MOVS     r1,#0xc
        0x000023be:    9802        ..      LDR      r0,[sp,#8]
        0x000023c0:    4348        HC      MULS     r0,r1,r0
        0x000023c2:    b280        ..      UXTH     r0,r0
        0x000023c4:    460b        .F      MOV      r3,r1
        0x000023c6:    4602        .F      MOV      r2,r0
        0x000023c8:    9001        ..      STR      r0,[sp,#4]
        0x000023ca:    4878        xH      LDR      r0,[pc,#480] ; [0x25ac] = 0x6d2c
        0x000023cc:    f7fefdce    ....    BL       Draw_pic ; 0xf6c
        0x000023d0:    e015        ..      B        0x23fe ; draw_page3_result + 618
        0x000023d2:    210c        .!      MOVS     r1,#0xc
        0x000023d4:    9802        ..      LDR      r0,[sp,#8]
        0x000023d6:    4348        HC      MULS     r0,r1,r0
        0x000023d8:    b280        ..      UXTH     r0,r0
        0x000023da:    460b        .F      MOV      r3,r1
        0x000023dc:    4602        .F      MOV      r2,r0
        0x000023de:    9001        ..      STR      r0,[sp,#4]
        0x000023e0:    4873        sH      LDR      r0,[pc,#460] ; [0x25b0] = 0x6e4c
        0x000023e2:    f7fefdc3    ....    BL       Draw_pic ; 0xf6c
        0x000023e6:    e00a        ..      B        0x23fe ; draw_page3_result + 618
        0x000023e8:    210c        .!      MOVS     r1,#0xc
        0x000023ea:    9802        ..      LDR      r0,[sp,#8]
        0x000023ec:    4348        HC      MULS     r0,r1,r0
        0x000023ee:    b280        ..      UXTH     r0,r0
        0x000023f0:    460b        .F      MOV      r3,r1
        0x000023f2:    4602        .F      MOV      r2,r0
        0x000023f4:    9001        ..      STR      r0,[sp,#4]
        0x000023f6:    4865        eH      LDR      r0,[pc,#404] ; [0x258c] = 0x6f6c
        0x000023f8:    f7fefdb8    ....    BL       Draw_pic ; 0xf6c
        0x000023fc:    bf00        ..      NOP      
        0x000023fe:    bf00        ..      NOP      
        0x00002400:    9802        ..      LDR      r0,[sp,#8]
        0x00002402:    0081        ..      LSLS     r1,r0,#2
        0x00002404:    9803        ..      LDR      r0,[sp,#0xc]
        0x00002406:    5840        @X      LDR      r0,[r0,r1]
        0x00002408:    2164        d!      MOVS     r1,#0x64
        0x0000240a:    9000        ..      STR      r0,[sp,#0]
        0x0000240c:    f7fdfe90    ....    BL       __aeabi_uidiv ; 0x130
        0x00002410:    9101        ..      STR      r1,[sp,#4]
        0x00002412:    210a        .!      MOVS     r1,#0xa
        0x00002414:    9801        ..      LDR      r0,[sp,#4]
        0x00002416:    f7fdfe8b    ....    BL       __aeabi_uidiv ; 0x130
        0x0000241a:    0003        ..      MOVS     r3,r0
        0x0000241c:    f7fff9eb    ....    BL       __ARM_common_switch8 ; 0x17f6
    $d
        0x00002420:    1e12060a    ....    DCD    504497674
        0x00002424:    4e42362a    *6BN    DCD    1312962090
        0x00002428:    7e72665a    Zfr~    DCD    2121426522
    $t
        0x0000242c:    210c        .!      MOVS     r1,#0xc
        0x0000242e:    9802        ..      LDR      r0,[sp,#8]
        0x00002430:    4348        HC      MULS     r0,r1,r0
        0x00002432:    b280        ..      UXTH     r0,r0
        0x00002434:    460b        .F      MOV      r3,r1
        0x00002436:    4602        .F      MOV      r2,r0
        0x00002438:    2118        .!      MOVS     r1,#0x18
        0x0000243a:    9001        ..      STR      r0,[sp,#4]
        0x0000243c:    4853        SH      LDR      r0,[pc,#332] ; [0x258c] = 0x6f6c
        0x0000243e:    f7fefd95    ....    BL       Draw_pic ; 0xf6c
        0x00002442:    e077        w.      B        0x2534 ; draw_page3_result + 928
        0x00002444:    210c        .!      MOVS     r1,#0xc
        0x00002446:    9802        ..      LDR      r0,[sp,#8]
        0x00002448:    4348        HC      MULS     r0,r1,r0
        0x0000244a:    b280        ..      UXTH     r0,r0
        0x0000244c:    460b        .F      MOV      r3,r1
        0x0000244e:    4602        .F      MOV      r2,r0
        0x00002450:    2118        .!      MOVS     r1,#0x18
        0x00002452:    9001        ..      STR      r0,[sp,#4]
        0x00002454:    484e        NH      LDR      r0,[pc,#312] ; [0x2590] = 0x654c
        0x00002456:    f7fefd89    ....    BL       Draw_pic ; 0xf6c
        0x0000245a:    e06b        k.      B        0x2534 ; draw_page3_result + 928
        0x0000245c:    210c        .!      MOVS     r1,#0xc
        0x0000245e:    9802        ..      LDR      r0,[sp,#8]
        0x00002460:    4348        HC      MULS     r0,r1,r0
        0x00002462:    b280        ..      UXTH     r0,r0
        0x00002464:    460b        .F      MOV      r3,r1
        0x00002466:    4602        .F      MOV      r2,r0
        0x00002468:    2118        .!      MOVS     r1,#0x18
        0x0000246a:    9001        ..      STR      r0,[sp,#4]
        0x0000246c:    4849        IH      LDR      r0,[pc,#292] ; [0x2594] = 0x666c
        0x0000246e:    f7fefd7d    ..}.    BL       Draw_pic ; 0xf6c
        0x00002472:    e05f        _.      B        0x2534 ; draw_page3_result + 928
        0x00002474:    210c        .!      MOVS     r1,#0xc
        0x00002476:    9802        ..      LDR      r0,[sp,#8]
        0x00002478:    4348        HC      MULS     r0,r1,r0
        0x0000247a:    b280        ..      UXTH     r0,r0
        0x0000247c:    460b        .F      MOV      r3,r1
        0x0000247e:    4602        .F      MOV      r2,r0
        0x00002480:    2118        .!      MOVS     r1,#0x18
        0x00002482:    9001        ..      STR      r0,[sp,#4]
        0x00002484:    4844        DH      LDR      r0,[pc,#272] ; [0x2598] = 0x678c
        0x00002486:    f7fefd71    ..q.    BL       Draw_pic ; 0xf6c
        0x0000248a:    e053        S.      B        0x2534 ; draw_page3_result + 928
        0x0000248c:    210c        .!      MOVS     r1,#0xc
        0x0000248e:    9802        ..      LDR      r0,[sp,#8]
        0x00002490:    4348        HC      MULS     r0,r1,r0
        0x00002492:    b280        ..      UXTH     r0,r0
        0x00002494:    460b        .F      MOV      r3,r1
        0x00002496:    4602        .F      MOV      r2,r0
        0x00002498:    2118        .!      MOVS     r1,#0x18
        0x0000249a:    9001        ..      STR      r0,[sp,#4]
        0x0000249c:    483f        ?H      LDR      r0,[pc,#252] ; [0x259c] = 0x68ac
        0x0000249e:    f7fefd65    ..e.    BL       Draw_pic ; 0xf6c
        0x000024a2:    e047        G.      B        0x2534 ; draw_page3_result + 928
        0x000024a4:    210c        .!      MOVS     r1,#0xc
        0x000024a6:    9802        ..      LDR      r0,[sp,#8]
        0x000024a8:    4348        HC      MULS     r0,r1,r0
        0x000024aa:    b280        ..      UXTH     r0,r0
        0x000024ac:    460b        .F      MOV      r3,r1
        0x000024ae:    4602        .F      MOV      r2,r0
        0x000024b0:    2118        .!      MOVS     r1,#0x18
        0x000024b2:    9001        ..      STR      r0,[sp,#4]
        0x000024b4:    483a        :H      LDR      r0,[pc,#232] ; [0x25a0] = 0x69cc
        0x000024b6:    f7fefd59    ..Y.    BL       Draw_pic ; 0xf6c
        0x000024ba:    e03b        ;.      B        0x2534 ; draw_page3_result + 928
        0x000024bc:    210c        .!      MOVS     r1,#0xc
        0x000024be:    9802        ..      LDR      r0,[sp,#8]
        0x000024c0:    4348        HC      MULS     r0,r1,r0
        0x000024c2:    b280        ..      UXTH     r0,r0
        0x000024c4:    460b        .F      MOV      r3,r1
        0x000024c6:    4602        .F      MOV      r2,r0
        0x000024c8:    2118        .!      MOVS     r1,#0x18
        0x000024ca:    9001        ..      STR      r0,[sp,#4]
        0x000024cc:    4835        5H      LDR      r0,[pc,#212] ; [0x25a4] = 0x6aec
        0x000024ce:    f7fefd4d    ..M.    BL       Draw_pic ; 0xf6c
        0x000024d2:    e02f        /.      B        0x2534 ; draw_page3_result + 928
        0x000024d4:    210c        .!      MOVS     r1,#0xc
        0x000024d6:    9802        ..      LDR      r0,[sp,#8]
        0x000024d8:    4348        HC      MULS     r0,r1,r0
        0x000024da:    b280        ..      UXTH     r0,r0
        0x000024dc:    460b        .F      MOV      r3,r1
        0x000024de:    4602        .F      MOV      r2,r0
        0x000024e0:    2118        .!      MOVS     r1,#0x18
        0x000024e2:    9001        ..      STR      r0,[sp,#4]
        0x000024e4:    4830        0H      LDR      r0,[pc,#192] ; [0x25a8] = 0x6c0c
        0x000024e6:    f7fefd41    ..A.    BL       Draw_pic ; 0xf6c
        0x000024ea:    e023        #.      B        0x2534 ; draw_page3_result + 928
        0x000024ec:    210c        .!      MOVS     r1,#0xc
        0x000024ee:    9802        ..      LDR      r0,[sp,#8]
        0x000024f0:    4348        HC      MULS     r0,r1,r0
        0x000024f2:    b280        ..      UXTH     r0,r0
        0x000024f4:    460b        .F      MOV      r3,r1
        0x000024f6:    4602        .F      MOV      r2,r0
        0x000024f8:    2118        .!      MOVS     r1,#0x18
        0x000024fa:    9001        ..      STR      r0,[sp,#4]
        0x000024fc:    482b        +H      LDR      r0,[pc,#172] ; [0x25ac] = 0x6d2c
        0x000024fe:    f7fefd35    ..5.    BL       Draw_pic ; 0xf6c
        0x00002502:    e017        ..      B        0x2534 ; draw_page3_result + 928
        0x00002504:    210c        .!      MOVS     r1,#0xc
        0x00002506:    9802        ..      LDR      r0,[sp,#8]
        0x00002508:    4348        HC      MULS     r0,r1,r0
        0x0000250a:    b280        ..      UXTH     r0,r0
        0x0000250c:    460b        .F      MOV      r3,r1
        0x0000250e:    4602        .F      MOV      r2,r0
        0x00002510:    2118        .!      MOVS     r1,#0x18
        0x00002512:    9001        ..      STR      r0,[sp,#4]
        0x00002514:    4826        &H      LDR      r0,[pc,#152] ; [0x25b0] = 0x6e4c
        0x00002516:    f7fefd29    ..).    BL       Draw_pic ; 0xf6c
        0x0000251a:    e00b        ..      B        0x2534 ; draw_page3_result + 928
        0x0000251c:    210c        .!      MOVS     r1,#0xc
        0x0000251e:    9802        ..      LDR      r0,[sp,#8]
        0x00002520:    4348        HC      MULS     r0,r1,r0
        0x00002522:    b280        ..      UXTH     r0,r0
        0x00002524:    460b        .F      MOV      r3,r1
        0x00002526:    4602        .F      MOV      r2,r0
        0x00002528:    2118        .!      MOVS     r1,#0x18
        0x0000252a:    9001        ..      STR      r0,[sp,#4]
        0x0000252c:    4817        .H      LDR      r0,[pc,#92] ; [0x258c] = 0x6f6c
        0x0000252e:    f7fefd1d    ....    BL       Draw_pic ; 0xf6c
        0x00002532:    bf00        ..      NOP      
        0x00002534:    bf00        ..      NOP      
        0x00002536:    9802        ..      LDR      r0,[sp,#8]
        0x00002538:    0081        ..      LSLS     r1,r0,#2
        0x0000253a:    9803        ..      LDR      r0,[sp,#0xc]
        0x0000253c:    5840        @X      LDR      r0,[r0,r1]
        0x0000253e:    210a        .!      MOVS     r1,#0xa
        0x00002540:    9001        ..      STR      r0,[sp,#4]
        0x00002542:    f7fdfdf5    ....    BL       __aeabi_uidiv ; 0x130
        0x00002546:    000b        ..      MOVS     r3,r1
        0x00002548:    f7fff955    ..U.    BL       __ARM_common_switch8 ; 0x17f6
    $d
        0x0000254c:    3412060a    ...4    DCD    873596426
        0x00002550:    64584c40    @LXd    DCD    1683508288
        0x00002554:    94887c70    p|..    DCD    2491972720
    $t
        0x00002558:    210c        .!      MOVS     r1,#0xc
        0x0000255a:    9802        ..      LDR      r0,[sp,#8]
        0x0000255c:    4348        HC      MULS     r0,r1,r0
        0x0000255e:    b280        ..      UXTH     r0,r0
        0x00002560:    460b        .F      MOV      r3,r1
        0x00002562:    4602        .F      MOV      r2,r0
        0x00002564:    2124        $!      MOVS     r1,#0x24
        0x00002566:    9001        ..      STR      r0,[sp,#4]
        0x00002568:    4808        .H      LDR      r0,[pc,#32] ; [0x258c] = 0x6f6c
        0x0000256a:    f7fefcff    ....    BL       Draw_pic ; 0xf6c
        0x0000256e:    e08d        ..      B        0x268c ; draw_page3_result + 1272
        0x00002570:    210c        .!      MOVS     r1,#0xc
        0x00002572:    9802        ..      LDR      r0,[sp,#8]
        0x00002574:    4348        HC      MULS     r0,r1,r0
        0x00002576:    b280        ..      UXTH     r0,r0
        0x00002578:    460b        .F      MOV      r3,r1
        0x0000257a:    4602        .F      MOV      r2,r0
        0x0000257c:    2124        $!      MOVS     r1,#0x24
        0x0000257e:    9001        ..      STR      r0,[sp,#4]
        0x00002580:    4803        .H      LDR      r0,[pc,#12] ; [0x2590] = 0x654c
        0x00002582:    f7fefcf3    ....    BL       Draw_pic ; 0xf6c
        0x00002586:    e081        ..      B        0x268c ; draw_page3_result + 1272
    $d
        0x00002588:    0000c350    P...    DCD    50000
        0x0000258c:    00006f6c    lo..    DCD    28524
        0x00002590:    0000654c    Le..    DCD    25932
        0x00002594:    0000666c    lf..    DCD    26220
        0x00002598:    0000678c    .g..    DCD    26508
        0x0000259c:    000068ac    .h..    DCD    26796
        0x000025a0:    000069cc    .i..    DCD    27084
        0x000025a4:    00006aec    .j..    DCD    27372
        0x000025a8:    00006c0c    .l..    DCD    27660
        0x000025ac:    00006d2c    ,m..    DCD    27948
        0x000025b0:    00006e4c    Ln..    DCD    28236
    $t
        0x000025b4:    210c        .!      MOVS     r1,#0xc
        0x000025b6:    9802        ..      LDR      r0,[sp,#8]
        0x000025b8:    4348        HC      MULS     r0,r1,r0
        0x000025ba:    b280        ..      UXTH     r0,r0
        0x000025bc:    460b        .F      MOV      r3,r1
        0x000025be:    4602        .F      MOV      r2,r0
        0x000025c0:    2124        $!      MOVS     r1,#0x24
        0x000025c2:    9001        ..      STR      r0,[sp,#4]
        0x000025c4:    48f7        .H      LDR      r0,[pc,#988] ; [0x29a4] = 0x666c
        0x000025c6:    f7fefcd1    ....    BL       Draw_pic ; 0xf6c
        0x000025ca:    e05f        _.      B        0x268c ; draw_page3_result + 1272
        0x000025cc:    210c        .!      MOVS     r1,#0xc
        0x000025ce:    9802        ..      LDR      r0,[sp,#8]
        0x000025d0:    4348        HC      MULS     r0,r1,r0
        0x000025d2:    b280        ..      UXTH     r0,r0
        0x000025d4:    460b        .F      MOV      r3,r1
        0x000025d6:    4602        .F      MOV      r2,r0
        0x000025d8:    2124        $!      MOVS     r1,#0x24
        0x000025da:    9001        ..      STR      r0,[sp,#4]
        0x000025dc:    48f2        .H      LDR      r0,[pc,#968] ; [0x29a8] = 0x678c
        0x000025de:    f7fefcc5    ....    BL       Draw_pic ; 0xf6c
        0x000025e2:    e053        S.      B        0x268c ; draw_page3_result + 1272
        0x000025e4:    210c        .!      MOVS     r1,#0xc
        0x000025e6:    9802        ..      LDR      r0,[sp,#8]
        0x000025e8:    4348        HC      MULS     r0,r1,r0
        0x000025ea:    b280        ..      UXTH     r0,r0
        0x000025ec:    460b        .F      MOV      r3,r1
        0x000025ee:    4602        .F      MOV      r2,r0
        0x000025f0:    2124        $!      MOVS     r1,#0x24
        0x000025f2:    9001        ..      STR      r0,[sp,#4]
        0x000025f4:    48ed        .H      LDR      r0,[pc,#948] ; [0x29ac] = 0x68ac
        0x000025f6:    f7fefcb9    ....    BL       Draw_pic ; 0xf6c
        0x000025fa:    e047        G.      B        0x268c ; draw_page3_result + 1272
        0x000025fc:    210c        .!      MOVS     r1,#0xc
        0x000025fe:    9802        ..      LDR      r0,[sp,#8]
        0x00002600:    4348        HC      MULS     r0,r1,r0
        0x00002602:    b280        ..      UXTH     r0,r0
        0x00002604:    460b        .F      MOV      r3,r1
        0x00002606:    4602        .F      MOV      r2,r0
        0x00002608:    2124        $!      MOVS     r1,#0x24
        0x0000260a:    9001        ..      STR      r0,[sp,#4]
        0x0000260c:    48e8        .H      LDR      r0,[pc,#928] ; [0x29b0] = 0x69cc
        0x0000260e:    f7fefcad    ....    BL       Draw_pic ; 0xf6c
        0x00002612:    e03b        ;.      B        0x268c ; draw_page3_result + 1272
        0x00002614:    210c        .!      MOVS     r1,#0xc
        0x00002616:    9802        ..      LDR      r0,[sp,#8]
        0x00002618:    4348        HC      MULS     r0,r1,r0
        0x0000261a:    b280        ..      UXTH     r0,r0
        0x0000261c:    460b        .F      MOV      r3,r1
        0x0000261e:    4602        .F      MOV      r2,r0
        0x00002620:    2124        $!      MOVS     r1,#0x24
        0x00002622:    9001        ..      STR      r0,[sp,#4]
        0x00002624:    48e3        .H      LDR      r0,[pc,#908] ; [0x29b4] = 0x6aec
        0x00002626:    f7fefca1    ....    BL       Draw_pic ; 0xf6c
        0x0000262a:    e02f        /.      B        0x268c ; draw_page3_result + 1272
        0x0000262c:    210c        .!      MOVS     r1,#0xc
        0x0000262e:    9802        ..      LDR      r0,[sp,#8]
        0x00002630:    4348        HC      MULS     r0,r1,r0
        0x00002632:    b280        ..      UXTH     r0,r0
        0x00002634:    460b        .F      MOV      r3,r1
        0x00002636:    4602        .F      MOV      r2,r0
        0x00002638:    2124        $!      MOVS     r1,#0x24
        0x0000263a:    9001        ..      STR      r0,[sp,#4]
        0x0000263c:    48de        .H      LDR      r0,[pc,#888] ; [0x29b8] = 0x6c0c
        0x0000263e:    f7fefc95    ....    BL       Draw_pic ; 0xf6c
        0x00002642:    e023        #.      B        0x268c ; draw_page3_result + 1272
        0x00002644:    210c        .!      MOVS     r1,#0xc
        0x00002646:    9802        ..      LDR      r0,[sp,#8]
        0x00002648:    4348        HC      MULS     r0,r1,r0
        0x0000264a:    b280        ..      UXTH     r0,r0
        0x0000264c:    460b        .F      MOV      r3,r1
        0x0000264e:    4602        .F      MOV      r2,r0
        0x00002650:    2124        $!      MOVS     r1,#0x24
        0x00002652:    9001        ..      STR      r0,[sp,#4]
        0x00002654:    48d9        .H      LDR      r0,[pc,#868] ; [0x29bc] = 0x6d2c
        0x00002656:    f7fefc89    ....    BL       Draw_pic ; 0xf6c
        0x0000265a:    e017        ..      B        0x268c ; draw_page3_result + 1272
        0x0000265c:    210c        .!      MOVS     r1,#0xc
        0x0000265e:    9802        ..      LDR      r0,[sp,#8]
        0x00002660:    4348        HC      MULS     r0,r1,r0
        0x00002662:    b280        ..      UXTH     r0,r0
        0x00002664:    460b        .F      MOV      r3,r1
        0x00002666:    4602        .F      MOV      r2,r0
        0x00002668:    2124        $!      MOVS     r1,#0x24
        0x0000266a:    9001        ..      STR      r0,[sp,#4]
        0x0000266c:    48d4        .H      LDR      r0,[pc,#848] ; [0x29c0] = 0x6e4c
        0x0000266e:    f7fefc7d    ..}.    BL       Draw_pic ; 0xf6c
        0x00002672:    e00b        ..      B        0x268c ; draw_page3_result + 1272
        0x00002674:    210c        .!      MOVS     r1,#0xc
        0x00002676:    9802        ..      LDR      r0,[sp,#8]
        0x00002678:    4348        HC      MULS     r0,r1,r0
        0x0000267a:    b280        ..      UXTH     r0,r0
        0x0000267c:    460b        .F      MOV      r3,r1
        0x0000267e:    4602        .F      MOV      r2,r0
        0x00002680:    2124        $!      MOVS     r1,#0x24
        0x00002682:    9001        ..      STR      r0,[sp,#4]
        0x00002684:    48cf        .H      LDR      r0,[pc,#828] ; [0x29c4] = 0x6f6c
        0x00002686:    f7fefc71    ..q.    BL       Draw_pic ; 0xf6c
        0x0000268a:    bf00        ..      NOP      
        0x0000268c:    e2a8        ..      B        0x2be0 ; draw_page3_result + 2636
        0x0000268e:    9802        ..      LDR      r0,[sp,#8]
        0x00002690:    2830        0(      CMP      r0,#0x30
        0x00002692:    dafb        ..      BGE      0x268c ; draw_page3_result + 1272
        0x00002694:    9802        ..      LDR      r0,[sp,#8]
        0x00002696:    0081        ..      LSLS     r1,r0,#2
        0x00002698:    9803        ..      LDR      r0,[sp,#0xc]
        0x0000269a:    5840        @X      LDR      r0,[r0,r1]
        0x0000269c:    217d        }!      MOVS     r1,#0x7d
        0x0000269e:    00c9        ..      LSLS     r1,r1,#3
        0x000026a0:    9001        ..      STR      r0,[sp,#4]
        0x000026a2:    f7fdfd45    ..E.    BL       __aeabi_uidiv ; 0x130
        0x000026a6:    0003        ..      MOVS     r3,r0
        0x000026a8:    f7fff8a5    ....    BL       __ARM_common_switch8 ; 0x17f6
    $d
        0x000026ac:    2013060a    ...     DCD    538117642
        0x000026b0:    54473a2d    -:GT    DCD    1413954093
        0x000026b4:    887b6e61    an{.    DCD    2289790561
    $t
        0x000026b8:    9802        ..      LDR      r0,[sp,#8]
        0x000026ba:    3818        .8      SUBS     r0,r0,#0x18
        0x000026bc:    210c        .!      MOVS     r1,#0xc
        0x000026be:    4348        HC      MULS     r0,r1,r0
        0x000026c0:    b280        ..      UXTH     r0,r0
        0x000026c2:    460b        .F      MOV      r3,r1
        0x000026c4:    4602        .F      MOV      r2,r0
        0x000026c6:    2178        x!      MOVS     r1,#0x78
        0x000026c8:    9001        ..      STR      r0,[sp,#4]
        0x000026ca:    48be        .H      LDR      r0,[pc,#760] ; [0x29c4] = 0x6f6c
        0x000026cc:    f7fefc4e    ..N.    BL       Draw_pic ; 0xf6c
        0x000026d0:    e081        ..      B        0x27d6 ; draw_page3_result + 1602
        0x000026d2:    9802        ..      LDR      r0,[sp,#8]
        0x000026d4:    3818        .8      SUBS     r0,r0,#0x18
        0x000026d6:    210c        .!      MOVS     r1,#0xc
        0x000026d8:    4348        HC      MULS     r0,r1,r0
        0x000026da:    b280        ..      UXTH     r0,r0
        0x000026dc:    460b        .F      MOV      r3,r1
        0x000026de:    4602        .F      MOV      r2,r0
        0x000026e0:    2178        x!      MOVS     r1,#0x78
        0x000026e2:    9001        ..      STR      r0,[sp,#4]
        0x000026e4:    48b8        .H      LDR      r0,[pc,#736] ; [0x29c8] = 0x654c
        0x000026e6:    f7fefc41    ..A.    BL       Draw_pic ; 0xf6c
        0x000026ea:    e074        t.      B        0x27d6 ; draw_page3_result + 1602
        0x000026ec:    9802        ..      LDR      r0,[sp,#8]
        0x000026ee:    3818        .8      SUBS     r0,r0,#0x18
        0x000026f0:    210c        .!      MOVS     r1,#0xc
        0x000026f2:    4348        HC      MULS     r0,r1,r0
        0x000026f4:    b280        ..      UXTH     r0,r0
        0x000026f6:    460b        .F      MOV      r3,r1
        0x000026f8:    4602        .F      MOV      r2,r0
        0x000026fa:    2178        x!      MOVS     r1,#0x78
        0x000026fc:    9001        ..      STR      r0,[sp,#4]
        0x000026fe:    48a9        .H      LDR      r0,[pc,#676] ; [0x29a4] = 0x666c
        0x00002700:    f7fefc34    ..4.    BL       Draw_pic ; 0xf6c
        0x00002704:    e067        g.      B        0x27d6 ; draw_page3_result + 1602
        0x00002706:    9802        ..      LDR      r0,[sp,#8]
        0x00002708:    3818        .8      SUBS     r0,r0,#0x18
        0x0000270a:    210c        .!      MOVS     r1,#0xc
        0x0000270c:    4348        HC      MULS     r0,r1,r0
        0x0000270e:    b280        ..      UXTH     r0,r0
        0x00002710:    460b        .F      MOV      r3,r1
        0x00002712:    4602        .F      MOV      r2,r0
        0x00002714:    2178        x!      MOVS     r1,#0x78
        0x00002716:    9001        ..      STR      r0,[sp,#4]
        0x00002718:    48a3        .H      LDR      r0,[pc,#652] ; [0x29a8] = 0x678c
        0x0000271a:    f7fefc27    ..'.    BL       Draw_pic ; 0xf6c
        0x0000271e:    e05a        Z.      B        0x27d6 ; draw_page3_result + 1602
        0x00002720:    9802        ..      LDR      r0,[sp,#8]
        0x00002722:    3818        .8      SUBS     r0,r0,#0x18
        0x00002724:    210c        .!      MOVS     r1,#0xc
        0x00002726:    4348        HC      MULS     r0,r1,r0
        0x00002728:    b280        ..      UXTH     r0,r0
        0x0000272a:    460b        .F      MOV      r3,r1
        0x0000272c:    4602        .F      MOV      r2,r0
        0x0000272e:    2178        x!      MOVS     r1,#0x78
        0x00002730:    9001        ..      STR      r0,[sp,#4]
        0x00002732:    489e        .H      LDR      r0,[pc,#632] ; [0x29ac] = 0x68ac
        0x00002734:    f7fefc1a    ....    BL       Draw_pic ; 0xf6c
        0x00002738:    e04d        M.      B        0x27d6 ; draw_page3_result + 1602
        0x0000273a:    9802        ..      LDR      r0,[sp,#8]
        0x0000273c:    3818        .8      SUBS     r0,r0,#0x18
        0x0000273e:    210c        .!      MOVS     r1,#0xc
        0x00002740:    4348        HC      MULS     r0,r1,r0
        0x00002742:    b280        ..      UXTH     r0,r0
        0x00002744:    460b        .F      MOV      r3,r1
        0x00002746:    4602        .F      MOV      r2,r0
        0x00002748:    2178        x!      MOVS     r1,#0x78
        0x0000274a:    9001        ..      STR      r0,[sp,#4]
        0x0000274c:    4898        .H      LDR      r0,[pc,#608] ; [0x29b0] = 0x69cc
        0x0000274e:    f7fefc0d    ....    BL       Draw_pic ; 0xf6c
        0x00002752:    e040        @.      B        0x27d6 ; draw_page3_result + 1602
        0x00002754:    9802        ..      LDR      r0,[sp,#8]
        0x00002756:    3818        .8      SUBS     r0,r0,#0x18
        0x00002758:    210c        .!      MOVS     r1,#0xc
        0x0000275a:    4348        HC      MULS     r0,r1,r0
        0x0000275c:    b280        ..      UXTH     r0,r0
        0x0000275e:    460b        .F      MOV      r3,r1
        0x00002760:    4602        .F      MOV      r2,r0
        0x00002762:    2178        x!      MOVS     r1,#0x78
        0x00002764:    9001        ..      STR      r0,[sp,#4]
        0x00002766:    4893        .H      LDR      r0,[pc,#588] ; [0x29b4] = 0x6aec
        0x00002768:    f7fefc00    ....    BL       Draw_pic ; 0xf6c
        0x0000276c:    e033        3.      B        0x27d6 ; draw_page3_result + 1602
        0x0000276e:    9802        ..      LDR      r0,[sp,#8]
        0x00002770:    3818        .8      SUBS     r0,r0,#0x18
        0x00002772:    210c        .!      MOVS     r1,#0xc
        0x00002774:    4348        HC      MULS     r0,r1,r0
        0x00002776:    b280        ..      UXTH     r0,r0
        0x00002778:    460b        .F      MOV      r3,r1
        0x0000277a:    4602        .F      MOV      r2,r0
        0x0000277c:    2178        x!      MOVS     r1,#0x78
        0x0000277e:    9001        ..      STR      r0,[sp,#4]
        0x00002780:    488d        .H      LDR      r0,[pc,#564] ; [0x29b8] = 0x6c0c
        0x00002782:    f7fefbf3    ....    BL       Draw_pic ; 0xf6c
        0x00002786:    e026        &.      B        0x27d6 ; draw_page3_result + 1602
        0x00002788:    9802        ..      LDR      r0,[sp,#8]
        0x0000278a:    3818        .8      SUBS     r0,r0,#0x18
        0x0000278c:    210c        .!      MOVS     r1,#0xc
        0x0000278e:    4348        HC      MULS     r0,r1,r0
        0x00002790:    b280        ..      UXTH     r0,r0
        0x00002792:    460b        .F      MOV      r3,r1
        0x00002794:    4602        .F      MOV      r2,r0
        0x00002796:    2178        x!      MOVS     r1,#0x78
        0x00002798:    9001        ..      STR      r0,[sp,#4]
        0x0000279a:    4888        .H      LDR      r0,[pc,#544] ; [0x29bc] = 0x6d2c
        0x0000279c:    f7fefbe6    ....    BL       Draw_pic ; 0xf6c
        0x000027a0:    e019        ..      B        0x27d6 ; draw_page3_result + 1602
        0x000027a2:    9802        ..      LDR      r0,[sp,#8]
        0x000027a4:    3818        .8      SUBS     r0,r0,#0x18
        0x000027a6:    210c        .!      MOVS     r1,#0xc
        0x000027a8:    4348        HC      MULS     r0,r1,r0
        0x000027aa:    b280        ..      UXTH     r0,r0
        0x000027ac:    460b        .F      MOV      r3,r1
        0x000027ae:    4602        .F      MOV      r2,r0
        0x000027b0:    2178        x!      MOVS     r1,#0x78
        0x000027b2:    9001        ..      STR      r0,[sp,#4]
        0x000027b4:    4882        .H      LDR      r0,[pc,#520] ; [0x29c0] = 0x6e4c
        0x000027b6:    f7fefbd9    ....    BL       Draw_pic ; 0xf6c
        0x000027ba:    e00c        ..      B        0x27d6 ; draw_page3_result + 1602
        0x000027bc:    9802        ..      LDR      r0,[sp,#8]
        0x000027be:    3818        .8      SUBS     r0,r0,#0x18
        0x000027c0:    210c        .!      MOVS     r1,#0xc
        0x000027c2:    4348        HC      MULS     r0,r1,r0
        0x000027c4:    b280        ..      UXTH     r0,r0
        0x000027c6:    460b        .F      MOV      r3,r1
        0x000027c8:    4602        .F      MOV      r2,r0
        0x000027ca:    2178        x!      MOVS     r1,#0x78
        0x000027cc:    9001        ..      STR      r0,[sp,#4]
        0x000027ce:    487d        }H      LDR      r0,[pc,#500] ; [0x29c4] = 0x6f6c
        0x000027d0:    f7fefbcc    ....    BL       Draw_pic ; 0xf6c
        0x000027d4:    bf00        ..      NOP      
        0x000027d6:    bf00        ..      NOP      
        0x000027d8:    9802        ..      LDR      r0,[sp,#8]
        0x000027da:    0081        ..      LSLS     r1,r0,#2
        0x000027dc:    9803        ..      LDR      r0,[sp,#0xc]
        0x000027de:    5840        @X      LDR      r0,[r0,r1]
        0x000027e0:    217d        }!      MOVS     r1,#0x7d
        0x000027e2:    00c9        ..      LSLS     r1,r1,#3
        0x000027e4:    9000        ..      STR      r0,[sp,#0]
        0x000027e6:    f7fdfca3    ....    BL       __aeabi_uidiv ; 0x130
        0x000027ea:    9101        ..      STR      r1,[sp,#4]
        0x000027ec:    2164        d!      MOVS     r1,#0x64
        0x000027ee:    9801        ..      LDR      r0,[sp,#4]
        0x000027f0:    f7fdfc9e    ....    BL       __aeabi_uidiv ; 0x130
        0x000027f4:    0003        ..      MOVS     r3,r0
        0x000027f6:    f7fefffe    ....    BL       __ARM_common_switch8 ; 0x17f6
    $d
        0x000027fa:    060a        ..      DCW    1546
        0x000027fc:    3a2d2013    . -:    DCD    976035859
        0x00002800:    6e615447    GTan    DCD    1851872327
        0x00002804:    887b        {.      DCW    34939
    $t
        0x00002806:    9802        ..      LDR      r0,[sp,#8]
        0x00002808:    3818        .8      SUBS     r0,r0,#0x18
        0x0000280a:    210c        .!      MOVS     r1,#0xc
        0x0000280c:    4348        HC      MULS     r0,r1,r0
        0x0000280e:    b280        ..      UXTH     r0,r0
        0x00002810:    460b        .F      MOV      r3,r1
        0x00002812:    4602        .F      MOV      r2,r0
        0x00002814:    2184        .!      MOVS     r1,#0x84
        0x00002816:    9001        ..      STR      r0,[sp,#4]
        0x00002818:    486a        jH      LDR      r0,[pc,#424] ; [0x29c4] = 0x6f6c
        0x0000281a:    f7fefba7    ....    BL       Draw_pic ; 0xf6c
        0x0000281e:    e081        ..      B        0x2924 ; draw_page3_result + 1936
        0x00002820:    9802        ..      LDR      r0,[sp,#8]
        0x00002822:    3818        .8      SUBS     r0,r0,#0x18
        0x00002824:    210c        .!      MOVS     r1,#0xc
        0x00002826:    4348        HC      MULS     r0,r1,r0
        0x00002828:    b280        ..      UXTH     r0,r0
        0x0000282a:    460b        .F      MOV      r3,r1
        0x0000282c:    4602        .F      MOV      r2,r0
        0x0000282e:    2184        .!      MOVS     r1,#0x84
        0x00002830:    9001        ..      STR      r0,[sp,#4]
        0x00002832:    4865        eH      LDR      r0,[pc,#404] ; [0x29c8] = 0x654c
        0x00002834:    f7fefb9a    ....    BL       Draw_pic ; 0xf6c
        0x00002838:    e074        t.      B        0x2924 ; draw_page3_result + 1936
        0x0000283a:    9802        ..      LDR      r0,[sp,#8]
        0x0000283c:    3818        .8      SUBS     r0,r0,#0x18
        0x0000283e:    210c        .!      MOVS     r1,#0xc
        0x00002840:    4348        HC      MULS     r0,r1,r0
        0x00002842:    b280        ..      UXTH     r0,r0
        0x00002844:    460b        .F      MOV      r3,r1
        0x00002846:    4602        .F      MOV      r2,r0
        0x00002848:    2184        .!      MOVS     r1,#0x84
        0x0000284a:    9001        ..      STR      r0,[sp,#4]
        0x0000284c:    4855        UH      LDR      r0,[pc,#340] ; [0x29a4] = 0x666c
        0x0000284e:    f7fefb8d    ....    BL       Draw_pic ; 0xf6c
        0x00002852:    e067        g.      B        0x2924 ; draw_page3_result + 1936
        0x00002854:    9802        ..      LDR      r0,[sp,#8]
        0x00002856:    3818        .8      SUBS     r0,r0,#0x18
        0x00002858:    210c        .!      MOVS     r1,#0xc
        0x0000285a:    4348        HC      MULS     r0,r1,r0
        0x0000285c:    b280        ..      UXTH     r0,r0
        0x0000285e:    460b        .F      MOV      r3,r1
        0x00002860:    4602        .F      MOV      r2,r0
        0x00002862:    2184        .!      MOVS     r1,#0x84
        0x00002864:    9001        ..      STR      r0,[sp,#4]
        0x00002866:    4850        PH      LDR      r0,[pc,#320] ; [0x29a8] = 0x678c
        0x00002868:    f7fefb80    ....    BL       Draw_pic ; 0xf6c
        0x0000286c:    e05a        Z.      B        0x2924 ; draw_page3_result + 1936
        0x0000286e:    9802        ..      LDR      r0,[sp,#8]
        0x00002870:    3818        .8      SUBS     r0,r0,#0x18
        0x00002872:    210c        .!      MOVS     r1,#0xc
        0x00002874:    4348        HC      MULS     r0,r1,r0
        0x00002876:    b280        ..      UXTH     r0,r0
        0x00002878:    460b        .F      MOV      r3,r1
        0x0000287a:    4602        .F      MOV      r2,r0
        0x0000287c:    2184        .!      MOVS     r1,#0x84
        0x0000287e:    9001        ..      STR      r0,[sp,#4]
        0x00002880:    484a        JH      LDR      r0,[pc,#296] ; [0x29ac] = 0x68ac
        0x00002882:    f7fefb73    ..s.    BL       Draw_pic ; 0xf6c
        0x00002886:    e04d        M.      B        0x2924 ; draw_page3_result + 1936
        0x00002888:    9802        ..      LDR      r0,[sp,#8]
        0x0000288a:    3818        .8      SUBS     r0,r0,#0x18
        0x0000288c:    210c        .!      MOVS     r1,#0xc
        0x0000288e:    4348        HC      MULS     r0,r1,r0
        0x00002890:    b280        ..      UXTH     r0,r0
        0x00002892:    460b        .F      MOV      r3,r1
        0x00002894:    4602        .F      MOV      r2,r0
        0x00002896:    2184        .!      MOVS     r1,#0x84
        0x00002898:    9001        ..      STR      r0,[sp,#4]
        0x0000289a:    4845        EH      LDR      r0,[pc,#276] ; [0x29b0] = 0x69cc
        0x0000289c:    f7fefb66    ..f.    BL       Draw_pic ; 0xf6c
        0x000028a0:    e040        @.      B        0x2924 ; draw_page3_result + 1936
        0x000028a2:    9802        ..      LDR      r0,[sp,#8]
        0x000028a4:    3818        .8      SUBS     r0,r0,#0x18
        0x000028a6:    210c        .!      MOVS     r1,#0xc
        0x000028a8:    4348        HC      MULS     r0,r1,r0
        0x000028aa:    b280        ..      UXTH     r0,r0
        0x000028ac:    460b        .F      MOV      r3,r1
        0x000028ae:    4602        .F      MOV      r2,r0
        0x000028b0:    2184        .!      MOVS     r1,#0x84
        0x000028b2:    9001        ..      STR      r0,[sp,#4]
        0x000028b4:    483f        ?H      LDR      r0,[pc,#252] ; [0x29b4] = 0x6aec
        0x000028b6:    f7fefb59    ..Y.    BL       Draw_pic ; 0xf6c
        0x000028ba:    e033        3.      B        0x2924 ; draw_page3_result + 1936
        0x000028bc:    9802        ..      LDR      r0,[sp,#8]
        0x000028be:    3818        .8      SUBS     r0,r0,#0x18
        0x000028c0:    210c        .!      MOVS     r1,#0xc
        0x000028c2:    4348        HC      MULS     r0,r1,r0
        0x000028c4:    b280        ..      UXTH     r0,r0
        0x000028c6:    460b        .F      MOV      r3,r1
        0x000028c8:    4602        .F      MOV      r2,r0
        0x000028ca:    2184        .!      MOVS     r1,#0x84
        0x000028cc:    9001        ..      STR      r0,[sp,#4]
        0x000028ce:    483a        :H      LDR      r0,[pc,#232] ; [0x29b8] = 0x6c0c
        0x000028d0:    f7fefb4c    ..L.    BL       Draw_pic ; 0xf6c
        0x000028d4:    e026        &.      B        0x2924 ; draw_page3_result + 1936
        0x000028d6:    9802        ..      LDR      r0,[sp,#8]
        0x000028d8:    3818        .8      SUBS     r0,r0,#0x18
        0x000028da:    210c        .!      MOVS     r1,#0xc
        0x000028dc:    4348        HC      MULS     r0,r1,r0
        0x000028de:    b280        ..      UXTH     r0,r0
        0x000028e0:    460b        .F      MOV      r3,r1
        0x000028e2:    4602        .F      MOV      r2,r0
        0x000028e4:    2184        .!      MOVS     r1,#0x84
        0x000028e6:    9001        ..      STR      r0,[sp,#4]
        0x000028e8:    4834        4H      LDR      r0,[pc,#208] ; [0x29bc] = 0x6d2c
        0x000028ea:    f7fefb3f    ..?.    BL       Draw_pic ; 0xf6c
        0x000028ee:    e019        ..      B        0x2924 ; draw_page3_result + 1936
        0x000028f0:    9802        ..      LDR      r0,[sp,#8]
        0x000028f2:    3818        .8      SUBS     r0,r0,#0x18
        0x000028f4:    210c        .!      MOVS     r1,#0xc
        0x000028f6:    4348        HC      MULS     r0,r1,r0
        0x000028f8:    b280        ..      UXTH     r0,r0
        0x000028fa:    460b        .F      MOV      r3,r1
        0x000028fc:    4602        .F      MOV      r2,r0
        0x000028fe:    2184        .!      MOVS     r1,#0x84
        0x00002900:    9001        ..      STR      r0,[sp,#4]
        0x00002902:    482f        /H      LDR      r0,[pc,#188] ; [0x29c0] = 0x6e4c
        0x00002904:    f7fefb32    ..2.    BL       Draw_pic ; 0xf6c
        0x00002908:    e00c        ..      B        0x2924 ; draw_page3_result + 1936
        0x0000290a:    9802        ..      LDR      r0,[sp,#8]
        0x0000290c:    3818        .8      SUBS     r0,r0,#0x18
        0x0000290e:    210c        .!      MOVS     r1,#0xc
        0x00002910:    4348        HC      MULS     r0,r1,r0
        0x00002912:    b280        ..      UXTH     r0,r0
        0x00002914:    460b        .F      MOV      r3,r1
        0x00002916:    4602        .F      MOV      r2,r0
        0x00002918:    2184        .!      MOVS     r1,#0x84
        0x0000291a:    9001        ..      STR      r0,[sp,#4]
        0x0000291c:    4829        )H      LDR      r0,[pc,#164] ; [0x29c4] = 0x6f6c
        0x0000291e:    f7fefb25    ..%.    BL       Draw_pic ; 0xf6c
        0x00002922:    bf00        ..      NOP      
        0x00002924:    bf00        ..      NOP      
        0x00002926:    9802        ..      LDR      r0,[sp,#8]
        0x00002928:    0081        ..      LSLS     r1,r0,#2
        0x0000292a:    9803        ..      LDR      r0,[sp,#0xc]
        0x0000292c:    5840        @X      LDR      r0,[r0,r1]
        0x0000292e:    2164        d!      MOVS     r1,#0x64
        0x00002930:    9000        ..      STR      r0,[sp,#0]
        0x00002932:    f7fdfbfd    ....    BL       __aeabi_uidiv ; 0x130
        0x00002936:    9101        ..      STR      r1,[sp,#4]
        0x00002938:    210a        .!      MOVS     r1,#0xa
        0x0000293a:    9801        ..      LDR      r0,[sp,#4]
        0x0000293c:    f7fdfbf8    ....    BL       __aeabi_uidiv ; 0x130
        0x00002940:    0003        ..      MOVS     r3,r0
        0x00002942:    f7feff58    ..X.    BL       __ARM_common_switch8 ; 0x17f6
    $d
        0x00002946:    060a        ..      DCW    1546
        0x00002948:    50432113    .!CP    DCD    1346576659
        0x0000294c:    84776a5d    ]jw.    DCD    2222418525
        0x00002950:    9e91        ..      DCW    40593
    $t
        0x00002952:    9802        ..      LDR      r0,[sp,#8]
        0x00002954:    3818        .8      SUBS     r0,r0,#0x18
        0x00002956:    210c        .!      MOVS     r1,#0xc
        0x00002958:    4348        HC      MULS     r0,r1,r0
        0x0000295a:    b280        ..      UXTH     r0,r0
        0x0000295c:    460b        .F      MOV      r3,r1
        0x0000295e:    4602        .F      MOV      r2,r0
        0x00002960:    2190        .!      MOVS     r1,#0x90
        0x00002962:    9001        ..      STR      r0,[sp,#4]
        0x00002964:    4817        .H      LDR      r0,[pc,#92] ; [0x29c4] = 0x6f6c
        0x00002966:    f7fefb01    ....    BL       Draw_pic ; 0xf6c
        0x0000296a:    e097        ..      B        0x2a9c ; draw_page3_result + 2312
        0x0000296c:    9802        ..      LDR      r0,[sp,#8]
        0x0000296e:    3818        .8      SUBS     r0,r0,#0x18
        0x00002970:    210c        .!      MOVS     r1,#0xc
        0x00002972:    4348        HC      MULS     r0,r1,r0
        0x00002974:    b280        ..      UXTH     r0,r0
        0x00002976:    460b        .F      MOV      r3,r1
        0x00002978:    4602        .F      MOV      r2,r0
        0x0000297a:    2190        .!      MOVS     r1,#0x90
        0x0000297c:    9001        ..      STR      r0,[sp,#4]
        0x0000297e:    4812        .H      LDR      r0,[pc,#72] ; [0x29c8] = 0x654c
        0x00002980:    f7fefaf4    ....    BL       Draw_pic ; 0xf6c
        0x00002984:    e08a        ..      B        0x2a9c ; draw_page3_result + 2312
        0x00002986:    e12f        /.      B        0x2be8 ; draw_page3_result + 2644
        0x00002988:    9802        ..      LDR      r0,[sp,#8]
        0x0000298a:    3818        .8      SUBS     r0,r0,#0x18
        0x0000298c:    210c        .!      MOVS     r1,#0xc
        0x0000298e:    4348        HC      MULS     r0,r1,r0
        0x00002990:    b280        ..      UXTH     r0,r0
        0x00002992:    460b        .F      MOV      r3,r1
        0x00002994:    4602        .F      MOV      r2,r0
        0x00002996:    2190        .!      MOVS     r1,#0x90
        0x00002998:    9001        ..      STR      r0,[sp,#4]
        0x0000299a:    4802        .H      LDR      r0,[pc,#8] ; [0x29a4] = 0x666c
        0x0000299c:    f7fefae6    ....    BL       Draw_pic ; 0xf6c
        0x000029a0:    e07c        |.      B        0x2a9c ; draw_page3_result + 2312
    $d
        0x000029a2:    0000        ..      DCW    0
        0x000029a4:    0000666c    lf..    DCD    26220
        0x000029a8:    0000678c    .g..    DCD    26508
        0x000029ac:    000068ac    .h..    DCD    26796
        0x000029b0:    000069cc    .i..    DCD    27084
        0x000029b4:    00006aec    .j..    DCD    27372
        0x000029b8:    00006c0c    .l..    DCD    27660
        0x000029bc:    00006d2c    ,m..    DCD    27948
        0x000029c0:    00006e4c    Ln..    DCD    28236
        0x000029c4:    00006f6c    lo..    DCD    28524
        0x000029c8:    0000654c    Le..    DCD    25932
    $t
        0x000029cc:    9802        ..      LDR      r0,[sp,#8]
        0x000029ce:    3818        .8      SUBS     r0,r0,#0x18
        0x000029d0:    210c        .!      MOVS     r1,#0xc
        0x000029d2:    4348        HC      MULS     r0,r1,r0
        0x000029d4:    b280        ..      UXTH     r0,r0
        0x000029d6:    460b        .F      MOV      r3,r1
        0x000029d8:    4602        .F      MOV      r2,r0
        0x000029da:    2190        .!      MOVS     r1,#0x90
        0x000029dc:    9001        ..      STR      r0,[sp,#4]
        0x000029de:    4886        .H      LDR      r0,[pc,#536] ; [0x2bf8] = 0x678c
        0x000029e0:    f7fefac4    ....    BL       Draw_pic ; 0xf6c
        0x000029e4:    e05a        Z.      B        0x2a9c ; draw_page3_result + 2312
        0x000029e6:    9802        ..      LDR      r0,[sp,#8]
        0x000029e8:    3818        .8      SUBS     r0,r0,#0x18
        0x000029ea:    210c        .!      MOVS     r1,#0xc
        0x000029ec:    4348        HC      MULS     r0,r1,r0
        0x000029ee:    b280        ..      UXTH     r0,r0
        0x000029f0:    460b        .F      MOV      r3,r1
        0x000029f2:    4602        .F      MOV      r2,r0
        0x000029f4:    2190        .!      MOVS     r1,#0x90
        0x000029f6:    9001        ..      STR      r0,[sp,#4]
        0x000029f8:    4880        .H      LDR      r0,[pc,#512] ; [0x2bfc] = 0x68ac
        0x000029fa:    f7fefab7    ....    BL       Draw_pic ; 0xf6c
        0x000029fe:    e04d        M.      B        0x2a9c ; draw_page3_result + 2312
        0x00002a00:    9802        ..      LDR      r0,[sp,#8]
        0x00002a02:    3818        .8      SUBS     r0,r0,#0x18
        0x00002a04:    210c        .!      MOVS     r1,#0xc
        0x00002a06:    4348        HC      MULS     r0,r1,r0
        0x00002a08:    b280        ..      UXTH     r0,r0
        0x00002a0a:    460b        .F      MOV      r3,r1
        0x00002a0c:    4602        .F      MOV      r2,r0
        0x00002a0e:    2190        .!      MOVS     r1,#0x90
        0x00002a10:    9001        ..      STR      r0,[sp,#4]
        0x00002a12:    487b        {H      LDR      r0,[pc,#492] ; [0x2c00] = 0x69cc
        0x00002a14:    f7fefaaa    ....    BL       Draw_pic ; 0xf6c
        0x00002a18:    e040        @.      B        0x2a9c ; draw_page3_result + 2312
        0x00002a1a:    9802        ..      LDR      r0,[sp,#8]
        0x00002a1c:    3818        .8      SUBS     r0,r0,#0x18
        0x00002a1e:    210c        .!      MOVS     r1,#0xc
        0x00002a20:    4348        HC      MULS     r0,r1,r0
        0x00002a22:    b280        ..      UXTH     r0,r0
        0x00002a24:    460b        .F      MOV      r3,r1
        0x00002a26:    4602        .F      MOV      r2,r0
        0x00002a28:    2190        .!      MOVS     r1,#0x90
        0x00002a2a:    9001        ..      STR      r0,[sp,#4]
        0x00002a2c:    4875        uH      LDR      r0,[pc,#468] ; [0x2c04] = 0x6aec
        0x00002a2e:    f7fefa9d    ....    BL       Draw_pic ; 0xf6c
        0x00002a32:    e033        3.      B        0x2a9c ; draw_page3_result + 2312
        0x00002a34:    9802        ..      LDR      r0,[sp,#8]
        0x00002a36:    3818        .8      SUBS     r0,r0,#0x18
        0x00002a38:    210c        .!      MOVS     r1,#0xc
        0x00002a3a:    4348        HC      MULS     r0,r1,r0
        0x00002a3c:    b280        ..      UXTH     r0,r0
        0x00002a3e:    460b        .F      MOV      r3,r1
        0x00002a40:    4602        .F      MOV      r2,r0
        0x00002a42:    2190        .!      MOVS     r1,#0x90
        0x00002a44:    9001        ..      STR      r0,[sp,#4]
        0x00002a46:    4870        pH      LDR      r0,[pc,#448] ; [0x2c08] = 0x6c0c
        0x00002a48:    f7fefa90    ....    BL       Draw_pic ; 0xf6c
        0x00002a4c:    e026        &.      B        0x2a9c ; draw_page3_result + 2312
        0x00002a4e:    9802        ..      LDR      r0,[sp,#8]
        0x00002a50:    3818        .8      SUBS     r0,r0,#0x18
        0x00002a52:    210c        .!      MOVS     r1,#0xc
        0x00002a54:    4348        HC      MULS     r0,r1,r0
        0x00002a56:    b280        ..      UXTH     r0,r0
        0x00002a58:    460b        .F      MOV      r3,r1
        0x00002a5a:    4602        .F      MOV      r2,r0
        0x00002a5c:    2190        .!      MOVS     r1,#0x90
        0x00002a5e:    9001        ..      STR      r0,[sp,#4]
        0x00002a60:    486a        jH      LDR      r0,[pc,#424] ; [0x2c0c] = 0x6d2c
        0x00002a62:    f7fefa83    ....    BL       Draw_pic ; 0xf6c
        0x00002a66:    e019        ..      B        0x2a9c ; draw_page3_result + 2312
        0x00002a68:    9802        ..      LDR      r0,[sp,#8]
        0x00002a6a:    3818        .8      SUBS     r0,r0,#0x18
        0x00002a6c:    210c        .!      MOVS     r1,#0xc
        0x00002a6e:    4348        HC      MULS     r0,r1,r0
        0x00002a70:    b280        ..      UXTH     r0,r0
        0x00002a72:    460b        .F      MOV      r3,r1
        0x00002a74:    4602        .F      MOV      r2,r0
        0x00002a76:    2190        .!      MOVS     r1,#0x90
        0x00002a78:    9001        ..      STR      r0,[sp,#4]
        0x00002a7a:    4865        eH      LDR      r0,[pc,#404] ; [0x2c10] = 0x6e4c
        0x00002a7c:    f7fefa76    ..v.    BL       Draw_pic ; 0xf6c
        0x00002a80:    e00c        ..      B        0x2a9c ; draw_page3_result + 2312
        0x00002a82:    9802        ..      LDR      r0,[sp,#8]
        0x00002a84:    3818        .8      SUBS     r0,r0,#0x18
        0x00002a86:    210c        .!      MOVS     r1,#0xc
        0x00002a88:    4348        HC      MULS     r0,r1,r0
        0x00002a8a:    b280        ..      UXTH     r0,r0
        0x00002a8c:    460b        .F      MOV      r3,r1
        0x00002a8e:    4602        .F      MOV      r2,r0
        0x00002a90:    2190        .!      MOVS     r1,#0x90
        0x00002a92:    9001        ..      STR      r0,[sp,#4]
        0x00002a94:    485f        _H      LDR      r0,[pc,#380] ; [0x2c14] = 0x6f6c
        0x00002a96:    f7fefa69    ..i.    BL       Draw_pic ; 0xf6c
        0x00002a9a:    bf00        ..      NOP      
        0x00002a9c:    bf00        ..      NOP      
        0x00002a9e:    9802        ..      LDR      r0,[sp,#8]
        0x00002aa0:    0081        ..      LSLS     r1,r0,#2
        0x00002aa2:    9803        ..      LDR      r0,[sp,#0xc]
        0x00002aa4:    5840        @X      LDR      r0,[r0,r1]
        0x00002aa6:    210a        .!      MOVS     r1,#0xa
        0x00002aa8:    9001        ..      STR      r0,[sp,#4]
        0x00002aaa:    f7fdfb41    ..A.    BL       __aeabi_uidiv ; 0x130
        0x00002aae:    000b        ..      MOVS     r3,r1
        0x00002ab0:    f7fefea1    ....    BL       __ARM_common_switch8 ; 0x17f6
    $d
        0x00002ab4:    2013060a    ...     DCD    538117642
        0x00002ab8:    54473a2d    -:GT    DCD    1413954093
        0x00002abc:    887b6e61    an{.    DCD    2289790561
    $t
        0x00002ac0:    9802        ..      LDR      r0,[sp,#8]
        0x00002ac2:    3818        .8      SUBS     r0,r0,#0x18
        0x00002ac4:    210c        .!      MOVS     r1,#0xc
        0x00002ac6:    4348        HC      MULS     r0,r1,r0
        0x00002ac8:    b280        ..      UXTH     r0,r0
        0x00002aca:    460b        .F      MOV      r3,r1
        0x00002acc:    4602        .F      MOV      r2,r0
        0x00002ace:    219c        .!      MOVS     r1,#0x9c
        0x00002ad0:    9001        ..      STR      r0,[sp,#4]
        0x00002ad2:    4850        PH      LDR      r0,[pc,#320] ; [0x2c14] = 0x6f6c
        0x00002ad4:    f7fefa4a    ..J.    BL       Draw_pic ; 0xf6c
        0x00002ad8:    e081        ..      B        0x2bde ; draw_page3_result + 2634
        0x00002ada:    9802        ..      LDR      r0,[sp,#8]
        0x00002adc:    3818        .8      SUBS     r0,r0,#0x18
        0x00002ade:    210c        .!      MOVS     r1,#0xc
        0x00002ae0:    4348        HC      MULS     r0,r1,r0
        0x00002ae2:    b280        ..      UXTH     r0,r0
        0x00002ae4:    460b        .F      MOV      r3,r1
        0x00002ae6:    4602        .F      MOV      r2,r0
        0x00002ae8:    219c        .!      MOVS     r1,#0x9c
        0x00002aea:    9001        ..      STR      r0,[sp,#4]
        0x00002aec:    484a        JH      LDR      r0,[pc,#296] ; [0x2c18] = 0x654c
        0x00002aee:    f7fefa3d    ..=.    BL       Draw_pic ; 0xf6c
        0x00002af2:    e074        t.      B        0x2bde ; draw_page3_result + 2634
        0x00002af4:    9802        ..      LDR      r0,[sp,#8]
        0x00002af6:    3818        .8      SUBS     r0,r0,#0x18
        0x00002af8:    210c        .!      MOVS     r1,#0xc
        0x00002afa:    4348        HC      MULS     r0,r1,r0
        0x00002afc:    b280        ..      UXTH     r0,r0
        0x00002afe:    460b        .F      MOV      r3,r1
        0x00002b00:    4602        .F      MOV      r2,r0
        0x00002b02:    219c        .!      MOVS     r1,#0x9c
        0x00002b04:    9001        ..      STR      r0,[sp,#4]
        0x00002b06:    4845        EH      LDR      r0,[pc,#276] ; [0x2c1c] = 0x666c
        0x00002b08:    f7fefa30    ..0.    BL       Draw_pic ; 0xf6c
        0x00002b0c:    e067        g.      B        0x2bde ; draw_page3_result + 2634
        0x00002b0e:    9802        ..      LDR      r0,[sp,#8]
        0x00002b10:    3818        .8      SUBS     r0,r0,#0x18
        0x00002b12:    210c        .!      MOVS     r1,#0xc
        0x00002b14:    4348        HC      MULS     r0,r1,r0
        0x00002b16:    b280        ..      UXTH     r0,r0
        0x00002b18:    460b        .F      MOV      r3,r1
        0x00002b1a:    4602        .F      MOV      r2,r0
        0x00002b1c:    219c        .!      MOVS     r1,#0x9c
        0x00002b1e:    9001        ..      STR      r0,[sp,#4]
        0x00002b20:    4835        5H      LDR      r0,[pc,#212] ; [0x2bf8] = 0x678c
        0x00002b22:    f7fefa23    ..#.    BL       Draw_pic ; 0xf6c
        0x00002b26:    e05a        Z.      B        0x2bde ; draw_page3_result + 2634
        0x00002b28:    9802        ..      LDR      r0,[sp,#8]
        0x00002b2a:    3818        .8      SUBS     r0,r0,#0x18
        0x00002b2c:    210c        .!      MOVS     r1,#0xc
        0x00002b2e:    4348        HC      MULS     r0,r1,r0
        0x00002b30:    b280        ..      UXTH     r0,r0
        0x00002b32:    460b        .F      MOV      r3,r1
        0x00002b34:    4602        .F      MOV      r2,r0
        0x00002b36:    219c        .!      MOVS     r1,#0x9c
        0x00002b38:    9001        ..      STR      r0,[sp,#4]
        0x00002b3a:    4830        0H      LDR      r0,[pc,#192] ; [0x2bfc] = 0x68ac
        0x00002b3c:    f7fefa16    ....    BL       Draw_pic ; 0xf6c
        0x00002b40:    e04d        M.      B        0x2bde ; draw_page3_result + 2634
        0x00002b42:    9802        ..      LDR      r0,[sp,#8]
        0x00002b44:    3818        .8      SUBS     r0,r0,#0x18
        0x00002b46:    210c        .!      MOVS     r1,#0xc
        0x00002b48:    4348        HC      MULS     r0,r1,r0
        0x00002b4a:    b280        ..      UXTH     r0,r0
        0x00002b4c:    460b        .F      MOV      r3,r1
        0x00002b4e:    4602        .F      MOV      r2,r0
        0x00002b50:    219c        .!      MOVS     r1,#0x9c
        0x00002b52:    9001        ..      STR      r0,[sp,#4]
        0x00002b54:    482a        *H      LDR      r0,[pc,#168] ; [0x2c00] = 0x69cc
        0x00002b56:    f7fefa09    ....    BL       Draw_pic ; 0xf6c
        0x00002b5a:    e040        @.      B        0x2bde ; draw_page3_result + 2634
        0x00002b5c:    9802        ..      LDR      r0,[sp,#8]
        0x00002b5e:    3818        .8      SUBS     r0,r0,#0x18
        0x00002b60:    210c        .!      MOVS     r1,#0xc
        0x00002b62:    4348        HC      MULS     r0,r1,r0
        0x00002b64:    b280        ..      UXTH     r0,r0
        0x00002b66:    460b        .F      MOV      r3,r1
        0x00002b68:    4602        .F      MOV      r2,r0
        0x00002b6a:    219c        .!      MOVS     r1,#0x9c
        0x00002b6c:    9001        ..      STR      r0,[sp,#4]
        0x00002b6e:    4825        %H      LDR      r0,[pc,#148] ; [0x2c04] = 0x6aec
        0x00002b70:    f7fef9fc    ....    BL       Draw_pic ; 0xf6c
        0x00002b74:    e033        3.      B        0x2bde ; draw_page3_result + 2634
        0x00002b76:    9802        ..      LDR      r0,[sp,#8]
        0x00002b78:    3818        .8      SUBS     r0,r0,#0x18
        0x00002b7a:    210c        .!      MOVS     r1,#0xc
        0x00002b7c:    4348        HC      MULS     r0,r1,r0
        0x00002b7e:    b280        ..      UXTH     r0,r0
        0x00002b80:    460b        .F      MOV      r3,r1
        0x00002b82:    4602        .F      MOV      r2,r0
        0x00002b84:    219c        .!      MOVS     r1,#0x9c
        0x00002b86:    9001        ..      STR      r0,[sp,#4]
        0x00002b88:    481f        .H      LDR      r0,[pc,#124] ; [0x2c08] = 0x6c0c
        0x00002b8a:    f7fef9ef    ....    BL       Draw_pic ; 0xf6c
        0x00002b8e:    e026        &.      B        0x2bde ; draw_page3_result + 2634
        0x00002b90:    9802        ..      LDR      r0,[sp,#8]
        0x00002b92:    3818        .8      SUBS     r0,r0,#0x18
        0x00002b94:    210c        .!      MOVS     r1,#0xc
        0x00002b96:    4348        HC      MULS     r0,r1,r0
        0x00002b98:    b280        ..      UXTH     r0,r0
        0x00002b9a:    460b        .F      MOV      r3,r1
        0x00002b9c:    4602        .F      MOV      r2,r0
        0x00002b9e:    219c        .!      MOVS     r1,#0x9c
        0x00002ba0:    9001        ..      STR      r0,[sp,#4]
        0x00002ba2:    481a        .H      LDR      r0,[pc,#104] ; [0x2c0c] = 0x6d2c
        0x00002ba4:    f7fef9e2    ....    BL       Draw_pic ; 0xf6c
        0x00002ba8:    e019        ..      B        0x2bde ; draw_page3_result + 2634
        0x00002baa:    9802        ..      LDR      r0,[sp,#8]
        0x00002bac:    3818        .8      SUBS     r0,r0,#0x18
        0x00002bae:    210c        .!      MOVS     r1,#0xc
        0x00002bb0:    4348        HC      MULS     r0,r1,r0
        0x00002bb2:    b280        ..      UXTH     r0,r0
        0x00002bb4:    460b        .F      MOV      r3,r1
        0x00002bb6:    4602        .F      MOV      r2,r0
        0x00002bb8:    219c        .!      MOVS     r1,#0x9c
        0x00002bba:    9001        ..      STR      r0,[sp,#4]
        0x00002bbc:    4814        .H      LDR      r0,[pc,#80] ; [0x2c10] = 0x6e4c
        0x00002bbe:    f7fef9d5    ....    BL       Draw_pic ; 0xf6c
        0x00002bc2:    e00c        ..      B        0x2bde ; draw_page3_result + 2634
        0x00002bc4:    9802        ..      LDR      r0,[sp,#8]
        0x00002bc6:    3818        .8      SUBS     r0,r0,#0x18
        0x00002bc8:    210c        .!      MOVS     r1,#0xc
        0x00002bca:    4348        HC      MULS     r0,r1,r0
        0x00002bcc:    b280        ..      UXTH     r0,r0
        0x00002bce:    460b        .F      MOV      r3,r1
        0x00002bd0:    4602        .F      MOV      r2,r0
        0x00002bd2:    219c        .!      MOVS     r1,#0x9c
        0x00002bd4:    9001        ..      STR      r0,[sp,#4]
        0x00002bd6:    480f        .H      LDR      r0,[pc,#60] ; [0x2c14] = 0x6f6c
        0x00002bd8:    f7fef9c8    ....    BL       Draw_pic ; 0xf6c
        0x00002bdc:    bf00        ..      NOP      
        0x00002bde:    bf00        ..      NOP      
        0x00002be0:    9802        ..      LDR      r0,[sp,#8]
        0x00002be2:    1c40        @.      ADDS     r0,r0,#1
        0x00002be4:    b280        ..      UXTH     r0,r0
        0x00002be6:    9002        ..      STR      r0,[sp,#8]
        0x00002be8:    9904        ..      LDR      r1,[sp,#0x10]
        0x00002bea:    9802        ..      LDR      r0,[sp,#8]
        0x00002bec:    4288        .B      CMP      r0,r1
        0x00002bee:    d801        ..      BHI      0x2bf4 ; draw_page3_result + 2656
        0x00002bf0:    f7fffada    ....    BL       0x21a8 ; draw_page3_result + 20
        0x00002bf4:    b005        ..      ADD      sp,sp,#0x14
        0x00002bf6:    bd00        ..      POP      {pc}
    $d
        0x00002bf8:    0000678c    .g..    DCD    26508
        0x00002bfc:    000068ac    .h..    DCD    26796
        0x00002c00:    000069cc    .i..    DCD    27084
        0x00002c04:    00006aec    .j..    DCD    27372
        0x00002c08:    00006c0c    .l..    DCD    27660
        0x00002c0c:    00006d2c    ,m..    DCD    27948
        0x00002c10:    00006e4c    Ln..    DCD    28236
        0x00002c14:    00006f6c    lo..    DCD    28524
        0x00002c18:    0000654c    Le..    DCD    25932
        0x00002c1c:    0000666c    lf..    DCD    26220
    $t
    i.draw_page3_search
    draw_page3_search
        0x00002c20:    b510        ..      PUSH     {r4,lr}
        0x00002c22:    481e        .H      LDR      r0,[pc,#120] ; [0x2c9c] = 0xc350
        0x00002c24:    f7fef999    ....    BL       Delay ; 0xf5a
        0x00002c28:    f7fefcda    ....    BL       LCD_clear ; 0x15e0
        0x00002c2c:    230c        .#      MOVS     r3,#0xc
        0x00002c2e:    22f0        ."      MOVS     r2,#0xf0
        0x00002c30:    2100        .!      MOVS     r1,#0
        0x00002c32:    481b        .H      LDR      r0,[pc,#108] ; [0x2ca0] = 0x5c4c
        0x00002c34:    f7fef99a    ....    BL       Draw_pic ; 0xf6c
        0x00002c38:    230c        .#      MOVS     r3,#0xc
        0x00002c3a:    22f0        ."      MOVS     r2,#0xf0
        0x00002c3c:    4619        .F      MOV      r1,r3
        0x00002c3e:    4819        .H      LDR      r0,[pc,#100] ; [0x2ca4] = 0x4c8c
        0x00002c40:    f7fef994    ....    BL       Draw_pic ; 0xf6c
        0x00002c44:    230c        .#      MOVS     r3,#0xc
        0x00002c46:    22f0        ."      MOVS     r2,#0xf0
        0x00002c48:    2118        .!      MOVS     r1,#0x18
        0x00002c4a:    4817        .H      LDR      r0,[pc,#92] ; [0x2ca8] = 0x480c
        0x00002c4c:    f7fef98e    ....    BL       Draw_pic ; 0xf6c
        0x00002c50:    230c        .#      MOVS     r3,#0xc
        0x00002c52:    22f0        ."      MOVS     r2,#0xf0
        0x00002c54:    2124        $!      MOVS     r1,#0x24
        0x00002c56:    4815        .H      LDR      r0,[pc,#84] ; [0x2cac] = 0x5b2c
        0x00002c58:    f7fef988    ....    BL       Draw_pic ; 0xf6c
        0x00002c5c:    230c        .#      MOVS     r3,#0xc
        0x00002c5e:    22f0        ."      MOVS     r2,#0xf0
        0x00002c60:    2130        0!      MOVS     r1,#0x30
        0x00002c62:    4813        .H      LDR      r0,[pc,#76] ; [0x2cb0] = 0x4a4c
        0x00002c64:    f7fef982    ....    BL       Draw_pic ; 0xf6c
        0x00002c68:    230c        .#      MOVS     r3,#0xc
        0x00002c6a:    22f0        ."      MOVS     r2,#0xf0
        0x00002c6c:    213c        <!      MOVS     r1,#0x3c
        0x00002c6e:    4811        .H      LDR      r0,[pc,#68] ; [0x2cb4] = 0x4fec
        0x00002c70:    f7fef97c    ..|.    BL       Draw_pic ; 0xf6c
        0x00002c74:    230c        .#      MOVS     r3,#0xc
        0x00002c76:    22f0        ."      MOVS     r2,#0xf0
        0x00002c78:    2148        H!      MOVS     r1,#0x48
        0x00002c7a:    480f        .H      LDR      r0,[pc,#60] ; [0x2cb8] = 0x510c
        0x00002c7c:    f7fef976    ..v.    BL       Draw_pic ; 0xf6c
        0x00002c80:    230c        .#      MOVS     r3,#0xc
        0x00002c82:    22f0        ."      MOVS     r2,#0xf0
        0x00002c84:    2154        T!      MOVS     r1,#0x54
        0x00002c86:    480d        .H      LDR      r0,[pc,#52] ; [0x2cbc] = 0x56ac
        0x00002c88:    f7fef970    ..p.    BL       Draw_pic ; 0xf6c
        0x00002c8c:    230c        .#      MOVS     r3,#0xc
        0x00002c8e:    22f0        ."      MOVS     r2,#0xf0
        0x00002c90:    2160        `!      MOVS     r1,#0x60
        0x00002c92:    480b        .H      LDR      r0,[pc,#44] ; [0x2cc0] = 0x4ecc
        0x00002c94:    f7fef96a    ..j.    BL       Draw_pic ; 0xf6c
        0x00002c98:    bd10        ..      POP      {r4,pc}
    $d
        0x00002c9a:    0000        ..      DCW    0
        0x00002c9c:    0000c350    P...    DCD    50000
        0x00002ca0:    00005c4c    L\..    DCD    23628
        0x00002ca4:    00004c8c    .L..    DCD    19596
        0x00002ca8:    0000480c    .H..    DCD    18444
        0x00002cac:    00005b2c    ,[..    DCD    23340
        0x00002cb0:    00004a4c    LJ..    DCD    19020
        0x00002cb4:    00004fec    .O..    DCD    20460
        0x00002cb8:    0000510c    .Q..    DCD    20748
        0x00002cbc:    000056ac    .V..    DCD    22188
        0x00002cc0:    00004ecc    .N..    DCD    20172
    $t
    i.draw_page3_zero
    draw_page3_zero
        0x00002cc4:    b510        ..      PUSH     {r4,lr}
        0x00002cc6:    4604        .F      MOV      r4,r0
        0x00002cc8:    2c18        .,      CMP      r4,#0x18
        0x00002cca:    d208        ..      BCS      0x2cde ; draw_page3_zero + 26
        0x00002ccc:    200c        .       MOVS     r0,#0xc
        0x00002cce:    4360        `C      MULS     r0,r4,r0
        0x00002cd0:    b282        ..      UXTH     r2,r0
        0x00002cd2:    230c        .#      MOVS     r3,#0xc
        0x00002cd4:    213c        <!      MOVS     r1,#0x3c
        0x00002cd6:    4807        .H      LDR      r0,[pc,#28] ; [0x2cf4] = 0x6f6c
        0x00002cd8:    f7fef948    ..H.    BL       Draw_pic ; 0xf6c
        0x00002cdc:    e009        ..      B        0x2cf2 ; draw_page3_zero + 46
        0x00002cde:    4620         F      MOV      r0,r4
        0x00002ce0:    3818        .8      SUBS     r0,r0,#0x18
        0x00002ce2:    210c        .!      MOVS     r1,#0xc
        0x00002ce4:    4348        HC      MULS     r0,r1,r0
        0x00002ce6:    b282        ..      UXTH     r2,r0
        0x00002ce8:    460b        .F      MOV      r3,r1
        0x00002cea:    21b4        .!      MOVS     r1,#0xb4
        0x00002cec:    4801        .H      LDR      r0,[pc,#4] ; [0x2cf4] = 0x6f6c
        0x00002cee:    f7fef93d    ..=.    BL       Draw_pic ; 0xf6c
        0x00002cf2:    bd10        ..      POP      {r4,pc}
    $d
        0x00002cf4:    00006f6c    lo..    DCD    28524
    $t
    i.draw_page4
    draw_page4
        0x00002cf8:    b510        ..      PUSH     {r4,lr}
        0x00002cfa:    48e4        .H      LDR      r0,[pc,#912] ; [0x308c] = 0xc350
        0x00002cfc:    f7fef92d    ..-.    BL       Delay ; 0xf5a
        0x00002d00:    f7fefc6e    ..n.    BL       LCD_clear ; 0x15e0
        0x00002d04:    230c        .#      MOVS     r3,#0xc
        0x00002d06:    2200        ."      MOVS     r2,#0
        0x00002d08:    4611        .F      MOV      r1,r2
        0x00002d0a:    48e1        .H      LDR      r0,[pc,#900] ; [0x3090] = 0x58ec
        0x00002d0c:    f7fef92e    ....    BL       Draw_pic ; 0xf6c
        0x00002d10:    230c        .#      MOVS     r3,#0xc
        0x00002d12:    2200        ."      MOVS     r2,#0
        0x00002d14:    4619        .F      MOV      r1,r3
        0x00002d16:    48df        .H      LDR      r0,[pc,#892] ; [0x3094] = 0x546c
        0x00002d18:    f7fef928    ..(.    BL       Draw_pic ; 0xf6c
        0x00002d1c:    230c        .#      MOVS     r3,#0xc
        0x00002d1e:    2200        ."      MOVS     r2,#0
        0x00002d20:    2118        .!      MOVS     r1,#0x18
        0x00002d22:    48dd        .H      LDR      r0,[pc,#884] ; [0x3098] = 0x4c8c
        0x00002d24:    f7fef922    ..".    BL       Draw_pic ; 0xf6c
        0x00002d28:    230c        .#      MOVS     r3,#0xc
        0x00002d2a:    2200        ."      MOVS     r2,#0
        0x00002d2c:    2124        $!      MOVS     r1,#0x24
        0x00002d2e:    48db        .H      LDR      r0,[pc,#876] ; [0x309c] = 0x480c
        0x00002d30:    f7fef91c    ....    BL       Draw_pic ; 0xf6c
        0x00002d34:    230c        .#      MOVS     r3,#0xc
        0x00002d36:    2200        ."      MOVS     r2,#0
        0x00002d38:    2130        0!      MOVS     r1,#0x30
        0x00002d3a:    48d9        .H      LDR      r0,[pc,#868] ; [0x30a0] = 0x5c4c
        0x00002d3c:    f7fef916    ....    BL       Draw_pic ; 0xf6c
        0x00002d40:    230c        .#      MOVS     r3,#0xc
        0x00002d42:    2200        ."      MOVS     r2,#0
        0x00002d44:    213c        <!      MOVS     r1,#0x3c
        0x00002d46:    48d4        .H      LDR      r0,[pc,#848] ; [0x3098] = 0x4c8c
        0x00002d48:    f7fef910    ....    BL       Draw_pic ; 0xf6c
        0x00002d4c:    230c        .#      MOVS     r3,#0xc
        0x00002d4e:    2200        ."      MOVS     r2,#0
        0x00002d50:    2154        T!      MOVS     r1,#0x54
        0x00002d52:    48d4        .H      LDR      r0,[pc,#848] ; [0x30a4] = 0x4a4c
        0x00002d54:    f7fef90a    ....    BL       Draw_pic ; 0xf6c
        0x00002d58:    230c        .#      MOVS     r3,#0xc
        0x00002d5a:    2200        ."      MOVS     r2,#0
        0x00002d5c:    2160        `!      MOVS     r1,#0x60
        0x00002d5e:    48d2        .H      LDR      r0,[pc,#840] ; [0x30a8] = 0x4fec
        0x00002d60:    f7fef904    ....    BL       Draw_pic ; 0xf6c
        0x00002d64:    230c        .#      MOVS     r3,#0xc
        0x00002d66:    2200        ."      MOVS     r2,#0
        0x00002d68:    216c        l!      MOVS     r1,#0x6c
        0x00002d6a:    48cc        .H      LDR      r0,[pc,#816] ; [0x309c] = 0x480c
        0x00002d6c:    f7fef8fe    ....    BL       Draw_pic ; 0xf6c
        0x00002d70:    230c        .#      MOVS     r3,#0xc
        0x00002d72:    2200        ."      MOVS     r2,#0
        0x00002d74:    2178        x!      MOVS     r1,#0x78
        0x00002d76:    48cd        .H      LDR      r0,[pc,#820] ; [0x30ac] = 0x56ac
        0x00002d78:    f7fef8f8    ....    BL       Draw_pic ; 0xf6c
        0x00002d7c:    230c        .#      MOVS     r3,#0xc
        0x00002d7e:    2200        ."      MOVS     r2,#0
        0x00002d80:    2184        .!      MOVS     r1,#0x84
        0x00002d82:    48cb        .H      LDR      r0,[pc,#812] ; [0x30b0] = 0x4ecc
        0x00002d84:    f7fef8f2    ....    BL       Draw_pic ; 0xf6c
        0x00002d88:    230c        .#      MOVS     r3,#0xc
        0x00002d8a:    2200        ."      MOVS     r2,#0
        0x00002d8c:    2190        .!      MOVS     r1,#0x90
        0x00002d8e:    48c2        .H      LDR      r0,[pc,#776] ; [0x3098] = 0x4c8c
        0x00002d90:    f7fef8ec    ....    BL       Draw_pic ; 0xf6c
        0x00002d94:    230c        .#      MOVS     r3,#0xc
        0x00002d96:    461a        .F      MOV      r2,r3
        0x00002d98:    2100        .!      MOVS     r1,#0
        0x00002d9a:    48c6        .H      LDR      r0,[pc,#792] ; [0x30b4] = 0x5d6c
        0x00002d9c:    f7fef8e6    ....    BL       Draw_pic ; 0xf6c
        0x00002da0:    230c        .#      MOVS     r3,#0xc
        0x00002da2:    461a        .F      MOV      r2,r3
        0x00002da4:    4619        .F      MOV      r1,r3
        0x00002da6:    48c4        .H      LDR      r0,[pc,#784] ; [0x30b8] = 0x61ec
        0x00002da8:    f7fef8e0    ....    BL       Draw_pic ; 0xf6c
        0x00002dac:    230c        .#      MOVS     r3,#0xc
        0x00002dae:    461a        .F      MOV      r2,r3
        0x00002db0:    2124        $!      MOVS     r1,#0x24
        0x00002db2:    48c2        .H      LDR      r0,[pc,#776] ; [0x30bc] = 0x4dac
        0x00002db4:    f7fef8da    ....    BL       Draw_pic ; 0xf6c
        0x00002db8:    230c        .#      MOVS     r3,#0xc
        0x00002dba:    461a        .F      MOV      r2,r3
        0x00002dbc:    2130        0!      MOVS     r1,#0x30
        0x00002dbe:    48c0        .H      LDR      r0,[pc,#768] ; [0x30c0] = 0x5b2c
        0x00002dc0:    f7fef8d4    ....    BL       Draw_pic ; 0xf6c
        0x00002dc4:    230c        .#      MOVS     r3,#0xc
        0x00002dc6:    461a        .F      MOV      r2,r3
        0x00002dc8:    213c        <!      MOVS     r1,#0x3c
        0x00002dca:    48b3        .H      LDR      r0,[pc,#716] ; [0x3098] = 0x4c8c
        0x00002dcc:    f7fef8ce    ....    BL       Draw_pic ; 0xf6c
        0x00002dd0:    230c        .#      MOVS     r3,#0xc
        0x00002dd2:    461a        .F      MOV      r2,r3
        0x00002dd4:    2148        H!      MOVS     r1,#0x48
        0x00002dd6:    48b5        .H      LDR      r0,[pc,#724] ; [0x30ac] = 0x56ac
        0x00002dd8:    f7fef8c8    ....    BL       Draw_pic ; 0xf6c
        0x00002ddc:    230c        .#      MOVS     r3,#0xc
        0x00002dde:    461a        .F      MOV      r2,r3
        0x00002de0:    2154        T!      MOVS     r1,#0x54
        0x00002de2:    48b0        .H      LDR      r0,[pc,#704] ; [0x30a4] = 0x4a4c
        0x00002de4:    f7fef8c2    ....    BL       Draw_pic ; 0xf6c
        0x00002de8:    230c        .#      MOVS     r3,#0xc
        0x00002dea:    461a        .F      MOV      r2,r3
        0x00002dec:    2160        `!      MOVS     r1,#0x60
        0x00002dee:    48b5        .H      LDR      r0,[pc,#724] ; [0x30c4] = 0x5a0c
        0x00002df0:    f7fef8bc    ....    BL       Draw_pic ; 0xf6c
        0x00002df4:    230c        .#      MOVS     r3,#0xc
        0x00002df6:    461a        .F      MOV      r2,r3
        0x00002df8:    216c        l!      MOVS     r1,#0x6c
        0x00002dfa:    48b3        .H      LDR      r0,[pc,#716] ; [0x30c8] = 0x5e8c
        0x00002dfc:    f7fef8b6    ....    BL       Draw_pic ; 0xf6c
        0x00002e00:    230c        .#      MOVS     r3,#0xc
        0x00002e02:    461a        .F      MOV      r2,r3
        0x00002e04:    2178        x!      MOVS     r1,#0x78
        0x00002e06:    48a4        .H      LDR      r0,[pc,#656] ; [0x3098] = 0x4c8c
        0x00002e08:    f7fef8b0    ....    BL       Draw_pic ; 0xf6c
        0x00002e0c:    230c        .#      MOVS     r3,#0xc
        0x00002e0e:    461a        .F      MOV      r2,r3
        0x00002e10:    2184        .!      MOVS     r1,#0x84
        0x00002e12:    48a6        .H      LDR      r0,[pc,#664] ; [0x30ac] = 0x56ac
        0x00002e14:    f7fef8aa    ....    BL       Draw_pic ; 0xf6c
        0x00002e18:    230c        .#      MOVS     r3,#0xc
        0x00002e1a:    461a        .F      MOV      r2,r3
        0x00002e1c:    2190        .!      MOVS     r1,#0x90
        0x00002e1e:    48a1        .H      LDR      r0,[pc,#644] ; [0x30a4] = 0x4a4c
        0x00002e20:    f7fef8a4    ....    BL       Draw_pic ; 0xf6c
        0x00002e24:    230c        .#      MOVS     r3,#0xc
        0x00002e26:    461a        .F      MOV      r2,r3
        0x00002e28:    219c        .!      MOVS     r1,#0x9c
        0x00002e2a:    48a8        .H      LDR      r0,[pc,#672] ; [0x30cc] = 0x630c
        0x00002e2c:    f7fef89e    ....    BL       Draw_pic ; 0xf6c
        0x00002e30:    230c        .#      MOVS     r3,#0xc
        0x00002e32:    2224        $"      MOVS     r2,#0x24
        0x00002e34:    2100        .!      MOVS     r1,#0
        0x00002e36:    4896        .H      LDR      r0,[pc,#600] ; [0x3090] = 0x58ec
        0x00002e38:    f7fef898    ....    BL       Draw_pic ; 0xf6c
        0x00002e3c:    230c        .#      MOVS     r3,#0xc
        0x00002e3e:    2224        $"      MOVS     r2,#0x24
        0x00002e40:    4619        .F      MOV      r1,r3
        0x00002e42:    489f        .H      LDR      r0,[pc,#636] ; [0x30c0] = 0x5b2c
        0x00002e44:    f7fef892    ....    BL       Draw_pic ; 0xf6c
        0x00002e48:    230c        .#      MOVS     r3,#0xc
        0x00002e4a:    2224        $"      MOVS     r2,#0x24
        0x00002e4c:    2118        .!      MOVS     r1,#0x18
        0x00002e4e:    4892        .H      LDR      r0,[pc,#584] ; [0x3098] = 0x4c8c
        0x00002e50:    f7fef88c    ....    BL       Draw_pic ; 0xf6c
        0x00002e54:    230c        .#      MOVS     r3,#0xc
        0x00002e56:    2224        $"      MOVS     r2,#0x24
        0x00002e58:    4611        .F      MOV      r1,r2
        0x00002e5a:    4891        .H      LDR      r0,[pc,#580] ; [0x30a0] = 0x5c4c
        0x00002e5c:    f7fef886    ....    BL       Draw_pic ; 0xf6c
        0x00002e60:    230c        .#      MOVS     r3,#0xc
        0x00002e62:    2224        $"      MOVS     r2,#0x24
        0x00002e64:    2130        0!      MOVS     r1,#0x30
        0x00002e66:    488e        .H      LDR      r0,[pc,#568] ; [0x30a0] = 0x5c4c
        0x00002e68:    f7fef880    ....    BL       Draw_pic ; 0xf6c
        0x00002e6c:    230c        .#      MOVS     r3,#0xc
        0x00002e6e:    2224        $"      MOVS     r2,#0x24
        0x00002e70:    2148        H!      MOVS     r1,#0x48
        0x00002e72:    4897        .H      LDR      r0,[pc,#604] ; [0x30d0] = 0x6f6c
        0x00002e74:    f7fef87a    ..z.    BL       Draw_pic ; 0xf6c
        0x00002e78:    230c        .#      MOVS     r3,#0xc
        0x00002e7a:    2224        $"      MOVS     r2,#0x24
        0x00002e7c:    2160        `!      MOVS     r1,#0x60
        0x00002e7e:    4895        .H      LDR      r0,[pc,#596] ; [0x30d4] = 0x57cc
        0x00002e80:    f7fef874    ..t.    BL       Draw_pic ; 0xf6c
        0x00002e84:    230c        .#      MOVS     r3,#0xc
        0x00002e86:    2224        $"      MOVS     r2,#0x24
        0x00002e88:    216c        l!      MOVS     r1,#0x6c
        0x00002e8a:    488d        .H      LDR      r0,[pc,#564] ; [0x30c0] = 0x5b2c
        0x00002e8c:    f7fef86e    ..n.    BL       Draw_pic ; 0xf6c
        0x00002e90:    230c        .#      MOVS     r3,#0xc
        0x00002e92:    2224        $"      MOVS     r2,#0x24
        0x00002e94:    2184        .!      MOVS     r1,#0x84
        0x00002e96:    4890        .H      LDR      r0,[pc,#576] ; [0x30d8] = 0x654c
        0x00002e98:    f7fef868    ..h.    BL       Draw_pic ; 0xf6c
        0x00002e9c:    230c        .#      MOVS     r3,#0xc
        0x00002e9e:    2224        $"      MOVS     r2,#0x24
        0x00002ea0:    219c        .!      MOVS     r1,#0x9c
        0x00002ea2:    4884        .H      LDR      r0,[pc,#528] ; [0x30b4] = 0x5d6c
        0x00002ea4:    f7fef862    ..b.    BL       Draw_pic ; 0xf6c
        0x00002ea8:    230c        .#      MOVS     r3,#0xc
        0x00002eaa:    2224        $"      MOVS     r2,#0x24
        0x00002eac:    21a8        .!      MOVS     r1,#0xa8
        0x00002eae:    4889        .H      LDR      r0,[pc,#548] ; [0x30d4] = 0x57cc
        0x00002eb0:    f7fef85c    ..\.    BL       Draw_pic ; 0xf6c
        0x00002eb4:    230c        .#      MOVS     r3,#0xc
        0x00002eb6:    2230        0"      MOVS     r2,#0x30
        0x00002eb8:    2100        .!      MOVS     r1,#0
        0x00002eba:    487e        ~H      LDR      r0,[pc,#504] ; [0x30b4] = 0x5d6c
        0x00002ebc:    f7fef856    ..V.    BL       Draw_pic ; 0xf6c
        0x00002ec0:    230c        .#      MOVS     r3,#0xc
        0x00002ec2:    2230        0"      MOVS     r2,#0x30
        0x00002ec4:    4619        .F      MOV      r1,r3
        0x00002ec6:    4880        .H      LDR      r0,[pc,#512] ; [0x30c8] = 0x5e8c
        0x00002ec8:    f7fef850    ..P.    BL       Draw_pic ; 0xf6c
        0x00002ecc:    230c        .#      MOVS     r3,#0xc
        0x00002ece:    2230        0"      MOVS     r2,#0x30
        0x00002ed0:    2118        .!      MOVS     r1,#0x18
        0x00002ed2:    487b        {H      LDR      r0,[pc,#492] ; [0x30c0] = 0x5b2c
        0x00002ed4:    f7fef84a    ..J.    BL       Draw_pic ; 0xf6c
        0x00002ed8:    230c        .#      MOVS     r3,#0xc
        0x00002eda:    2230        0"      MOVS     r2,#0x30
        0x00002edc:    2124        $!      MOVS     r1,#0x24
        0x00002ede:    4873        sH      LDR      r0,[pc,#460] ; [0x30ac] = 0x56ac
        0x00002ee0:    f7fef844    ..D.    BL       Draw_pic ; 0xf6c
        0x00002ee4:    230c        .#      MOVS     r3,#0xc
        0x00002ee6:    2230        0"      MOVS     r2,#0x30
        0x00002ee8:    213c        <!      MOVS     r1,#0x3c
        0x00002eea:    4877        wH      LDR      r0,[pc,#476] ; [0x30c8] = 0x5e8c
        0x00002eec:    f7fef83e    ..>.    BL       Draw_pic ; 0xf6c
        0x00002ef0:    230c        .#      MOVS     r3,#0xc
        0x00002ef2:    2230        0"      MOVS     r2,#0x30
        0x00002ef4:    2148        H!      MOVS     r1,#0x48
        0x00002ef6:    4866        fH      LDR      r0,[pc,#408] ; [0x3090] = 0x58ec
        0x00002ef8:    f7fef838    ..8.    BL       Draw_pic ; 0xf6c
        0x00002efc:    230c        .#      MOVS     r3,#0xc
        0x00002efe:    2248        H"      MOVS     r2,#0x48
        0x00002f00:    2100        .!      MOVS     r1,#0
        0x00002f02:    4863        cH      LDR      r0,[pc,#396] ; [0x3090] = 0x58ec
        0x00002f04:    f7fef832    ..2.    BL       Draw_pic ; 0xf6c
        0x00002f08:    230c        .#      MOVS     r3,#0xc
        0x00002f0a:    2248        H"      MOVS     r2,#0x48
        0x00002f0c:    4619        .F      MOV      r1,r3
        0x00002f0e:    486c        lH      LDR      r0,[pc,#432] ; [0x30c0] = 0x5b2c
        0x00002f10:    f7fef82c    ..,.    BL       Draw_pic ; 0xf6c
        0x00002f14:    230c        .#      MOVS     r3,#0xc
        0x00002f16:    2248        H"      MOVS     r2,#0x48
        0x00002f18:    2118        .!      MOVS     r1,#0x18
        0x00002f1a:    485f        _H      LDR      r0,[pc,#380] ; [0x3098] = 0x4c8c
        0x00002f1c:    f7fef826    ..&.    BL       Draw_pic ; 0xf6c
        0x00002f20:    230c        .#      MOVS     r3,#0xc
        0x00002f22:    2248        H"      MOVS     r2,#0x48
        0x00002f24:    2124        $!      MOVS     r1,#0x24
        0x00002f26:    485e        ^H      LDR      r0,[pc,#376] ; [0x30a0] = 0x5c4c
        0x00002f28:    f7fef820    .. .    BL       Draw_pic ; 0xf6c
        0x00002f2c:    230c        .#      MOVS     r3,#0xc
        0x00002f2e:    2248        H"      MOVS     r2,#0x48
        0x00002f30:    2130        0!      MOVS     r1,#0x30
        0x00002f32:    485b        [H      LDR      r0,[pc,#364] ; [0x30a0] = 0x5c4c
        0x00002f34:    f7fef81a    ....    BL       Draw_pic ; 0xf6c
        0x00002f38:    230c        .#      MOVS     r3,#0xc
        0x00002f3a:    2248        H"      MOVS     r2,#0x48
        0x00002f3c:    4611        .F      MOV      r1,r2
        0x00002f3e:    4867        gH      LDR      r0,[pc,#412] ; [0x30dc] = 0x68ac
        0x00002f40:    f7fef814    ....    BL       Draw_pic ; 0xf6c
        0x00002f44:    230c        .#      MOVS     r3,#0xc
        0x00002f46:    2248        H"      MOVS     r2,#0x48
        0x00002f48:    2160        `!      MOVS     r1,#0x60
        0x00002f4a:    4862        bH      LDR      r0,[pc,#392] ; [0x30d4] = 0x57cc
        0x00002f4c:    f7fef80e    ....    BL       Draw_pic ; 0xf6c
        0x00002f50:    230c        .#      MOVS     r3,#0xc
        0x00002f52:    2248        H"      MOVS     r2,#0x48
        0x00002f54:    216c        l!      MOVS     r1,#0x6c
        0x00002f56:    485a        ZH      LDR      r0,[pc,#360] ; [0x30c0] = 0x5b2c
        0x00002f58:    f7fef808    ....    BL       Draw_pic ; 0xf6c
        0x00002f5c:    230c        .#      MOVS     r3,#0xc
        0x00002f5e:    2248        H"      MOVS     r2,#0x48
        0x00002f60:    2184        .!      MOVS     r1,#0x84
        0x00002f62:    485f        _H      LDR      r0,[pc,#380] ; [0x30e0] = 0x69cc
        0x00002f64:    f7fef802    ....    BL       Draw_pic ; 0xf6c
        0x00002f68:    230c        .#      MOVS     r3,#0xc
        0x00002f6a:    2248        H"      MOVS     r2,#0x48
        0x00002f6c:    219c        .!      MOVS     r1,#0x9c
        0x00002f6e:    4851        QH      LDR      r0,[pc,#324] ; [0x30b4] = 0x5d6c
        0x00002f70:    f7fdfffc    ....    BL       Draw_pic ; 0xf6c
        0x00002f74:    230c        .#      MOVS     r3,#0xc
        0x00002f76:    2248        H"      MOVS     r2,#0x48
        0x00002f78:    21a8        .!      MOVS     r1,#0xa8
        0x00002f7a:    4856        VH      LDR      r0,[pc,#344] ; [0x30d4] = 0x57cc
        0x00002f7c:    f7fdfff6    ....    BL       Draw_pic ; 0xf6c
        0x00002f80:    230c        .#      MOVS     r3,#0xc
        0x00002f82:    2254        T"      MOVS     r2,#0x54
        0x00002f84:    2100        .!      MOVS     r1,#0
        0x00002f86:    484b        KH      LDR      r0,[pc,#300] ; [0x30b4] = 0x5d6c
        0x00002f88:    f7fdfff0    ....    BL       Draw_pic ; 0xf6c
        0x00002f8c:    230c        .#      MOVS     r3,#0xc
        0x00002f8e:    2254        T"      MOVS     r2,#0x54
        0x00002f90:    4619        .F      MOV      r1,r3
        0x00002f92:    484d        MH      LDR      r0,[pc,#308] ; [0x30c8] = 0x5e8c
        0x00002f94:    f7fdffea    ....    BL       Draw_pic ; 0xf6c
        0x00002f98:    230c        .#      MOVS     r3,#0xc
        0x00002f9a:    2254        T"      MOVS     r2,#0x54
        0x00002f9c:    2118        .!      MOVS     r1,#0x18
        0x00002f9e:    4848        HH      LDR      r0,[pc,#288] ; [0x30c0] = 0x5b2c
        0x00002fa0:    f7fdffe4    ....    BL       Draw_pic ; 0xf6c
        0x00002fa4:    230c        .#      MOVS     r3,#0xc
        0x00002fa6:    2254        T"      MOVS     r2,#0x54
        0x00002fa8:    2124        $!      MOVS     r1,#0x24
        0x00002faa:    4840        @H      LDR      r0,[pc,#256] ; [0x30ac] = 0x56ac
        0x00002fac:    f7fdffde    ....    BL       Draw_pic ; 0xf6c
        0x00002fb0:    230c        .#      MOVS     r3,#0xc
        0x00002fb2:    2254        T"      MOVS     r2,#0x54
        0x00002fb4:    213c        <!      MOVS     r1,#0x3c
        0x00002fb6:    484b        KH      LDR      r0,[pc,#300] ; [0x30e4] = 0x4b6c
        0x00002fb8:    f7fdffd8    ....    BL       Draw_pic ; 0xf6c
        0x00002fbc:    230c        .#      MOVS     r3,#0xc
        0x00002fbe:    2254        T"      MOVS     r2,#0x54
        0x00002fc0:    2148        H!      MOVS     r1,#0x48
        0x00002fc2:    4844        DH      LDR      r0,[pc,#272] ; [0x30d4] = 0x57cc
        0x00002fc4:    f7fdffd2    ....    BL       Draw_pic ; 0xf6c
        0x00002fc8:    230c        .#      MOVS     r3,#0xc
        0x00002fca:    2254        T"      MOVS     r2,#0x54
        0x00002fcc:    4611        .F      MOV      r1,r2
        0x00002fce:    4846        FH      LDR      r0,[pc,#280] ; [0x30e8] = 0x60cc
        0x00002fd0:    f7fdffcc    ....    BL       Draw_pic ; 0xf6c
        0x00002fd4:    230c        .#      MOVS     r3,#0xc
        0x00002fd6:    2254        T"      MOVS     r2,#0x54
        0x00002fd8:    2160        `!      MOVS     r1,#0x60
        0x00002fda:    4834        4H      LDR      r0,[pc,#208] ; [0x30ac] = 0x56ac
        0x00002fdc:    f7fdffc6    ....    BL       Draw_pic ; 0xf6c
        0x00002fe0:    230c        .#      MOVS     r3,#0xc
        0x00002fe2:    2278        x"      MOVS     r2,#0x78
        0x00002fe4:    2100        .!      MOVS     r1,#0
        0x00002fe6:    482a        *H      LDR      r0,[pc,#168] ; [0x3090] = 0x58ec
        0x00002fe8:    f7fdffc0    ....    BL       Draw_pic ; 0xf6c
        0x00002fec:    230c        .#      MOVS     r3,#0xc
        0x00002fee:    2278        x"      MOVS     r2,#0x78
        0x00002ff0:    4619        .F      MOV      r1,r3
        0x00002ff2:    4833        3H      LDR      r0,[pc,#204] ; [0x30c0] = 0x5b2c
        0x00002ff4:    f7fdffba    ....    BL       Draw_pic ; 0xf6c
        0x00002ff8:    230c        .#      MOVS     r3,#0xc
        0x00002ffa:    2278        x"      MOVS     r2,#0x78
        0x00002ffc:    2118        .!      MOVS     r1,#0x18
        0x00002ffe:    4826        &H      LDR      r0,[pc,#152] ; [0x3098] = 0x4c8c
        0x00003000:    f7fdffb4    ....    BL       Draw_pic ; 0xf6c
        0x00003004:    230c        .#      MOVS     r3,#0xc
        0x00003006:    2278        x"      MOVS     r2,#0x78
        0x00003008:    2124        $!      MOVS     r1,#0x24
        0x0000300a:    4825        %H      LDR      r0,[pc,#148] ; [0x30a0] = 0x5c4c
        0x0000300c:    f7fdffae    ....    BL       Draw_pic ; 0xf6c
        0x00003010:    230c        .#      MOVS     r3,#0xc
        0x00003012:    2278        x"      MOVS     r2,#0x78
        0x00003014:    2130        0!      MOVS     r1,#0x30
        0x00003016:    4822        "H      LDR      r0,[pc,#136] ; [0x30a0] = 0x5c4c
        0x00003018:    f7fdffa8    ....    BL       Draw_pic ; 0xf6c
        0x0000301c:    230c        .#      MOVS     r3,#0xc
        0x0000301e:    2278        x"      MOVS     r2,#0x78
        0x00003020:    2148        H!      MOVS     r1,#0x48
        0x00003022:    4826        &H      LDR      r0,[pc,#152] ; [0x30bc] = 0x4dac
        0x00003024:    f7fdffa2    ....    BL       Draw_pic ; 0xf6c
        0x00003028:    230c        .#      MOVS     r3,#0xc
        0x0000302a:    2278        x"      MOVS     r2,#0x78
        0x0000302c:    2160        `!      MOVS     r1,#0x60
        0x0000302e:    4821        !H      LDR      r0,[pc,#132] ; [0x30b4] = 0x5d6c
        0x00003030:    f7fdff9c    ....    BL       Draw_pic ; 0xf6c
        0x00003034:    230c        .#      MOVS     r3,#0xc
        0x00003036:    2278        x"      MOVS     r2,#0x78
        0x00003038:    216c        l!      MOVS     r1,#0x6c
        0x0000303a:    4826        &H      LDR      r0,[pc,#152] ; [0x30d4] = 0x57cc
        0x0000303c:    f7fdff96    ....    BL       Draw_pic ; 0xf6c
        0x00003040:    230c        .#      MOVS     r3,#0xc
        0x00003042:    2278        x"      MOVS     r2,#0x78
        0x00003044:    2184        .!      MOVS     r1,#0x84
        0x00003046:    481a        .H      LDR      r0,[pc,#104] ; [0x30b0] = 0x4ecc
        0x00003048:    f7fdff90    ....    BL       Draw_pic ; 0xf6c
        0x0000304c:    230c        .#      MOVS     r3,#0xc
        0x0000304e:    2278        x"      MOVS     r2,#0x78
        0x00003050:    2190        .!      MOVS     r1,#0x90
        0x00003052:    4820         H      LDR      r0,[pc,#128] ; [0x30d4] = 0x57cc
        0x00003054:    f7fdff8a    ....    BL       Draw_pic ; 0xf6c
        0x00003058:    230c        .#      MOVS     r3,#0xc
        0x0000305a:    2278        x"      MOVS     r2,#0x78
        0x0000305c:    21a8        .!      MOVS     r1,#0xa8
        0x0000305e:    4823        #H      LDR      r0,[pc,#140] ; [0x30ec] = 0x492c
        0x00003060:    f7fdff84    ....    BL       Draw_pic ; 0xf6c
        0x00003064:    230c        .#      MOVS     r3,#0xc
        0x00003066:    2278        x"      MOVS     r2,#0x78
        0x00003068:    21b4        .!      MOVS     r1,#0xb4
        0x0000306a:    480c        .H      LDR      r0,[pc,#48] ; [0x309c] = 0x480c
        0x0000306c:    f7fdff7e    ..~.    BL       Draw_pic ; 0xf6c
        0x00003070:    230c        .#      MOVS     r3,#0xc
        0x00003072:    2278        x"      MOVS     r2,#0x78
        0x00003074:    21c0        .!      MOVS     r1,#0xc0
        0x00003076:    480b        .H      LDR      r0,[pc,#44] ; [0x30a4] = 0x4a4c
        0x00003078:    f7fdff78    ..x.    BL       Draw_pic ; 0xf6c
        0x0000307c:    230c        .#      MOVS     r3,#0xc
        0x0000307e:    2278        x"      MOVS     r2,#0x78
        0x00003080:    21cc        .!      MOVS     r1,#0xcc
        0x00003082:    481b        .H      LDR      r0,[pc,#108] ; [0x30f0] = 0x534c
        0x00003084:    f7fdff72    ..r.    BL       Draw_pic ; 0xf6c
        0x00003088:    bd10        ..      POP      {r4,pc}
    $d
        0x0000308a:    0000        ..      DCW    0
        0x0000308c:    0000c350    P...    DCD    50000
        0x00003090:    000058ec    .X..    DCD    22764
        0x00003094:    0000546c    lT..    DCD    21612
        0x00003098:    00004c8c    .L..    DCD    19596
        0x0000309c:    0000480c    .H..    DCD    18444
        0x000030a0:    00005c4c    L\..    DCD    23628
        0x000030a4:    00004a4c    LJ..    DCD    19020
        0x000030a8:    00004fec    .O..    DCD    20460
        0x000030ac:    000056ac    .V..    DCD    22188
        0x000030b0:    00004ecc    .N..    DCD    20172
        0x000030b4:    00005d6c    l]..    DCD    23916
        0x000030b8:    000061ec    .a..    DCD    25068
        0x000030bc:    00004dac    .M..    DCD    19884
        0x000030c0:    00005b2c    ,[..    DCD    23340
        0x000030c4:    00005a0c    .Z..    DCD    23052
        0x000030c8:    00005e8c    .^..    DCD    24204
        0x000030cc:    0000630c    .c..    DCD    25356
        0x000030d0:    00006f6c    lo..    DCD    28524
        0x000030d4:    000057cc    .W..    DCD    22476
        0x000030d8:    0000654c    Le..    DCD    25932
        0x000030dc:    000068ac    .h..    DCD    26796
        0x000030e0:    000069cc    .i..    DCD    27084
        0x000030e4:    00004b6c    lK..    DCD    19308
        0x000030e8:    000060cc    .`..    DCD    24780
        0x000030ec:    0000492c    ,I..    DCD    18732
        0x000030f0:    0000534c    LS..    DCD    21324
    $t
    i.draw_page5
    draw_page5
        0x000030f4:    b510        ..      PUSH     {r4,lr}
        0x000030f6:    486c        lH      LDR      r0,[pc,#432] ; [0x32a8] = 0xc350
        0x000030f8:    f7fdff2f    ../.    BL       Delay ; 0xf5a
        0x000030fc:    f7fefa70    ..p.    BL       LCD_clear ; 0x15e0
        0x00003100:    230c        .#      MOVS     r3,#0xc
        0x00003102:    2200        ."      MOVS     r2,#0
        0x00003104:    4611        .F      MOV      r1,r2
        0x00003106:    4869        iH      LDR      r0,[pc,#420] ; [0x32ac] = 0x4c8c
        0x00003108:    f7fdff30    ..0.    BL       Draw_pic ; 0xf6c
        0x0000310c:    230c        .#      MOVS     r3,#0xc
        0x0000310e:    2200        ."      MOVS     r2,#0
        0x00003110:    4619        .F      MOV      r1,r3
        0x00003112:    4867        gH      LDR      r0,[pc,#412] ; [0x32b0] = 0x5d6c
        0x00003114:    f7fdff2a    ..*.    BL       Draw_pic ; 0xf6c
        0x00003118:    230c        .#      MOVS     r3,#0xc
        0x0000311a:    2200        ."      MOVS     r2,#0
        0x0000311c:    2118        .!      MOVS     r1,#0x18
        0x0000311e:    4865        eH      LDR      r0,[pc,#404] ; [0x32b4] = 0x4fec
        0x00003120:    f7fdff24    ..$.    BL       Draw_pic ; 0xf6c
        0x00003124:    230c        .#      MOVS     r3,#0xc
        0x00003126:    2200        ."      MOVS     r2,#0
        0x00003128:    2124        $!      MOVS     r1,#0x24
        0x0000312a:    4860        `H      LDR      r0,[pc,#384] ; [0x32ac] = 0x4c8c
        0x0000312c:    f7fdff1e    ....    BL       Draw_pic ; 0xf6c
        0x00003130:    230c        .#      MOVS     r3,#0xc
        0x00003132:    2200        ."      MOVS     r2,#0
        0x00003134:    2130        0!      MOVS     r1,#0x30
        0x00003136:    4860        `H      LDR      r0,[pc,#384] ; [0x32b8] = 0x5b2c
        0x00003138:    f7fdff18    ....    BL       Draw_pic ; 0xf6c
        0x0000313c:    230c        .#      MOVS     r3,#0xc
        0x0000313e:    2200        ."      MOVS     r2,#0
        0x00003140:    213c        <!      MOVS     r1,#0x3c
        0x00003142:    485e        ^H      LDR      r0,[pc,#376] ; [0x32bc] = 0x56ac
        0x00003144:    f7fdff12    ....    BL       Draw_pic ; 0xf6c
        0x00003148:    230c        .#      MOVS     r3,#0xc
        0x0000314a:    2200        ."      MOVS     r2,#0
        0x0000314c:    2148        H!      MOVS     r1,#0x48
        0x0000314e:    4857        WH      LDR      r0,[pc,#348] ; [0x32ac] = 0x4c8c
        0x00003150:    f7fdff0c    ....    BL       Draw_pic ; 0xf6c
        0x00003154:    230c        .#      MOVS     r3,#0xc
        0x00003156:    2200        ."      MOVS     r2,#0
        0x00003158:    2154        T!      MOVS     r1,#0x54
        0x0000315a:    4855        UH      LDR      r0,[pc,#340] ; [0x32b0] = 0x5d6c
        0x0000315c:    f7fdff06    ....    BL       Draw_pic ; 0xf6c
        0x00003160:    230c        .#      MOVS     r3,#0xc
        0x00003162:    461a        .F      MOV      r2,r3
        0x00003164:    2100        .!      MOVS     r1,#0
        0x00003166:    4856        VH      LDR      r0,[pc,#344] ; [0x32c0] = 0x58ec
        0x00003168:    f7fdff00    ....    BL       Draw_pic ; 0xf6c
        0x0000316c:    230c        .#      MOVS     r3,#0xc
        0x0000316e:    461a        .F      MOV      r2,r3
        0x00003170:    4619        .F      MOV      r1,r3
        0x00003172:    4851        QH      LDR      r0,[pc,#324] ; [0x32b8] = 0x5b2c
        0x00003174:    f7fdfefa    ....    BL       Draw_pic ; 0xf6c
        0x00003178:    230c        .#      MOVS     r3,#0xc
        0x0000317a:    461a        .F      MOV      r2,r3
        0x0000317c:    2118        .!      MOVS     r1,#0x18
        0x0000317e:    484b        KH      LDR      r0,[pc,#300] ; [0x32ac] = 0x4c8c
        0x00003180:    f7fdfef4    ....    BL       Draw_pic ; 0xf6c
        0x00003184:    230c        .#      MOVS     r3,#0xc
        0x00003186:    461a        .F      MOV      r2,r3
        0x00003188:    2124        $!      MOVS     r1,#0x24
        0x0000318a:    484e        NH      LDR      r0,[pc,#312] ; [0x32c4] = 0x5c4c
        0x0000318c:    f7fdfeee    ....    BL       Draw_pic ; 0xf6c
        0x00003190:    230c        .#      MOVS     r3,#0xc
        0x00003192:    461a        .F      MOV      r2,r3
        0x00003194:    2130        0!      MOVS     r1,#0x30
        0x00003196:    484b        KH      LDR      r0,[pc,#300] ; [0x32c4] = 0x5c4c
        0x00003198:    f7fdfee8    ....    BL       Draw_pic ; 0xf6c
        0x0000319c:    230c        .#      MOVS     r3,#0xc
        0x0000319e:    461a        .F      MOV      r2,r3
        0x000031a0:    2148        H!      MOVS     r1,#0x48
        0x000031a2:    4849        IH      LDR      r0,[pc,#292] ; [0x32c8] = 0x6f6c
        0x000031a4:    f7fdfee2    ....    BL       Draw_pic ; 0xf6c
        0x000031a8:    230c        .#      MOVS     r3,#0xc
        0x000031aa:    461a        .F      MOV      r2,r3
        0x000031ac:    2160        `!      MOVS     r1,#0x60
        0x000031ae:    4840        @H      LDR      r0,[pc,#256] ; [0x32b0] = 0x5d6c
        0x000031b0:    f7fdfedc    ....    BL       Draw_pic ; 0xf6c
        0x000031b4:    230c        .#      MOVS     r3,#0xc
        0x000031b6:    461a        .F      MOV      r2,r3
        0x000031b8:    216c        l!      MOVS     r1,#0x6c
        0x000031ba:    4844        DH      LDR      r0,[pc,#272] ; [0x32cc] = 0x57cc
        0x000031bc:    f7fdfed6    ....    BL       Draw_pic ; 0xf6c
        0x000031c0:    230c        .#      MOVS     r3,#0xc
        0x000031c2:    461a        .F      MOV      r2,r3
        0x000031c4:    2184        .!      MOVS     r1,#0x84
        0x000031c6:    4839        9H      LDR      r0,[pc,#228] ; [0x32ac] = 0x4c8c
        0x000031c8:    f7fdfed0    ....    BL       Draw_pic ; 0xf6c
        0x000031cc:    230c        .#      MOVS     r3,#0xc
        0x000031ce:    461a        .F      MOV      r2,r3
        0x000031d0:    2190        .!      MOVS     r1,#0x90
        0x000031d2:    483a        :H      LDR      r0,[pc,#232] ; [0x32bc] = 0x56ac
        0x000031d4:    f7fdfeca    ....    BL       Draw_pic ; 0xf6c
        0x000031d8:    230c        .#      MOVS     r3,#0xc
        0x000031da:    461a        .F      MOV      r2,r3
        0x000031dc:    219c        .!      MOVS     r1,#0x9c
        0x000031de:    483c        <H      LDR      r0,[pc,#240] ; [0x32d0] = 0x480c
        0x000031e0:    f7fdfec4    ....    BL       Draw_pic ; 0xf6c
        0x000031e4:    230c        .#      MOVS     r3,#0xc
        0x000031e6:    461a        .F      MOV      r2,r3
        0x000031e8:    21a8        .!      MOVS     r1,#0xa8
        0x000031ea:    483a        :H      LDR      r0,[pc,#232] ; [0x32d4] = 0x492c
        0x000031ec:    f7fdfebe    ....    BL       Draw_pic ; 0xf6c
        0x000031f0:    230c        .#      MOVS     r3,#0xc
        0x000031f2:    461a        .F      MOV      r2,r3
        0x000031f4:    21b4        .!      MOVS     r1,#0xb4
        0x000031f6:    4838        8H      LDR      r0,[pc,#224] ; [0x32d8] = 0x546c
        0x000031f8:    f7fdfeb8    ....    BL       Draw_pic ; 0xf6c
        0x000031fc:    230c        .#      MOVS     r3,#0xc
        0x000031fe:    461a        .F      MOV      r2,r3
        0x00003200:    21c0        .!      MOVS     r1,#0xc0
        0x00003202:    482a        *H      LDR      r0,[pc,#168] ; [0x32ac] = 0x4c8c
        0x00003204:    f7fdfeb2    ....    BL       Draw_pic ; 0xf6c
        0x00003208:    230c        .#      MOVS     r3,#0xc
        0x0000320a:    2218        ."      MOVS     r2,#0x18
        0x0000320c:    2100        .!      MOVS     r1,#0
        0x0000320e:    482c        ,H      LDR      r0,[pc,#176] ; [0x32c0] = 0x58ec
        0x00003210:    f7fdfeac    ....    BL       Draw_pic ; 0xf6c
        0x00003214:    230c        .#      MOVS     r3,#0xc
        0x00003216:    2218        ."      MOVS     r2,#0x18
        0x00003218:    4619        .F      MOV      r1,r3
        0x0000321a:    4827        'H      LDR      r0,[pc,#156] ; [0x32b8] = 0x5b2c
        0x0000321c:    f7fdfea6    ....    BL       Draw_pic ; 0xf6c
        0x00003220:    230c        .#      MOVS     r3,#0xc
        0x00003222:    2218        ."      MOVS     r2,#0x18
        0x00003224:    4611        .F      MOV      r1,r2
        0x00003226:    4821        !H      LDR      r0,[pc,#132] ; [0x32ac] = 0x4c8c
        0x00003228:    f7fdfea0    ....    BL       Draw_pic ; 0xf6c
        0x0000322c:    230c        .#      MOVS     r3,#0xc
        0x0000322e:    2218        ."      MOVS     r2,#0x18
        0x00003230:    2124        $!      MOVS     r1,#0x24
        0x00003232:    4824        $H      LDR      r0,[pc,#144] ; [0x32c4] = 0x5c4c
        0x00003234:    f7fdfe9a    ....    BL       Draw_pic ; 0xf6c
        0x00003238:    230c        .#      MOVS     r3,#0xc
        0x0000323a:    2218        ."      MOVS     r2,#0x18
        0x0000323c:    2130        0!      MOVS     r1,#0x30
        0x0000323e:    4821        !H      LDR      r0,[pc,#132] ; [0x32c4] = 0x5c4c
        0x00003240:    f7fdfe94    ....    BL       Draw_pic ; 0xf6c
        0x00003244:    230c        .#      MOVS     r3,#0xc
        0x00003246:    2218        ."      MOVS     r2,#0x18
        0x00003248:    2148        H!      MOVS     r1,#0x48
        0x0000324a:    4824        $H      LDR      r0,[pc,#144] ; [0x32dc] = 0x654c
        0x0000324c:    f7fdfe8e    ....    BL       Draw_pic ; 0xf6c
        0x00003250:    230c        .#      MOVS     r3,#0xc
        0x00003252:    2218        ."      MOVS     r2,#0x18
        0x00003254:    2160        `!      MOVS     r1,#0x60
        0x00003256:    4816        .H      LDR      r0,[pc,#88] ; [0x32b0] = 0x5d6c
        0x00003258:    f7fdfe88    ....    BL       Draw_pic ; 0xf6c
        0x0000325c:    230c        .#      MOVS     r3,#0xc
        0x0000325e:    2218        ."      MOVS     r2,#0x18
        0x00003260:    216c        l!      MOVS     r1,#0x6c
        0x00003262:    481a        .H      LDR      r0,[pc,#104] ; [0x32cc] = 0x57cc
        0x00003264:    f7fdfe82    ....    BL       Draw_pic ; 0xf6c
        0x00003268:    230c        .#      MOVS     r3,#0xc
        0x0000326a:    2218        ."      MOVS     r2,#0x18
        0x0000326c:    2184        .!      MOVS     r1,#0x84
        0x0000326e:    4814        .H      LDR      r0,[pc,#80] ; [0x32c0] = 0x58ec
        0x00003270:    f7fdfe7c    ..|.    BL       Draw_pic ; 0xf6c
        0x00003274:    230c        .#      MOVS     r3,#0xc
        0x00003276:    2218        ."      MOVS     r2,#0x18
        0x00003278:    2190        .!      MOVS     r1,#0x90
        0x0000327a:    4815        .H      LDR      r0,[pc,#84] ; [0x32d0] = 0x480c
        0x0000327c:    f7fdfe76    ..v.    BL       Draw_pic ; 0xf6c
        0x00003280:    230c        .#      MOVS     r3,#0xc
        0x00003282:    2218        ."      MOVS     r2,#0x18
        0x00003284:    219c        .!      MOVS     r1,#0x9c
        0x00003286:    4816        .H      LDR      r0,[pc,#88] ; [0x32e0] = 0x5e8c
        0x00003288:    f7fdfe70    ..p.    BL       Draw_pic ; 0xf6c
        0x0000328c:    230c        .#      MOVS     r3,#0xc
        0x0000328e:    2218        ."      MOVS     r2,#0x18
        0x00003290:    21a8        .!      MOVS     r1,#0xa8
        0x00003292:    480c        .H      LDR      r0,[pc,#48] ; [0x32c4] = 0x5c4c
        0x00003294:    f7fdfe6a    ..j.    BL       Draw_pic ; 0xf6c
        0x00003298:    230c        .#      MOVS     r3,#0xc
        0x0000329a:    2218        ."      MOVS     r2,#0x18
        0x0000329c:    21b4        .!      MOVS     r1,#0xb4
        0x0000329e:    4803        .H      LDR      r0,[pc,#12] ; [0x32ac] = 0x4c8c
        0x000032a0:    f7fdfe64    ..d.    BL       Draw_pic ; 0xf6c
        0x000032a4:    bd10        ..      POP      {r4,pc}
    $d
        0x000032a6:    0000        ..      DCW    0
        0x000032a8:    0000c350    P...    DCD    50000
        0x000032ac:    00004c8c    .L..    DCD    19596
        0x000032b0:    00005d6c    l]..    DCD    23916
        0x000032b4:    00004fec    .O..    DCD    20460
        0x000032b8:    00005b2c    ,[..    DCD    23340
        0x000032bc:    000056ac    .V..    DCD    22188
        0x000032c0:    000058ec    .X..    DCD    22764
        0x000032c4:    00005c4c    L\..    DCD    23628
        0x000032c8:    00006f6c    lo..    DCD    28524
        0x000032cc:    000057cc    .W..    DCD    22476
        0x000032d0:    0000480c    .H..    DCD    18444
        0x000032d4:    0000492c    ,I..    DCD    18732
        0x000032d8:    0000546c    lT..    DCD    21612
        0x000032dc:    0000654c    Le..    DCD    25932
        0x000032e0:    00005e8c    .^..    DCD    24204
    $t
    i.draw_page6
    draw_page6
        0x000032e4:    b510        ..      PUSH     {r4,lr}
        0x000032e6:    486c        lH      LDR      r0,[pc,#432] ; [0x3498] = 0xc350
        0x000032e8:    f7fdfe37    ..7.    BL       Delay ; 0xf5a
        0x000032ec:    f7fef978    ..x.    BL       LCD_clear ; 0x15e0
        0x000032f0:    230c        .#      MOVS     r3,#0xc
        0x000032f2:    2200        ."      MOVS     r2,#0
        0x000032f4:    4611        .F      MOV      r1,r2
        0x000032f6:    4869        iH      LDR      r0,[pc,#420] ; [0x349c] = 0x546c
        0x000032f8:    f7fdfe38    ..8.    BL       Draw_pic ; 0xf6c
        0x000032fc:    230c        .#      MOVS     r3,#0xc
        0x000032fe:    2200        ."      MOVS     r2,#0
        0x00003300:    4619        .F      MOV      r1,r3
        0x00003302:    4867        gH      LDR      r0,[pc,#412] ; [0x34a0] = 0x4c8c
        0x00003304:    f7fdfe32    ..2.    BL       Draw_pic ; 0xf6c
        0x00003308:    230c        .#      MOVS     r3,#0xc
        0x0000330a:    2200        ."      MOVS     r2,#0
        0x0000330c:    2118        .!      MOVS     r1,#0x18
        0x0000330e:    4865        eH      LDR      r0,[pc,#404] ; [0x34a4] = 0x4b6c
        0x00003310:    f7fdfe2c    ..,.    BL       Draw_pic ; 0xf6c
        0x00003314:    230c        .#      MOVS     r3,#0xc
        0x00003316:    2200        ."      MOVS     r2,#0
        0x00003318:    2124        $!      MOVS     r1,#0x24
        0x0000331a:    4863        cH      LDR      r0,[pc,#396] ; [0x34a8] = 0x60cc
        0x0000331c:    f7fdfe26    ..&.    BL       Draw_pic ; 0xf6c
        0x00003320:    230c        .#      MOVS     r3,#0xc
        0x00003322:    2200        ."      MOVS     r2,#0
        0x00003324:    2130        0!      MOVS     r1,#0x30
        0x00003326:    4861        aH      LDR      r0,[pc,#388] ; [0x34ac] = 0x480c
        0x00003328:    f7fdfe20    .. .    BL       Draw_pic ; 0xf6c
        0x0000332c:    230c        .#      MOVS     r3,#0xc
        0x0000332e:    2200        ."      MOVS     r2,#0
        0x00003330:    213c        <!      MOVS     r1,#0x3c
        0x00003332:    485f        _H      LDR      r0,[pc,#380] ; [0x34b0] = 0x5d6c
        0x00003334:    f7fdfe1a    ....    BL       Draw_pic ; 0xf6c
        0x00003338:    230c        .#      MOVS     r3,#0xc
        0x0000333a:    2200        ."      MOVS     r2,#0
        0x0000333c:    2148        H!      MOVS     r1,#0x48
        0x0000333e:    4858        XH      LDR      r0,[pc,#352] ; [0x34a0] = 0x4c8c
        0x00003340:    f7fdfe14    ....    BL       Draw_pic ; 0xf6c
        0x00003344:    230c        .#      MOVS     r3,#0xc
        0x00003346:    2200        ."      MOVS     r2,#0
        0x00003348:    2154        T!      MOVS     r1,#0x54
        0x0000334a:    485a        ZH      LDR      r0,[pc,#360] ; [0x34b4] = 0x5b2c
        0x0000334c:    f7fdfe0e    ....    BL       Draw_pic ; 0xf6c
        0x00003350:    230c        .#      MOVS     r3,#0xc
        0x00003352:    461a        .F      MOV      r2,r3
        0x00003354:    2100        .!      MOVS     r1,#0
        0x00003356:    4858        XH      LDR      r0,[pc,#352] ; [0x34b8] = 0x58ec
        0x00003358:    f7fdfe08    ....    BL       Draw_pic ; 0xf6c
        0x0000335c:    230c        .#      MOVS     r3,#0xc
        0x0000335e:    461a        .F      MOV      r2,r3
        0x00003360:    4619        .F      MOV      r1,r3
        0x00003362:    4854        TH      LDR      r0,[pc,#336] ; [0x34b4] = 0x5b2c
        0x00003364:    f7fdfe02    ....    BL       Draw_pic ; 0xf6c
        0x00003368:    230c        .#      MOVS     r3,#0xc
        0x0000336a:    461a        .F      MOV      r2,r3
        0x0000336c:    2118        .!      MOVS     r1,#0x18
        0x0000336e:    484c        LH      LDR      r0,[pc,#304] ; [0x34a0] = 0x4c8c
        0x00003370:    f7fdfdfc    ....    BL       Draw_pic ; 0xf6c
        0x00003374:    230c        .#      MOVS     r3,#0xc
        0x00003376:    461a        .F      MOV      r2,r3
        0x00003378:    2124        $!      MOVS     r1,#0x24
        0x0000337a:    4850        PH      LDR      r0,[pc,#320] ; [0x34bc] = 0x5c4c
        0x0000337c:    f7fdfdf6    ....    BL       Draw_pic ; 0xf6c
        0x00003380:    230c        .#      MOVS     r3,#0xc
        0x00003382:    461a        .F      MOV      r2,r3
        0x00003384:    2130        0!      MOVS     r1,#0x30
        0x00003386:    484d        MH      LDR      r0,[pc,#308] ; [0x34bc] = 0x5c4c
        0x00003388:    f7fdfdf0    ....    BL       Draw_pic ; 0xf6c
        0x0000338c:    230c        .#      MOVS     r3,#0xc
        0x0000338e:    461a        .F      MOV      r2,r3
        0x00003390:    2148        H!      MOVS     r1,#0x48
        0x00003392:    484b        KH      LDR      r0,[pc,#300] ; [0x34c0] = 0x6f6c
        0x00003394:    f7fdfdea    ....    BL       Draw_pic ; 0xf6c
        0x00003398:    230c        .#      MOVS     r3,#0xc
        0x0000339a:    461a        .F      MOV      r2,r3
        0x0000339c:    2160        `!      MOVS     r1,#0x60
        0x0000339e:    4844        DH      LDR      r0,[pc,#272] ; [0x34b0] = 0x5d6c
        0x000033a0:    f7fdfde4    ....    BL       Draw_pic ; 0xf6c
        0x000033a4:    230c        .#      MOVS     r3,#0xc
        0x000033a6:    461a        .F      MOV      r2,r3
        0x000033a8:    216c        l!      MOVS     r1,#0x6c
        0x000033aa:    4846        FH      LDR      r0,[pc,#280] ; [0x34c4] = 0x57cc
        0x000033ac:    f7fdfdde    ....    BL       Draw_pic ; 0xf6c
        0x000033b0:    230c        .#      MOVS     r3,#0xc
        0x000033b2:    461a        .F      MOV      r2,r3
        0x000033b4:    2184        .!      MOVS     r1,#0x84
        0x000033b6:    483a        :H      LDR      r0,[pc,#232] ; [0x34a0] = 0x4c8c
        0x000033b8:    f7fdfdd8    ....    BL       Draw_pic ; 0xf6c
        0x000033bc:    230c        .#      MOVS     r3,#0xc
        0x000033be:    461a        .F      MOV      r2,r3
        0x000033c0:    2190        .!      MOVS     r1,#0x90
        0x000033c2:    4841        AH      LDR      r0,[pc,#260] ; [0x34c8] = 0x56ac
        0x000033c4:    f7fdfdd2    ....    BL       Draw_pic ; 0xf6c
        0x000033c8:    230c        .#      MOVS     r3,#0xc
        0x000033ca:    461a        .F      MOV      r2,r3
        0x000033cc:    219c        .!      MOVS     r1,#0x9c
        0x000033ce:    4837        7H      LDR      r0,[pc,#220] ; [0x34ac] = 0x480c
        0x000033d0:    f7fdfdcc    ....    BL       Draw_pic ; 0xf6c
        0x000033d4:    230c        .#      MOVS     r3,#0xc
        0x000033d6:    461a        .F      MOV      r2,r3
        0x000033d8:    21a8        .!      MOVS     r1,#0xa8
        0x000033da:    483c        <H      LDR      r0,[pc,#240] ; [0x34cc] = 0x492c
        0x000033dc:    f7fdfdc6    ....    BL       Draw_pic ; 0xf6c
        0x000033e0:    230c        .#      MOVS     r3,#0xc
        0x000033e2:    461a        .F      MOV      r2,r3
        0x000033e4:    21b4        .!      MOVS     r1,#0xb4
        0x000033e6:    482d        -H      LDR      r0,[pc,#180] ; [0x349c] = 0x546c
        0x000033e8:    f7fdfdc0    ....    BL       Draw_pic ; 0xf6c
        0x000033ec:    230c        .#      MOVS     r3,#0xc
        0x000033ee:    461a        .F      MOV      r2,r3
        0x000033f0:    21c0        .!      MOVS     r1,#0xc0
        0x000033f2:    482b        +H      LDR      r0,[pc,#172] ; [0x34a0] = 0x4c8c
        0x000033f4:    f7fdfdba    ....    BL       Draw_pic ; 0xf6c
        0x000033f8:    230c        .#      MOVS     r3,#0xc
        0x000033fa:    2218        ."      MOVS     r2,#0x18
        0x000033fc:    2100        .!      MOVS     r1,#0
        0x000033fe:    482e        .H      LDR      r0,[pc,#184] ; [0x34b8] = 0x58ec
        0x00003400:    f7fdfdb4    ....    BL       Draw_pic ; 0xf6c
        0x00003404:    230c        .#      MOVS     r3,#0xc
        0x00003406:    2218        ."      MOVS     r2,#0x18
        0x00003408:    4619        .F      MOV      r1,r3
        0x0000340a:    482a        *H      LDR      r0,[pc,#168] ; [0x34b4] = 0x5b2c
        0x0000340c:    f7fdfdae    ....    BL       Draw_pic ; 0xf6c
        0x00003410:    230c        .#      MOVS     r3,#0xc
        0x00003412:    2218        ."      MOVS     r2,#0x18
        0x00003414:    4611        .F      MOV      r1,r2
        0x00003416:    4822        "H      LDR      r0,[pc,#136] ; [0x34a0] = 0x4c8c
        0x00003418:    f7fdfda8    ....    BL       Draw_pic ; 0xf6c
        0x0000341c:    230c        .#      MOVS     r3,#0xc
        0x0000341e:    2218        ."      MOVS     r2,#0x18
        0x00003420:    2124        $!      MOVS     r1,#0x24
        0x00003422:    4826        &H      LDR      r0,[pc,#152] ; [0x34bc] = 0x5c4c
        0x00003424:    f7fdfda2    ....    BL       Draw_pic ; 0xf6c
        0x00003428:    230c        .#      MOVS     r3,#0xc
        0x0000342a:    2218        ."      MOVS     r2,#0x18
        0x0000342c:    2130        0!      MOVS     r1,#0x30
        0x0000342e:    4823        #H      LDR      r0,[pc,#140] ; [0x34bc] = 0x5c4c
        0x00003430:    f7fdfd9c    ....    BL       Draw_pic ; 0xf6c
        0x00003434:    230c        .#      MOVS     r3,#0xc
        0x00003436:    2218        ."      MOVS     r2,#0x18
        0x00003438:    2148        H!      MOVS     r1,#0x48
        0x0000343a:    4825        %H      LDR      r0,[pc,#148] ; [0x34d0] = 0x654c
        0x0000343c:    f7fdfd96    ....    BL       Draw_pic ; 0xf6c
        0x00003440:    230c        .#      MOVS     r3,#0xc
        0x00003442:    2218        ."      MOVS     r2,#0x18
        0x00003444:    2160        `!      MOVS     r1,#0x60
        0x00003446:    481a        .H      LDR      r0,[pc,#104] ; [0x34b0] = 0x5d6c
        0x00003448:    f7fdfd90    ....    BL       Draw_pic ; 0xf6c
        0x0000344c:    230c        .#      MOVS     r3,#0xc
        0x0000344e:    2218        ."      MOVS     r2,#0x18
        0x00003450:    216c        l!      MOVS     r1,#0x6c
        0x00003452:    481c        .H      LDR      r0,[pc,#112] ; [0x34c4] = 0x57cc
        0x00003454:    f7fdfd8a    ....    BL       Draw_pic ; 0xf6c
        0x00003458:    230c        .#      MOVS     r3,#0xc
        0x0000345a:    2218        ."      MOVS     r2,#0x18
        0x0000345c:    2184        .!      MOVS     r1,#0x84
        0x0000345e:    4816        .H      LDR      r0,[pc,#88] ; [0x34b8] = 0x58ec
        0x00003460:    f7fdfd84    ....    BL       Draw_pic ; 0xf6c
        0x00003464:    230c        .#      MOVS     r3,#0xc
        0x00003466:    2218        ."      MOVS     r2,#0x18
        0x00003468:    2190        .!      MOVS     r1,#0x90
        0x0000346a:    4810        .H      LDR      r0,[pc,#64] ; [0x34ac] = 0x480c
        0x0000346c:    f7fdfd7e    ..~.    BL       Draw_pic ; 0xf6c
        0x00003470:    230c        .#      MOVS     r3,#0xc
        0x00003472:    2218        ."      MOVS     r2,#0x18
        0x00003474:    219c        .!      MOVS     r1,#0x9c
        0x00003476:    4817        .H      LDR      r0,[pc,#92] ; [0x34d4] = 0x5e8c
        0x00003478:    f7fdfd78    ..x.    BL       Draw_pic ; 0xf6c
        0x0000347c:    230c        .#      MOVS     r3,#0xc
        0x0000347e:    2218        ."      MOVS     r2,#0x18
        0x00003480:    21a8        .!      MOVS     r1,#0xa8
        0x00003482:    480e        .H      LDR      r0,[pc,#56] ; [0x34bc] = 0x5c4c
        0x00003484:    f7fdfd72    ..r.    BL       Draw_pic ; 0xf6c
        0x00003488:    230c        .#      MOVS     r3,#0xc
        0x0000348a:    2218        ."      MOVS     r2,#0x18
        0x0000348c:    21b4        .!      MOVS     r1,#0xb4
        0x0000348e:    4804        .H      LDR      r0,[pc,#16] ; [0x34a0] = 0x4c8c
        0x00003490:    f7fdfd6c    ..l.    BL       Draw_pic ; 0xf6c
        0x00003494:    bd10        ..      POP      {r4,pc}
    $d
        0x00003496:    0000        ..      DCW    0
        0x00003498:    0000c350    P...    DCD    50000
        0x0000349c:    0000546c    lT..    DCD    21612
        0x000034a0:    00004c8c    .L..    DCD    19596
        0x000034a4:    00004b6c    lK..    DCD    19308
        0x000034a8:    000060cc    .`..    DCD    24780
        0x000034ac:    0000480c    .H..    DCD    18444
        0x000034b0:    00005d6c    l]..    DCD    23916
        0x000034b4:    00005b2c    ,[..    DCD    23340
        0x000034b8:    000058ec    .X..    DCD    22764
        0x000034bc:    00005c4c    L\..    DCD    23628
        0x000034c0:    00006f6c    lo..    DCD    28524
        0x000034c4:    000057cc    .W..    DCD    22476
        0x000034c8:    000056ac    .V..    DCD    22188
        0x000034cc:    0000492c    ,I..    DCD    18732
        0x000034d0:    0000654c    Le..    DCD    25932
        0x000034d4:    00005e8c    .^..    DCD    24204
    $t
    i.main
    main
        0x000034d8:    b086        ..      SUB      sp,sp,#0x18
        0x000034da:    2001        .       MOVS     r0,#1
        0x000034dc:    49da        .I      LDR      r1,[pc,#872] ; [0x3848] = 0xe000e100
        0x000034de:    6008        .`      STR      r0,[r1,#0]
        0x000034e0:    2000        .       MOVS     r0,#0
        0x000034e2:    49da        .I      LDR      r1,[pc,#872] ; [0x384c] = 0x20000030
        0x000034e4:    6008        .`      STR      r0,[r1,#0]
        0x000034e6:    48da        .H      LDR      r0,[pc,#872] ; [0x3850] = 0x3d9
        0x000034e8:    49da        .I      LDR      r1,[pc,#872] ; [0x3854] = 0x20000008
        0x000034ea:    6008        .`      STR      r0,[r1,#0]
        0x000034ec:    1f00        ..      SUBS     r0,r0,#4
        0x000034ee:    49da        .I      LDR      r1,[pc,#872] ; [0x3858] = 0x20000010
        0x000034f0:    6008        .`      STR      r0,[r1,#0]
        0x000034f2:    2066        f       MOVS     r0,#0x66
        0x000034f4:    49d9        .I      LDR      r1,[pc,#868] ; [0x385c] = 0x20000014
        0x000034f6:    6008        .`      STR      r0,[r1,#0]
        0x000034f8:    204a        J       MOVS     r0,#0x4a
        0x000034fa:    49d9        .I      LDR      r1,[pc,#868] ; [0x3860] = 0x20000018
        0x000034fc:    6008        .`      STR      r0,[r1,#0]
        0x000034fe:    2000        .       MOVS     r0,#0
        0x00003500:    49d8        .I      LDR      r1,[pc,#864] ; [0x3864] = 0x20000022
        0x00003502:    8008        ..      STRH     r0,[r1,#0]
        0x00003504:    200f        .       MOVS     r0,#0xf
        0x00003506:    49d8        .I      LDR      r1,[pc,#864] ; [0x3868] = 0x2000000c
        0x00003508:    6008        .`      STR      r0,[r1,#0]
        0x0000350a:    a903        ..      ADD      r1,sp,#0xc
        0x0000350c:    48d1        .H      LDR      r0,[pc,#836] ; [0x3854] = 0x20000008
        0x0000350e:    f7fef88f    ....    BL       MSI001_Frequency_calc ; 0x1630
        0x00003512:    2118        .!      MOVS     r1,#0x18
        0x00003514:    48d5        .H      LDR      r0,[pc,#852] ; [0x386c] = 0x43420
        0x00003516:    f7fef92d    ..-.    BL       SPI_Sent ; 0x1774
        0x0000351a:    20ff        .       MOVS     r0,#0xff
        0x0000351c:    302d        -0      ADDS     r0,r0,#0x2d
        0x0000351e:    f7fdfd1c    ....    BL       Delay ; 0xf5a
        0x00003522:    2118        .!      MOVS     r1,#0x18
        0x00003524:    48d2        .H      LDR      r0,[pc,#840] ; [0x3870] = 0x28bb85
        0x00003526:    f7fef925    ..%.    BL       SPI_Sent ; 0x1774
        0x0000352a:    20ff        .       MOVS     r0,#0xff
        0x0000352c:    302d        -0      ADDS     r0,r0,#0x2d
        0x0000352e:    f7fdfd14    ....    BL       Delay ; 0xf5a
        0x00003532:    9903        ..      LDR      r1,[sp,#0xc]
        0x00003534:    0409        ..      LSLS     r1,r1,#16
        0x00003536:    9a04        ..      LDR      r2,[sp,#0x10]
        0x00003538:    0112        ..      LSLS     r2,r2,#4
        0x0000353a:    1889        ..      ADDS     r1,r1,r2
        0x0000353c:    1c88        ..      ADDS     r0,r1,#2
        0x0000353e:    2118        .!      MOVS     r1,#0x18
        0x00003540:    f7fef918    ....    BL       SPI_Sent ; 0x1774
        0x00003544:    20ff        .       MOVS     r0,#0xff
        0x00003546:    302d        -0      ADDS     r0,r0,#0x2d
        0x00003548:    f7fdfd07    ....    BL       Delay ; 0xf5a
        0x0000354c:    49c6        .I      LDR      r1,[pc,#792] ; [0x3868] = 0x2000000c
        0x0000354e:    6809        .h      LDR      r1,[r1,#0]
        0x00003550:    0109        ..      LSLS     r1,r1,#4
        0x00003552:    4ac8        .J      LDR      r2,[pc,#800] ; [0x3874] = 0xc001
        0x00003554:    1888        ..      ADDS     r0,r1,r2
        0x00003556:    2118        .!      MOVS     r1,#0x18
        0x00003558:    f7fef90c    ....    BL       SPI_Sent ; 0x1774
        0x0000355c:    20ff        .       MOVS     r0,#0xff
        0x0000355e:    302d        -0      ADDS     r0,r0,#0x2d
        0x00003560:    f7fdfcfb    ....    BL       Delay ; 0xf5a
        0x00003564:    2118        .!      MOVS     r1,#0x18
        0x00003566:    48c4        .H      LDR      r0,[pc,#784] ; [0x3878] = 0x200016
        0x00003568:    f7fef904    ....    BL       SPI_Sent ; 0x1774
        0x0000356c:    20ff        .       MOVS     r0,#0xff
        0x0000356e:    302d        -0      ADDS     r0,r0,#0x2d
        0x00003570:    f7fdfcf3    ....    BL       Delay ; 0xf5a
        0x00003574:    2118        .!      MOVS     r1,#0x18
        0x00003576:    48c1        .H      LDR      r0,[pc,#772] ; [0x387c] = 0xfa03
        0x00003578:    f7fef8fc    ....    BL       SPI_Sent ; 0x1774
        0x0000357c:    48b5        .H      LDR      r0,[pc,#724] ; [0x3854] = 0x20000008
        0x0000357e:    6800        .h      LDR      r0,[r0,#0]
        0x00003580:    f7fef910    ....    BL       TubeShow ; 0x17a4
        0x00003584:    f7fef848    ..H.    BL       LCD_init ; 0x1618
        0x00003588:    2400        .$      MOVS     r4,#0
        0x0000358a:    2000        .       MOVS     r0,#0
        0x0000358c:    49bc        .I      LDR      r1,[pc,#752] ; [0x3880] = 0x20000020
        0x0000358e:    8008        ..      STRH     r0,[r1,#0]
        0x00003590:    49bc        .I      LDR      r1,[pc,#752] ; [0x3884] = 0x20000028
        0x00003592:    6008        .`      STR      r0,[r1,#0]
        0x00003594:    9005        ..      STR      r0,[sp,#0x14]
        0x00003596:    2500        .%      MOVS     r5,#0
        0x00003598:    f7fef93c    ..<.    BL       draw_homepage ; 0x1814
        0x0000359c:    e152        R.      B        0x3844 ; main + 876
        0x0000359e:    48b1        .H      LDR      r0,[pc,#708] ; [0x3864] = 0x20000022
        0x000035a0:    8800        ..      LDRH     r0,[r0,#0]
        0x000035a2:    2800        .(      CMP      r0,#0
        0x000035a4:    d104        ..      BNE      0x35b0 ; main + 216
        0x000035a6:    48ab        .H      LDR      r0,[pc,#684] ; [0x3854] = 0x20000008
        0x000035a8:    6800        .h      LDR      r0,[r0,#0]
        0x000035aa:    f7fef8fb    ....    BL       TubeShow ; 0x17a4
        0x000035ae:    e149        I.      B        0x3844 ; main + 876
        0x000035b0:    48ac        .H      LDR      r0,[pc,#688] ; [0x3864] = 0x20000022
        0x000035b2:    8800        ..      LDRH     r0,[r0,#0]
        0x000035b4:    2801        .(      CMP      r0,#1
        0x000035b6:    d104        ..      BNE      0x35c2 ; main + 234
        0x000035b8:    48a6        .H      LDR      r0,[pc,#664] ; [0x3854] = 0x20000008
        0x000035ba:    6800        .h      LDR      r0,[r0,#0]
        0x000035bc:    f7fef8f2    ....    BL       TubeShow ; 0x17a4
        0x000035c0:    e140        @.      B        0x3844 ; main + 876
        0x000035c2:    48a8        .H      LDR      r0,[pc,#672] ; [0x3864] = 0x20000022
        0x000035c4:    8800        ..      LDRH     r0,[r0,#0]
        0x000035c6:    2802        .(      CMP      r0,#2
        0x000035c8:    d11f        ..      BNE      0x360a ; main + 306
        0x000035ca:    e00f        ..      B        0x35ec ; main + 276
        0x000035cc:    48ac        .H      LDR      r0,[pc,#688] ; [0x3880] = 0x20000020
        0x000035ce:    8800        ..      LDRH     r0,[r0,#0]
        0x000035d0:    1c40        @.      ADDS     r0,r0,#1
        0x000035d2:    49ab        .I      LDR      r1,[pc,#684] ; [0x3880] = 0x20000020
        0x000035d4:    8008        ..      STRH     r0,[r1,#0]
        0x000035d6:    48ac        .H      LDR      r0,[pc,#688] ; [0x3888] = 0x40007000
        0x000035d8:    6800        .h      LDR      r0,[r0,#0]
        0x000035da:    49aa        .I      LDR      r1,[pc,#680] ; [0x3884] = 0x20000028
        0x000035dc:    6008        .`      STR      r0,[r1,#0]
        0x000035de:    20ff        .       MOVS     r0,#0xff
        0x000035e0:    30f5        .0      ADDS     r0,r0,#0xf5
        0x000035e2:    f7fdfcba    ....    BL       Delay ; 0xf5a
        0x000035e6:    48a7        .H      LDR      r0,[pc,#668] ; [0x3884] = 0x20000028
        0x000035e8:    6800        .h      LDR      r0,[r0,#0]
        0x000035ea:    1824        $.      ADDS     r4,r4,r0
        0x000035ec:    48a4        .H      LDR      r0,[pc,#656] ; [0x3880] = 0x20000020
        0x000035ee:    8800        ..      LDRH     r0,[r0,#0]
        0x000035f0:    49a6        .I      LDR      r1,[pc,#664] ; [0x388c] = 0x2710
        0x000035f2:    4288        .B      CMP      r0,r1
        0x000035f4:    dbea        ..      BLT      0x35cc ; main + 244
        0x000035f6:    4620         F      MOV      r0,r4
        0x000035f8:    f7fef8d4    ....    BL       TubeShow ; 0x17a4
        0x000035fc:    2400        .$      MOVS     r4,#0
        0x000035fe:    2000        .       MOVS     r0,#0
        0x00003600:    499f        .I      LDR      r1,[pc,#636] ; [0x3880] = 0x20000020
        0x00003602:    8008        ..      STRH     r0,[r1,#0]
        0x00003604:    499f        .I      LDR      r1,[pc,#636] ; [0x3884] = 0x20000028
        0x00003606:    6008        .`      STR      r0,[r1,#0]
        0x00003608:    e11c        ..      B        0x3844 ; main + 876
        0x0000360a:    4896        .H      LDR      r0,[pc,#600] ; [0x3864] = 0x20000022
        0x0000360c:    8800        ..      LDRH     r0,[r0,#0]
        0x0000360e:    2803        .(      CMP      r0,#3
        0x00003610:    d172        r.      BNE      0x36f8 ; main + 544
        0x00003612:    489f        .H      LDR      r0,[pc,#636] ; [0x3890] = 0x20000024
        0x00003614:    8800        ..      LDRH     r0,[r0,#0]
        0x00003616:    2800        .(      CMP      r0,#0
        0x00003618:    d16f        o.      BNE      0x36fa ; main + 546
        0x0000361a:    2001        .       MOVS     r0,#1
        0x0000361c:    498b        .I      LDR      r1,[pc,#556] ; [0x384c] = 0x20000030
        0x0000361e:    6008        .`      STR      r0,[r1,#0]
        0x00003620:    2000        .       MOVS     r0,#0
        0x00003622:    e005        ..      B        0x3630 ; main + 344
        0x00003624:    2100        .!      MOVS     r1,#0
        0x00003626:    0082        ..      LSLS     r2,r0,#2
        0x00003628:    4b9a        .K      LDR      r3,[pc,#616] ; [0x3894] = 0x20000114
        0x0000362a:    5099        .P      STR      r1,[r3,r2]
        0x0000362c:    1c41        A.      ADDS     r1,r0,#1
        0x0000362e:    b288        ..      UXTH     r0,r1
        0x00003630:    2814        .(      CMP      r0,#0x14
        0x00003632:    dbf7        ..      BLT      0x3624 ; main + 332
        0x00003634:    2000        .       MOVS     r0,#0
        0x00003636:    4998        .I      LDR      r1,[pc,#608] ; [0x3898] = 0x20000034
        0x00003638:    6008        .`      STR      r0,[r1,#0]
        0x0000363a:    4885        .H      LDR      r0,[pc,#532] ; [0x3850] = 0x3d9
        0x0000363c:    386e        n8      SUBS     r0,r0,#0x6e
        0x0000363e:    9002        ..      STR      r0,[sp,#8]
        0x00003640:    e097        ..      B        0x3772 ; main + 666
        0x00003642:    a903        ..      ADD      r1,sp,#0xc
        0x00003644:    a802        ..      ADD      r0,sp,#8
        0x00003646:    f7fdfff3    ....    BL       MSI001_Frequency_calc ; 0x1630
        0x0000364a:    2118        .!      MOVS     r1,#0x18
        0x0000364c:    4887        .H      LDR      r0,[pc,#540] ; [0x386c] = 0x43420
        0x0000364e:    f7fef891    ....    BL       SPI_Sent ; 0x1774
        0x00003652:    20ff        .       MOVS     r0,#0xff
        0x00003654:    302d        -0      ADDS     r0,r0,#0x2d
        0x00003656:    f7fdfc80    ....    BL       Delay ; 0xf5a
        0x0000365a:    2118        .!      MOVS     r1,#0x18
        0x0000365c:    4884        .H      LDR      r0,[pc,#528] ; [0x3870] = 0x28bb85
        0x0000365e:    f7fef889    ....    BL       SPI_Sent ; 0x1774
        0x00003662:    20ff        .       MOVS     r0,#0xff
        0x00003664:    302d        -0      ADDS     r0,r0,#0x2d
        0x00003666:    f7fdfc78    ..x.    BL       Delay ; 0xf5a
        0x0000366a:    9903        ..      LDR      r1,[sp,#0xc]
        0x0000366c:    0409        ..      LSLS     r1,r1,#16
        0x0000366e:    9a04        ..      LDR      r2,[sp,#0x10]
        0x00003670:    0112        ..      LSLS     r2,r2,#4
        0x00003672:    1889        ..      ADDS     r1,r1,r2
        0x00003674:    1c88        ..      ADDS     r0,r1,#2
        0x00003676:    2118        .!      MOVS     r1,#0x18
        0x00003678:    f7fef87c    ..|.    BL       SPI_Sent ; 0x1774
        0x0000367c:    20ff        .       MOVS     r0,#0xff
        0x0000367e:    302d        -0      ADDS     r0,r0,#0x2d
        0x00003680:    f7fdfc6b    ..k.    BL       Delay ; 0xf5a
        0x00003684:    4978        xI      LDR      r1,[pc,#480] ; [0x3868] = 0x2000000c
        0x00003686:    6809        .h      LDR      r1,[r1,#0]
        0x00003688:    0109        ..      LSLS     r1,r1,#4
        0x0000368a:    4a7a        zJ      LDR      r2,[pc,#488] ; [0x3874] = 0xc001
        0x0000368c:    1888        ..      ADDS     r0,r1,r2
        0x0000368e:    2118        .!      MOVS     r1,#0x18
        0x00003690:    f7fef870    ..p.    BL       SPI_Sent ; 0x1774
        0x00003694:    20ff        .       MOVS     r0,#0xff
        0x00003696:    302d        -0      ADDS     r0,r0,#0x2d
        0x00003698:    f7fdfc5f    .._.    BL       Delay ; 0xf5a
        0x0000369c:    2118        .!      MOVS     r1,#0x18
        0x0000369e:    4876        vH      LDR      r0,[pc,#472] ; [0x3878] = 0x200016
        0x000036a0:    f7fef868    ..h.    BL       SPI_Sent ; 0x1774
        0x000036a4:    20ff        .       MOVS     r0,#0xff
        0x000036a6:    302d        -0      ADDS     r0,r0,#0x2d
        0x000036a8:    f7fdfc57    ..W.    BL       Delay ; 0xf5a
        0x000036ac:    2118        .!      MOVS     r1,#0x18
        0x000036ae:    4873        sH      LDR      r0,[pc,#460] ; [0x387c] = 0xfa03
        0x000036b0:    f7fef860    ..`.    BL       SPI_Sent ; 0x1774
        0x000036b4:    9802        ..      LDR      r0,[sp,#8]
        0x000036b6:    f7fef875    ..u.    BL       TubeShow ; 0x17a4
        0x000036ba:    2000        .       MOVS     r0,#0
        0x000036bc:    9001        ..      STR      r0,[sp,#4]
        0x000036be:    2500        .%      MOVS     r5,#0
        0x000036c0:    2700        .'      MOVS     r7,#0
        0x000036c2:    e033        3.      B        0x372c ; main + 596
        0x000036c4:    e00e        ..      B        0x36e4 ; main + 524
        0x000036c6:    486e        nH      LDR      r0,[pc,#440] ; [0x3880] = 0x20000020
        0x000036c8:    8800        ..      LDRH     r0,[r0,#0]
        0x000036ca:    1c40        @.      ADDS     r0,r0,#1
        0x000036cc:    496c        lI      LDR      r1,[pc,#432] ; [0x3880] = 0x20000020
        0x000036ce:    8008        ..      STRH     r0,[r1,#0]
        0x000036d0:    486d        mH      LDR      r0,[pc,#436] ; [0x3888] = 0x40007000
        0x000036d2:    6800        .h      LDR      r0,[r0,#0]
        0x000036d4:    496b        kI      LDR      r1,[pc,#428] ; [0x3884] = 0x20000028
        0x000036d6:    6008        .`      STR      r0,[r1,#0]
        0x000036d8:    2032        2       MOVS     r0,#0x32
        0x000036da:    f7fdfc3e    ..>.    BL       Delay ; 0xf5a
        0x000036de:    4869        iH      LDR      r0,[pc,#420] ; [0x3884] = 0x20000028
        0x000036e0:    6800        .h      LDR      r0,[r0,#0]
        0x000036e2:    1824        $.      ADDS     r4,r4,r0
        0x000036e4:    4866        fH      LDR      r0,[pc,#408] ; [0x3880] = 0x20000020
        0x000036e6:    8800        ..      LDRH     r0,[r0,#0]
        0x000036e8:    217d        }!      MOVS     r1,#0x7d
        0x000036ea:    00c9        ..      LSLS     r1,r1,#3
        0x000036ec:    4288        .B      CMP      r0,r1
        0x000036ee:    dbea        ..      BLT      0x36c6 ; main + 494
        0x000036f0:    2cc8        .,      CMP      r4,#0xc8
        0x000036f2:    d903        ..      BLS      0x36fc ; main + 548
        0x000036f4:    2001        .       MOVS     r0,#1
        0x000036f6:    e002        ..      B        0x36fe ; main + 550
        0x000036f8:    e096        ..      B        0x3828 ; main + 848
        0x000036fa:    e083        ..      B        0x3804 ; main + 812
        0x000036fc:    2000        .       MOVS     r0,#0
        0x000036fe:    214b        K!      MOVS     r1,#0x4b
        0x00003700:    00c9        ..      LSLS     r1,r1,#3
        0x00003702:    428c        .B      CMP      r4,r1
        0x00003704:    d201        ..      BCS      0x370a ; main + 562
        0x00003706:    2101        .!      MOVS     r1,#1
        0x00003708:    e000        ..      B        0x370c ; main + 564
        0x0000370a:    2100        .!      MOVS     r1,#0
        0x0000370c:    4008        .@      ANDS     r0,r0,r1
        0x0000370e:    2800        .(      CMP      r0,#0
        0x00003710:    d003        ..      BEQ      0x371a ; main + 578
        0x00003712:    9801        ..      LDR      r0,[sp,#4]
        0x00003714:    1c40        @.      ADDS     r0,r0,#1
        0x00003716:    b280        ..      UXTH     r0,r0
        0x00003718:    9001        ..      STR      r0,[sp,#4]
        0x0000371a:    192d        -.      ADDS     r5,r5,r4
        0x0000371c:    2400        .$      MOVS     r4,#0
        0x0000371e:    2000        .       MOVS     r0,#0
        0x00003720:    4957        WI      LDR      r1,[pc,#348] ; [0x3880] = 0x20000020
        0x00003722:    8008        ..      STRH     r0,[r1,#0]
        0x00003724:    4957        WI      LDR      r1,[pc,#348] ; [0x3884] = 0x20000028
        0x00003726:    6008        .`      STR      r0,[r1,#0]
        0x00003728:    1c78        x.      ADDS     r0,r7,#1
        0x0000372a:    b287        ..      UXTH     r7,r0
        0x0000372c:    2f09        ./      CMP      r7,#9
        0x0000372e:    dbc9        ..      BLT      0x36c4 ; main + 492
        0x00003730:    9801        ..      LDR      r0,[sp,#4]
        0x00003732:    2805        .(      CMP      r0,#5
        0x00003734:    db1a        ..      BLT      0x376c ; main + 660
        0x00003736:    9802        ..      LDR      r0,[sp,#8]
        0x00003738:    1e40        @.      SUBS     r0,r0,#1
        0x0000373a:    42b0        .B      CMP      r0,r6
        0x0000373c:    d10a        ..      BNE      0x3754 ; main + 636
        0x0000373e:    9805        ..      LDR      r0,[sp,#0x14]
        0x00003740:    4285        .B      CMP      r5,r0
        0x00003742:    d912        ..      BLS      0x376a ; main + 658
        0x00003744:    9505        ..      STR      r5,[sp,#0x14]
        0x00003746:    4954        TI      LDR      r1,[pc,#336] ; [0x3898] = 0x20000034
        0x00003748:    9802        ..      LDR      r0,[sp,#8]
        0x0000374a:    6809        .h      LDR      r1,[r1,#0]
        0x0000374c:    0089        ..      LSLS     r1,r1,#2
        0x0000374e:    4a51        QJ      LDR      r2,[pc,#324] ; [0x3894] = 0x20000114
        0x00003750:    5050        PP      STR      r0,[r2,r1]
        0x00003752:    e00a        ..      B        0x376a ; main + 658
        0x00003754:    9505        ..      STR      r5,[sp,#0x14]
        0x00003756:    4850        PH      LDR      r0,[pc,#320] ; [0x3898] = 0x20000034
        0x00003758:    6800        .h      LDR      r0,[r0,#0]
        0x0000375a:    1c40        @.      ADDS     r0,r0,#1
        0x0000375c:    494e        NI      LDR      r1,[pc,#312] ; [0x3898] = 0x20000034
        0x0000375e:    6008        .`      STR      r0,[r1,#0]
        0x00003760:    9802        ..      LDR      r0,[sp,#8]
        0x00003762:    6809        .h      LDR      r1,[r1,#0]
        0x00003764:    0089        ..      LSLS     r1,r1,#2
        0x00003766:    4a4b        KJ      LDR      r2,[pc,#300] ; [0x3894] = 0x20000114
        0x00003768:    5050        PP      STR      r0,[r2,r1]
        0x0000376a:    9e02        ..      LDR      r6,[sp,#8]
        0x0000376c:    9802        ..      LDR      r0,[sp,#8]
        0x0000376e:    1c40        @.      ADDS     r0,r0,#1
        0x00003770:    9002        ..      STR      r0,[sp,#8]
        0x00003772:    2187        .!      MOVS     r1,#0x87
        0x00003774:    00c9        ..      LSLS     r1,r1,#3
        0x00003776:    9802        ..      LDR      r0,[sp,#8]
        0x00003778:    4288        .B      CMP      r0,r1
        0x0000377a:    d200        ..      BCS      0x377e ; main + 678
        0x0000377c:    e761        a.      B        0x3642 ; main + 362
        0x0000377e:    2001        .       MOVS     r0,#1
        0x00003780:    4943        CI      LDR      r1,[pc,#268] ; [0x3890] = 0x20000024
        0x00003782:    8008        ..      STRH     r0,[r1,#0]
        0x00003784:    4945        EI      LDR      r1,[pc,#276] ; [0x389c] = 0x20000026
        0x00003786:    8008        ..      STRH     r0,[r1,#0]
        0x00003788:    a903        ..      ADD      r1,sp,#0xc
        0x0000378a:    4832        2H      LDR      r0,[pc,#200] ; [0x3854] = 0x20000008
        0x0000378c:    f7fdff50    ..P.    BL       MSI001_Frequency_calc ; 0x1630
        0x00003790:    2118        .!      MOVS     r1,#0x18
        0x00003792:    4836        6H      LDR      r0,[pc,#216] ; [0x386c] = 0x43420
        0x00003794:    f7fdffee    ....    BL       SPI_Sent ; 0x1774
        0x00003798:    20ff        .       MOVS     r0,#0xff
        0x0000379a:    302d        -0      ADDS     r0,r0,#0x2d
        0x0000379c:    f7fdfbdd    ....    BL       Delay ; 0xf5a
        0x000037a0:    2118        .!      MOVS     r1,#0x18
        0x000037a2:    4833        3H      LDR      r0,[pc,#204] ; [0x3870] = 0x28bb85
        0x000037a4:    f7fdffe6    ....    BL       SPI_Sent ; 0x1774
        0x000037a8:    20ff        .       MOVS     r0,#0xff
        0x000037aa:    302d        -0      ADDS     r0,r0,#0x2d
        0x000037ac:    f7fdfbd5    ....    BL       Delay ; 0xf5a
        0x000037b0:    9903        ..      LDR      r1,[sp,#0xc]
        0x000037b2:    0409        ..      LSLS     r1,r1,#16
        0x000037b4:    9a04        ..      LDR      r2,[sp,#0x10]
        0x000037b6:    0112        ..      LSLS     r2,r2,#4
        0x000037b8:    1889        ..      ADDS     r1,r1,r2
        0x000037ba:    1c88        ..      ADDS     r0,r1,#2
        0x000037bc:    2118        .!      MOVS     r1,#0x18
        0x000037be:    f7fdffd9    ....    BL       SPI_Sent ; 0x1774
        0x000037c2:    20ff        .       MOVS     r0,#0xff
        0x000037c4:    302d        -0      ADDS     r0,r0,#0x2d
        0x000037c6:    f7fdfbc8    ....    BL       Delay ; 0xf5a
        0x000037ca:    4927        'I      LDR      r1,[pc,#156] ; [0x3868] = 0x2000000c
        0x000037cc:    6809        .h      LDR      r1,[r1,#0]
        0x000037ce:    0109        ..      LSLS     r1,r1,#4
        0x000037d0:    4a28        (J      LDR      r2,[pc,#160] ; [0x3874] = 0xc001
        0x000037d2:    1888        ..      ADDS     r0,r1,r2
        0x000037d4:    2118        .!      MOVS     r1,#0x18
        0x000037d6:    f7fdffcd    ....    BL       SPI_Sent ; 0x1774
        0x000037da:    20ff        .       MOVS     r0,#0xff
        0x000037dc:    302d        -0      ADDS     r0,r0,#0x2d
        0x000037de:    f7fdfbbc    ....    BL       Delay ; 0xf5a
        0x000037e2:    2118        .!      MOVS     r1,#0x18
        0x000037e4:    4824        $H      LDR      r0,[pc,#144] ; [0x3878] = 0x200016
        0x000037e6:    f7fdffc5    ....    BL       SPI_Sent ; 0x1774
        0x000037ea:    20ff        .       MOVS     r0,#0xff
        0x000037ec:    302d        -0      ADDS     r0,r0,#0x2d
        0x000037ee:    f7fdfbb4    ....    BL       Delay ; 0xf5a
        0x000037f2:    2118        .!      MOVS     r1,#0x18
        0x000037f4:    4821        !H      LDR      r0,[pc,#132] ; [0x387c] = 0xfa03
        0x000037f6:    f7fdffbd    ....    BL       SPI_Sent ; 0x1774
        0x000037fa:    4816        .H      LDR      r0,[pc,#88] ; [0x3854] = 0x20000008
        0x000037fc:    6800        .h      LDR      r0,[r0,#0]
        0x000037fe:    f7fdffd1    ....    BL       TubeShow ; 0x17a4
        0x00003802:    e010        ..      B        0x3826 ; main + 846
        0x00003804:    4825        %H      LDR      r0,[pc,#148] ; [0x389c] = 0x20000026
        0x00003806:    8800        ..      LDRH     r0,[r0,#0]
        0x00003808:    2801        .(      CMP      r0,#1
        0x0000380a:    d108        ..      BNE      0x381e ; main + 838
        0x0000380c:    4822        "H      LDR      r0,[pc,#136] ; [0x3898] = 0x20000034
        0x0000380e:    6801        .h      LDR      r1,[r0,#0]
        0x00003810:    4820         H      LDR      r0,[pc,#128] ; [0x3894] = 0x20000114
        0x00003812:    f7fefcbf    ....    BL       draw_page3_result ; 0x2194
        0x00003816:    2000        .       MOVS     r0,#0
        0x00003818:    4920         I      LDR      r1,[pc,#128] ; [0x389c] = 0x20000026
        0x0000381a:    8008        ..      STRH     r0,[r1,#0]
        0x0000381c:    e003        ..      B        0x3826 ; main + 846
        0x0000381e:    481e        .H      LDR      r0,[pc,#120] ; [0x3898] = 0x20000034
        0x00003820:    6800        .h      LDR      r0,[r0,#0]
        0x00003822:    f7fdffbf    ....    BL       TubeShow ; 0x17a4
        0x00003826:    e00d        ..      B        0x3844 ; main + 876
        0x00003828:    480e        .H      LDR      r0,[pc,#56] ; [0x3864] = 0x20000022
        0x0000382a:    8800        ..      LDRH     r0,[r0,#0]
        0x0000382c:    2804        .(      CMP      r0,#4
        0x0000382e:    d104        ..      BNE      0x383a ; main + 866
        0x00003830:    4809        .H      LDR      r0,[pc,#36] ; [0x3858] = 0x20000010
        0x00003832:    6800        .h      LDR      r0,[r0,#0]
        0x00003834:    f7fdffb6    ....    BL       TubeShow ; 0x17a4
        0x00003838:    e004        ..      B        0x3844 ; main + 876
        0x0000383a:    480a        .H      LDR      r0,[pc,#40] ; [0x3864] = 0x20000022
        0x0000383c:    8800        ..      LDRH     r0,[r0,#0]
        0x0000383e:    2805        .(      CMP      r0,#5
        0x00003840:    d000        ..      BEQ      0x3844 ; main + 876
        0x00003842:    bf00        ..      NOP      
        0x00003844:    e6ab        ..      B        0x359e ; main + 198
    $d
        0x00003846:    0000        ..      DCW    0
        0x00003848:    e000e100    ....    DCD    3758153984
        0x0000384c:    20000030    0..     DCD    536870960
        0x00003850:    000003d9    ....    DCD    985
        0x00003854:    20000008    ...     DCD    536870920
        0x00003858:    20000010    ...     DCD    536870928
        0x0000385c:    20000014    ...     DCD    536870932
        0x00003860:    20000018    ...     DCD    536870936
        0x00003864:    20000022    "..     DCD    536870946
        0x00003868:    2000000c    ...     DCD    536870924
        0x0000386c:    00043420     4..    DCD    275488
        0x00003870:    0028bb85    ..(.    DCD    2669445
        0x00003874:    0000c001    ....    DCD    49153
        0x00003878:    00200016    .. .    DCD    2097174
        0x0000387c:    0000fa03    ....    DCD    64003
        0x00003880:    20000020     ..     DCD    536870944
        0x00003884:    20000028    (..     DCD    536870952
        0x00003888:    40007000    .p.@    DCD    1073770496
        0x0000388c:    00002710    .'..    DCD    10000
        0x00003890:    20000024    $..     DCD    536870948
        0x00003894:    20000114    ...     DCD    536871188
        0x00003898:    20000034    4..     DCD    536870964
        0x0000389c:    20000026    &..     DCD    536870950
    $t
    x$fpl$fadd
    __aeabi_fadd
    _fadd
        0x000038a0:    b570        p.      PUSH     {r4-r6,lr}
        0x000038a2:    2501        .%      MOVS     r5,#1
        0x000038a4:    0004        ..      MOVS     r4,r0
        0x000038a6:    07ed        ..      LSLS     r5,r5,#31
        0x000038a8:    404c        L@      EORS     r4,r4,r1
        0x000038aa:    d420         .      BMI      0x38ee ; _fadd1 + 66
    _fadd1
        0x000038ac:    1a44        D.      SUBS     r4,r0,r1
        0x000038ae:    d201        ..      BCS      0x38b4 ; _fadd1 + 8
        0x000038b0:    1b00        ..      SUBS     r0,r0,r4
        0x000038b2:    1909        ..      ADDS     r1,r1,r4
        0x000038b4:    0dc6        ..      LSRS     r6,r0,#23
        0x000038b6:    004b        K.      LSLS     r3,r1,#1
        0x000038b8:    b2f2        ..      UXTB     r2,r6
        0x000038ba:    2aff        .*      CMP      r2,#0xff
        0x000038bc:    d029        ).      BEQ      0x3912 ; _fadd1 + 102
        0x000038be:    0e1b        ..      LSRS     r3,r3,#24
        0x000038c0:    d02c        ,.      BEQ      0x391c ; _fadd1 + 112
        0x000038c2:    0200        ..      LSLS     r0,r0,#8
        0x000038c4:    020c        ..      LSLS     r4,r1,#8
        0x000038c6:    1ad3        ..      SUBS     r3,r2,r3
        0x000038c8:    432c        ,C      ORRS     r4,r4,r5
        0x000038ca:    40dc        .@      LSRS     r4,r4,r3
        0x000038cc:    4328        (C      ORRS     r0,r0,r5
        0x000038ce:    1905        ..      ADDS     r5,r0,r4
        0x000038d0:    d210        ..      BCS      0x38f4 ; _fadd1 + 72
        0x000038d2:    0a28        (.      LSRS     r0,r5,#8
        0x000038d4:    d302        ..      BCC      0x38dc ; _fadd1 + 48
        0x000038d6:    1c40        @.      ADDS     r0,r0,#1
        0x000038d8:    066d        m.      LSLS     r5,r5,#25
        0x000038da:    d011        ..      BEQ      0x3900 ; _fadd1 + 84
        0x000038dc:    1e76        v.      SUBS     r6,r6,#1
        0x000038de:    05f6        ..      LSLS     r6,r6,#23
        0x000038e0:    1980        ..      ADDS     r0,r0,r6
        0x000038e2:    2aff        .*      CMP      r2,#0xff
        0x000038e4:    da00        ..      BGE      0x38e8 ; _fadd1 + 60
        0x000038e6:    bd70        p.      POP      {r4-r6,pc}
        0x000038e8:    0dc0        ..      LSRS     r0,r0,#23
        0x000038ea:    05c0        ..      LSLS     r0,r0,#23
        0x000038ec:    bd70        p.      POP      {r4-r6,pc}
        0x000038ee:    4069        i@      EORS     r1,r1,r5
        0x000038f0:    f000f87a    ..z.    BL       _fsub1 ; 0x39e8
        0x000038f4:    2001        .       MOVS     r0,#1
        0x000038f6:    4305        .C      ORRS     r5,r5,r0
        0x000038f8:    41c5        .A      RORS     r5,r5,r0
        0x000038fa:    1c52        R.      ADDS     r2,r2,#1
        0x000038fc:    1c76        v.      ADDS     r6,r6,#1
        0x000038fe:    e7e8        ..      B        0x38d2 ; _fadd1 + 38
        0x00003900:    0864        d.      LSRS     r4,r4,#1
        0x00003902:    409c        .@      LSLS     r4,r4,r3
        0x00003904:    01c9        ..      LSLS     r1,r1,#7
        0x00003906:    4061        a@      EORS     r1,r1,r4
        0x00003908:    0089        ..      LSLS     r1,r1,#2
        0x0000390a:    d1e7        ..      BNE      0x38dc ; _fadd1 + 48
        0x0000390c:    2401        .$      MOVS     r4,#1
        0x0000390e:    43a0        .C      BICS     r0,r0,r4
        0x00003910:    e7e4        ..      B        0x38dc ; _fadd1 + 48
        0x00003912:    0e1b        ..      LSRS     r3,r3,#24
        0x00003914:    0244        D.      LSLS     r4,r0,#9
        0x00003916:    d000        ..      BEQ      0x391a ; _fadd1 + 110
        0x00003918:    4803        .H      LDR      r0,[pc,#12] ; [0x3928] = 0x7fc00000
        0x0000391a:    bd70        p.      POP      {r4-r6,pc}
        0x0000391c:    2a00        .*      CMP      r2,#0
        0x0000391e:    d1fc        ..      BNE      0x391a ; _fadd1 + 110
        0x00003920:    0fc0        ..      LSRS     r0,r0,#31
        0x00003922:    07c0        ..      LSLS     r0,r0,#31
        0x00003924:    bd70        p.      POP      {r4-r6,pc}
        0x00003926:    bf00        ..      NOP      
    $d
        0x00003928:    7fc00000    ....    DCD    2143289344
    $t
    x$fpl$fmul
    __aeabi_fmul
    _fmul
        0x0000392c:    b570        p.      PUSH     {r4-r6,lr}
        0x0000392e:    0042        B.      LSLS     r2,r0,#1
        0x00003930:    4164        dA      ADCS     r4,r4,r4
        0x00003932:    004b        K.      LSLS     r3,r1,#1
        0x00003934:    415c        \A      ADCS     r4,r4,r3
        0x00003936:    0e12        ..      LSRS     r2,r2,#24
        0x00003938:    d039        9.      BEQ      0x39ae ; __aeabi_fmul + 130
        0x0000393a:    0e1b        ..      LSRS     r3,r3,#24
        0x0000393c:    d038        8.      BEQ      0x39b0 ; __aeabi_fmul + 132
        0x0000393e:    2aff        .*      CMP      r2,#0xff
        0x00003940:    d03c        <.      BEQ      0x39bc ; __aeabi_fmul + 144
        0x00003942:    2bff        .+      CMP      r3,#0xff
        0x00003944:    d03a        :.      BEQ      0x39bc ; __aeabi_fmul + 144
        0x00003946:    0240        @.      LSLS     r0,r0,#9
        0x00003948:    0249        I.      LSLS     r1,r1,#9
        0x0000394a:    0a40        @.      LSRS     r0,r0,#9
        0x0000394c:    0a49        I.      LSRS     r1,r1,#9
        0x0000394e:    0006        ..      MOVS     r6,r0
        0x00003950:    1845        E.      ADDS     r5,r0,r1
        0x00003952:    434e        NC      MULS     r6,r1,r6
        0x00003954:    0a00        ..      LSRS     r0,r0,#8
        0x00003956:    0a09        ..      LSRS     r1,r1,#8
        0x00003958:    18d2        ..      ADDS     r2,r2,r3
        0x0000395a:    4348        HC      MULS     r0,r1,r0
        0x0000395c:    01ed        ..      LSLS     r5,r5,#7
        0x0000395e:    3a7f        .:      SUBS     r2,r2,#0x7f
        0x00003960:    0401        ..      LSLS     r1,r0,#16
        0x00003962:    1a73        s.      SUBS     r3,r6,r1
        0x00003964:    1940        @.      ADDS     r0,r0,r5
        0x00003966:    0c19        ..      LSRS     r1,r3,#16
        0x00003968:    1843        C.      ADDS     r3,r0,r1
        0x0000396a:    0f99        ..      LSRS     r1,r3,#30
        0x0000396c:    d004        ..      BEQ      0x3978 ; __aeabi_fmul + 76
        0x0000396e:    2101        .!      MOVS     r1,#1
        0x00003970:    085b        [.      LSRS     r3,r3,#1
        0x00003972:    0749        I.      LSLS     r1,r1,#29
        0x00003974:    1a5b        [.      SUBS     r3,r3,r1
        0x00003976:    1c52        R.      ADDS     r2,r2,#1
        0x00003978:    09d8        ..      LSRS     r0,r3,#7
        0x0000397a:    d304        ..      BCC      0x3986 ; __aeabi_fmul + 90
        0x0000397c:    1c40        @.      ADDS     r0,r0,#1
        0x0000397e:    03f5        ..      LSLS     r5,r6,#15
        0x00003980:    d101        ..      BNE      0x3986 ; __aeabi_fmul + 90
        0x00003982:    069d        ..      LSLS     r5,r3,#26
        0x00003984:    d007        ..      BEQ      0x3996 ; __aeabi_fmul + 106
        0x00003986:    2aff        .*      CMP      r2,#0xff
        0x00003988:    d208        ..      BCS      0x399c ; __aeabi_fmul + 112
        0x0000398a:    05d5        ..      LSLS     r5,r2,#23
        0x0000398c:    d006        ..      BEQ      0x399c ; __aeabi_fmul + 112
        0x0000398e:    07e4        ..      LSLS     r4,r4,#31
        0x00003990:    4320         C      ORRS     r0,r0,r4
        0x00003992:    1940        @.      ADDS     r0,r0,r5
        0x00003994:    bd70        p.      POP      {r4-r6,pc}
        0x00003996:    2501        .%      MOVS     r5,#1
        0x00003998:    43a8        .C      BICS     r0,r0,r5
        0x0000399a:    e7f4        ..      B        0x3986 ; __aeabi_fmul + 90
        0x0000399c:    2a00        .*      CMP      r2,#0
        0x0000399e:    dc01        ..      BGT      0x39a4 ; __aeabi_fmul + 120
        0x000039a0:    07e0        ..      LSLS     r0,r4,#31
        0x000039a2:    bd70        p.      POP      {r4-r6,pc}
        0x000039a4:    0224        $.      LSLS     r4,r4,#8
        0x000039a6:    20ff        .       MOVS     r0,#0xff
        0x000039a8:    4320         C      ORRS     r0,r0,r4
        0x000039aa:    05c0        ..      LSLS     r0,r0,#23
        0x000039ac:    bd70        p.      POP      {r4-r6,pc}
        0x000039ae:    0e1b        ..      LSRS     r3,r3,#24
        0x000039b0:    2aff        .*      CMP      r2,#0xff
        0x000039b2:    d003        ..      BEQ      0x39bc ; __aeabi_fmul + 144
        0x000039b4:    2bff        .+      CMP      r3,#0xff
        0x000039b6:    d001        ..      BEQ      0x39bc ; __aeabi_fmul + 144
        0x000039b8:    07e0        ..      LSLS     r0,r4,#31
        0x000039ba:    bd70        p.      POP      {r4-r6,pc}
        0x000039bc:    26ff        .&      MOVS     r6,#0xff
        0x000039be:    0045        E.      LSLS     r5,r0,#1
        0x000039c0:    0636        6.      LSLS     r6,r6,#24
        0x000039c2:    42b5        .B      CMP      r5,r6
        0x000039c4:    d806        ..      BHI      0x39d4 ; __aeabi_fmul + 168
        0x000039c6:    004d        M.      LSLS     r5,r1,#1
        0x000039c8:    42b5        .B      CMP      r5,r6
        0x000039ca:    d803        ..      BHI      0x39d4 ; __aeabi_fmul + 168
        0x000039cc:    18d2        ..      ADDS     r2,r2,r3
        0x000039ce:    2aff        .*      CMP      r2,#0xff
        0x000039d0:    d000        ..      BEQ      0x39d4 ; __aeabi_fmul + 168
        0x000039d2:    e7e7        ..      B        0x39a4 ; __aeabi_fmul + 120
        0x000039d4:    4800        .H      LDR      r0,[pc,#0] ; [0x39d8] = 0x7fc00000
        0x000039d6:    bd70        p.      POP      {r4-r6,pc}
    $d
        0x000039d8:    7fc00000    ....    DCD    2143289344
    $t
    x$fpl$fsub
    __aeabi_fsub
    _fsub
        0x000039dc:    b570        p.      PUSH     {r4-r6,lr}
        0x000039de:    2501        .%      MOVS     r5,#1
        0x000039e0:    0004        ..      MOVS     r4,r0
        0x000039e2:    07ed        ..      LSLS     r5,r5,#31
        0x000039e4:    404c        L@      EORS     r4,r4,r1
        0x000039e6:    d422        ".      BMI      0x3a2e ; _fsub1 + 70
    _fsub1
        0x000039e8:    1a44        D.      SUBS     r4,r0,r1
        0x000039ea:    d202        ..      BCS      0x39f2 ; _fsub1 + 10
        0x000039ec:    406c        l@      EORS     r4,r4,r5
        0x000039ee:    1b00        ..      SUBS     r0,r0,r4
        0x000039f0:    1909        ..      ADDS     r1,r1,r4
        0x000039f2:    0dc6        ..      LSRS     r6,r0,#23
        0x000039f4:    004b        K.      LSLS     r3,r1,#1
        0x000039f6:    b2f2        ..      UXTB     r2,r6
        0x000039f8:    2aff        .*      CMP      r2,#0xff
        0x000039fa:    d04b        K.      BEQ      0x3a94 ; _fsub1 + 172
        0x000039fc:    0e1b        ..      LSRS     r3,r3,#24
        0x000039fe:    d050        P.      BEQ      0x3aa2 ; _fsub1 + 186
        0x00003a00:    0200        ..      LSLS     r0,r0,#8
        0x00003a02:    020c        ..      LSLS     r4,r1,#8
        0x00003a04:    1ad3        ..      SUBS     r3,r2,r3
        0x00003a06:    432c        ,C      ORRS     r4,r4,r5
        0x00003a08:    40dc        .@      LSRS     r4,r4,r3
        0x00003a0a:    43a8        .C      BICS     r0,r0,r5
        0x00003a0c:    1b05        ..      SUBS     r5,r0,r4
        0x00003a0e:    d505        ..      BPL      0x3a1c ; _fsub1 + 52
        0x00003a10:    00ad        ..      LSLS     r5,r5,#2
        0x00003a12:    d319        ..      BCC      0x3a48 ; _fsub1 + 96
        0x00003a14:    086d        m.      LSRS     r5,r5,#1
        0x00003a16:    1e76        v.      SUBS     r6,r6,#1
        0x00003a18:    1e52        R.      SUBS     r2,r2,#1
        0x00003a1a:    d037        7.      BEQ      0x3a8c ; _fsub1 + 164
        0x00003a1c:    05f6        ..      LSLS     r6,r6,#23
        0x00003a1e:    0a28        (.      LSRS     r0,r5,#8
        0x00003a20:    d201        ..      BCS      0x3a26 ; _fsub1 + 62
        0x00003a22:    1980        ..      ADDS     r0,r0,r6
        0x00003a24:    bd70        p.      POP      {r4-r6,pc}
        0x00003a26:    4170        pA      ADCS     r0,r0,r6
        0x00003a28:    066d        m.      LSLS     r5,r5,#25
        0x00003a2a:    d003        ..      BEQ      0x3a34 ; _fsub1 + 76
        0x00003a2c:    bd70        p.      POP      {r4-r6,pc}
        0x00003a2e:    4069        i@      EORS     r1,r1,r5
        0x00003a30:    f7ffff3c    ..<.    BL       _fadd1 ; 0x38ac
        0x00003a34:    409c        .@      LSLS     r4,r4,r3
        0x00003a36:    0209        ..      LSLS     r1,r1,#8
        0x00003a38:    4061        a@      EORS     r1,r1,r4
        0x00003a3a:    0049        I.      LSLS     r1,r1,#1
        0x00003a3c:    d001        ..      BEQ      0x3a42 ; _fsub1 + 90
        0x00003a3e:    1e40        @.      SUBS     r0,r0,#1
        0x00003a40:    bd70        p.      POP      {r4-r6,pc}
        0x00003a42:    2401        .$      MOVS     r4,#1
        0x00003a44:    43a0        .C      BICS     r0,r0,r4
        0x00003a46:    bd70        p.      POP      {r4-r6,pc}
        0x00003a48:    086d        m.      LSRS     r5,r5,#1
        0x00003a4a:    d01d        ..      BEQ      0x3a88 ; _fsub1 + 160
        0x00003a4c:    2001        .       MOVS     r0,#1
        0x00003a4e:    0c2b        +.      LSRS     r3,r5,#16
        0x00003a50:    d101        ..      BNE      0x3a56 ; _fsub1 + 110
        0x00003a52:    042d        -.      LSLS     r5,r5,#16
        0x00003a54:    3010        .0      ADDS     r0,r0,#0x10
        0x00003a56:    0e2b        +.      LSRS     r3,r5,#24
        0x00003a58:    d101        ..      BNE      0x3a5e ; _fsub1 + 118
        0x00003a5a:    022d        -.      LSLS     r5,r5,#8
        0x00003a5c:    3008        .0      ADDS     r0,r0,#8
        0x00003a5e:    0f2b        +.      LSRS     r3,r5,#28
        0x00003a60:    d101        ..      BNE      0x3a66 ; _fsub1 + 126
        0x00003a62:    012d        -.      LSLS     r5,r5,#4
        0x00003a64:    1d00        ..      ADDS     r0,r0,#4
        0x00003a66:    0fab        ..      LSRS     r3,r5,#30
        0x00003a68:    d101        ..      BNE      0x3a6e ; _fsub1 + 134
        0x00003a6a:    00ad        ..      LSLS     r5,r5,#2
        0x00003a6c:    1c80        ..      ADDS     r0,r0,#2
        0x00003a6e:    0feb        ..      LSRS     r3,r5,#31
        0x00003a70:    d101        ..      BNE      0x3a76 ; _fsub1 + 142
        0x00003a72:    006d        m.      LSLS     r5,r5,#1
        0x00003a74:    1c40        @.      ADDS     r0,r0,#1
        0x00003a76:    006d        m.      LSLS     r5,r5,#1
        0x00003a78:    1a36        6.      SUBS     r6,r6,r0
        0x00003a7a:    1a12        ..      SUBS     r2,r2,r0
        0x00003a7c:    0a68        h.      LSRS     r0,r5,#9
        0x00003a7e:    05f5        ..      LSLS     r5,r6,#23
        0x00003a80:    1940        @.      ADDS     r0,r0,r5
        0x00003a82:    2a01        .*      CMP      r2,#1
        0x00003a84:    db02        ..      BLT      0x3a8c ; _fsub1 + 164
        0x00003a86:    bd70        p.      POP      {r4-r6,pc}
        0x00003a88:    2000        .       MOVS     r0,#0
        0x00003a8a:    bd70        p.      POP      {r4-r6,pc}
        0x00003a8c:    36c0        .6      ADDS     r6,r6,#0xc0
        0x00003a8e:    0a30        0.      LSRS     r0,r6,#8
        0x00003a90:    07c0        ..      LSLS     r0,r0,#31
        0x00003a92:    bd70        p.      POP      {r4-r6,pc}
        0x00003a94:    0e1b        ..      LSRS     r3,r3,#24
        0x00003a96:    0244        D.      LSLS     r4,r0,#9
        0x00003a98:    d101        ..      BNE      0x3a9e ; _fsub1 + 182
        0x00003a9a:    2bff        .+      CMP      r3,#0xff
        0x00003a9c:    d100        ..      BNE      0x3aa0 ; _fsub1 + 184
        0x00003a9e:    4802        .H      LDR      r0,[pc,#8] ; [0x3aa8] = 0x7fc00000
        0x00003aa0:    bd70        p.      POP      {r4-r6,pc}
        0x00003aa2:    2a00        .*      CMP      r2,#0
        0x00003aa4:    d0f0        ..      BEQ      0x3a88 ; _fsub1 + 160
        0x00003aa6:    bd70        p.      POP      {r4-r6,pc}
    $d
        0x00003aa8:    7fc00000    ....    DCD    2143289344
    $d.realdata
    .constdata
    black
    x$fpl$usenofp
    __I$use$fp
        0x00003aac:    00000000    ....    DCD    0
        0x00003ab0:    00000000    ....    DCD    0
        0x00003ab4:    00000000    ....    DCD    0
        0x00003ab8:    00000000    ....    DCD    0
        0x00003abc:    00000000    ....    DCD    0
        0x00003ac0:    00000000    ....    DCD    0
        0x00003ac4:    00000000    ....    DCD    0
        0x00003ac8:    00000000    ....    DCD    0
        0x00003acc:    00000000    ....    DCD    0
        0x00003ad0:    00000000    ....    DCD    0
        0x00003ad4:    00000000    ....    DCD    0
        0x00003ad8:    00000000    ....    DCD    0
        0x00003adc:    00000000    ....    DCD    0
        0x00003ae0:    00000000    ....    DCD    0
        0x00003ae4:    00000000    ....    DCD    0
        0x00003ae8:    00000000    ....    DCD    0
        0x00003aec:    00000000    ....    DCD    0
        0x00003af0:    00000000    ....    DCD    0
        0x00003af4:    00000000    ....    DCD    0
        0x00003af8:    00000000    ....    DCD    0
        0x00003afc:    00000000    ....    DCD    0
        0x00003b00:    00000000    ....    DCD    0
        0x00003b04:    00000000    ....    DCD    0
        0x00003b08:    00000000    ....    DCD    0
        0x00003b0c:    00000000    ....    DCD    0
        0x00003b10:    00000000    ....    DCD    0
        0x00003b14:    00000000    ....    DCD    0
        0x00003b18:    00000000    ....    DCD    0
        0x00003b1c:    00000000    ....    DCD    0
        0x00003b20:    00000000    ....    DCD    0
        0x00003b24:    00000000    ....    DCD    0
        0x00003b28:    00000000    ....    DCD    0
        0x00003b2c:    00000000    ....    DCD    0
        0x00003b30:    00000000    ....    DCD    0
        0x00003b34:    00000000    ....    DCD    0
        0x00003b38:    00000000    ....    DCD    0
        0x00003b3c:    00000000    ....    DCD    0
        0x00003b40:    00000000    ....    DCD    0
        0x00003b44:    00000000    ....    DCD    0
        0x00003b48:    00000000    ....    DCD    0
        0x00003b4c:    00000000    ....    DCD    0
        0x00003b50:    00000000    ....    DCD    0
        0x00003b54:    00000000    ....    DCD    0
        0x00003b58:    00000000    ....    DCD    0
        0x00003b5c:    00000000    ....    DCD    0
        0x00003b60:    00000000    ....    DCD    0
        0x00003b64:    00000000    ....    DCD    0
        0x00003b68:    00000000    ....    DCD    0
        0x00003b6c:    00000000    ....    DCD    0
        0x00003b70:    00000000    ....    DCD    0
        0x00003b74:    00000000    ....    DCD    0
        0x00003b78:    00000000    ....    DCD    0
        0x00003b7c:    00000000    ....    DCD    0
        0x00003b80:    00000000    ....    DCD    0
        0x00003b84:    00000000    ....    DCD    0
        0x00003b88:    00000000    ....    DCD    0
        0x00003b8c:    00000000    ....    DCD    0
        0x00003b90:    00000000    ....    DCD    0
        0x00003b94:    00000000    ....    DCD    0
        0x00003b98:    00000000    ....    DCD    0
        0x00003b9c:    00000000    ....    DCD    0
        0x00003ba0:    00000000    ....    DCD    0
        0x00003ba4:    00000000    ....    DCD    0
        0x00003ba8:    00000000    ....    DCD    0
        0x00003bac:    00000000    ....    DCD    0
        0x00003bb0:    00000000    ....    DCD    0
        0x00003bb4:    00000000    ....    DCD    0
        0x00003bb8:    00000000    ....    DCD    0
        0x00003bbc:    00000000    ....    DCD    0
        0x00003bc0:    00000000    ....    DCD    0
        0x00003bc4:    00000000    ....    DCD    0
        0x00003bc8:    00000000    ....    DCD    0
        0x00003bcc:    00000000    ....    DCD    0
        0x00003bd0:    00000000    ....    DCD    0
        0x00003bd4:    00000000    ....    DCD    0
        0x00003bd8:    00000000    ....    DCD    0
        0x00003bdc:    00000000    ....    DCD    0
        0x00003be0:    00000000    ....    DCD    0
        0x00003be4:    00000000    ....    DCD    0
        0x00003be8:    00000000    ....    DCD    0
        0x00003bec:    00000000    ....    DCD    0
        0x00003bf0:    00000000    ....    DCD    0
        0x00003bf4:    00000000    ....    DCD    0
        0x00003bf8:    00000000    ....    DCD    0
        0x00003bfc:    00000000    ....    DCD    0
        0x00003c00:    00000000    ....    DCD    0
        0x00003c04:    00000000    ....    DCD    0
        0x00003c08:    00000000    ....    DCD    0
        0x00003c0c:    00000000    ....    DCD    0
        0x00003c10:    00000000    ....    DCD    0
        0x00003c14:    00000000    ....    DCD    0
        0x00003c18:    00000000    ....    DCD    0
        0x00003c1c:    00000000    ....    DCD    0
        0x00003c20:    00000000    ....    DCD    0
        0x00003c24:    00000000    ....    DCD    0
        0x00003c28:    00000000    ....    DCD    0
        0x00003c2c:    00000000    ....    DCD    0
        0x00003c30:    00000000    ....    DCD    0
        0x00003c34:    00000000    ....    DCD    0
        0x00003c38:    00000000    ....    DCD    0
        0x00003c3c:    00000000    ....    DCD    0
        0x00003c40:    00000000    ....    DCD    0
        0x00003c44:    00000000    ....    DCD    0
        0x00003c48:    00000000    ....    DCD    0
        0x00003c4c:    00000000    ....    DCD    0
        0x00003c50:    00000000    ....    DCD    0
        0x00003c54:    00000000    ....    DCD    0
        0x00003c58:    00000000    ....    DCD    0
        0x00003c5c:    00000000    ....    DCD    0
        0x00003c60:    00000000    ....    DCD    0
        0x00003c64:    00000000    ....    DCD    0
        0x00003c68:    00000000    ....    DCD    0
        0x00003c6c:    00000000    ....    DCD    0
        0x00003c70:    00000000    ....    DCD    0
        0x00003c74:    00000000    ....    DCD    0
        0x00003c78:    00000000    ....    DCD    0
        0x00003c7c:    00000000    ....    DCD    0
        0x00003c80:    00000000    ....    DCD    0
        0x00003c84:    00000000    ....    DCD    0
        0x00003c88:    00000000    ....    DCD    0
        0x00003c8c:    00000000    ....    DCD    0
        0x00003c90:    00000000    ....    DCD    0
        0x00003c94:    00000000    ....    DCD    0
        0x00003c98:    00000000    ....    DCD    0
        0x00003c9c:    00000000    ....    DCD    0
        0x00003ca0:    00000000    ....    DCD    0
        0x00003ca4:    00000000    ....    DCD    0
        0x00003ca8:    00000000    ....    DCD    0
        0x00003cac:    00000000    ....    DCD    0
        0x00003cb0:    00000000    ....    DCD    0
        0x00003cb4:    00000000    ....    DCD    0
        0x00003cb8:    00000000    ....    DCD    0
        0x00003cbc:    00000000    ....    DCD    0
        0x00003cc0:    00000000    ....    DCD    0
        0x00003cc4:    00000000    ....    DCD    0
        0x00003cc8:    00000000    ....    DCD    0
        0x00003ccc:    00000000    ....    DCD    0
        0x00003cd0:    00000000    ....    DCD    0
        0x00003cd4:    00000000    ....    DCD    0
        0x00003cd8:    00000000    ....    DCD    0
        0x00003cdc:    00000000    ....    DCD    0
        0x00003ce0:    00000000    ....    DCD    0
        0x00003ce4:    00000000    ....    DCD    0
        0x00003ce8:    00000000    ....    DCD    0
        0x00003cec:    00000000    ....    DCD    0
        0x00003cf0:    00000000    ....    DCD    0
        0x00003cf4:    00000000    ....    DCD    0
        0x00003cf8:    00000000    ....    DCD    0
        0x00003cfc:    00000000    ....    DCD    0
        0x00003d00:    00000000    ....    DCD    0
        0x00003d04:    00000000    ....    DCD    0
        0x00003d08:    00000000    ....    DCD    0
        0x00003d0c:    00000000    ....    DCD    0
        0x00003d10:    00000000    ....    DCD    0
        0x00003d14:    00000000    ....    DCD    0
        0x00003d18:    00000000    ....    DCD    0
        0x00003d1c:    00000000    ....    DCD    0
        0x00003d20:    00000000    ....    DCD    0
        0x00003d24:    00000000    ....    DCD    0
        0x00003d28:    00000000    ....    DCD    0
        0x00003d2c:    00000000    ....    DCD    0
        0x00003d30:    00000000    ....    DCD    0
        0x00003d34:    00000000    ....    DCD    0
        0x00003d38:    00000000    ....    DCD    0
        0x00003d3c:    00000000    ....    DCD    0
        0x00003d40:    00000000    ....    DCD    0
        0x00003d44:    00000000    ....    DCD    0
        0x00003d48:    00000000    ....    DCD    0
        0x00003d4c:    00000000    ....    DCD    0
        0x00003d50:    00000000    ....    DCD    0
        0x00003d54:    00000000    ....    DCD    0
        0x00003d58:    00000000    ....    DCD    0
        0x00003d5c:    00000000    ....    DCD    0
        0x00003d60:    00000000    ....    DCD    0
        0x00003d64:    00000000    ....    DCD    0
        0x00003d68:    00000000    ....    DCD    0
        0x00003d6c:    00000000    ....    DCD    0
        0x00003d70:    00000000    ....    DCD    0
        0x00003d74:    00000000    ....    DCD    0
        0x00003d78:    00000000    ....    DCD    0
        0x00003d7c:    00000000    ....    DCD    0
        0x00003d80:    00000000    ....    DCD    0
        0x00003d84:    00000000    ....    DCD    0
        0x00003d88:    00000000    ....    DCD    0
        0x00003d8c:    00000000    ....    DCD    0
        0x00003d90:    00000000    ....    DCD    0
        0x00003d94:    00000000    ....    DCD    0
        0x00003d98:    00000000    ....    DCD    0
        0x00003d9c:    00000000    ....    DCD    0
        0x00003da0:    00000000    ....    DCD    0
        0x00003da4:    00000000    ....    DCD    0
        0x00003da8:    00000000    ....    DCD    0
        0x00003dac:    00000000    ....    DCD    0
        0x00003db0:    00000000    ....    DCD    0
        0x00003db4:    00000000    ....    DCD    0
        0x00003db8:    00000000    ....    DCD    0
        0x00003dbc:    00000000    ....    DCD    0
        0x00003dc0:    00000000    ....    DCD    0
        0x00003dc4:    00000000    ....    DCD    0
        0x00003dc8:    00000000    ....    DCD    0
    box
        0x00003dcc:    41464146    FAFA    DCD    1095123270
        0x00003dd0:    41464146    FAFA    DCD    1095123270
        0x00003dd4:    41464146    FAFA    DCD    1095123270
        0x00003dd8:    41464146    FAFA    DCD    1095123270
        0x00003ddc:    41464146    FAFA    DCD    1095123270
        0x00003de0:    41464146    FAFA    DCD    1095123270
        0x00003de4:    41464146    FAFA    DCD    1095123270
        0x00003de8:    41464146    FAFA    DCD    1095123270
        0x00003dec:    41464146    FAFA    DCD    1095123270
        0x00003df0:    41464146    FAFA    DCD    1095123270
        0x00003df4:    eeb54146    FA..    DCD    4004856134
        0x00003df8:    eeb5eeb5    ....    DCD    4004900533
        0x00003dfc:    eeb5eeb5    ....    DCD    4004900533
        0x00003e00:    eeb5eeb5    ....    DCD    4004900533
        0x00003e04:    eeb5eeb5    ....    DCD    4004900533
        0x00003e08:    eeb5eeb5    ....    DCD    4004900533
        0x00003e0c:    eeb5eeb5    ....    DCD    4004900533
        0x00003e10:    eeb5eeb5    ....    DCD    4004900533
        0x00003e14:    eeb5eeb5    ....    DCD    4004900533
        0x00003e18:    4146eeb5    ..FA    DCD    1095167669
        0x00003e1c:    eeb54146    FA..    DCD    4004856134
        0x00003e20:    eeb5eeb5    ....    DCD    4004900533
        0x00003e24:    eeb5eeb5    ....    DCD    4004900533
        0x00003e28:    eeb5eeb5    ....    DCD    4004900533
        0x00003e2c:    eeb5eeb5    ....    DCD    4004900533
        0x00003e30:    eeb5eeb5    ....    DCD    4004900533
        0x00003e34:    eeb5eeb5    ....    DCD    4004900533
        0x00003e38:    eeb5eeb5    ....    DCD    4004900533
        0x00003e3c:    eeb5eeb5    ....    DCD    4004900533
        0x00003e40:    4146eeb5    ..FA    DCD    1095167669
        0x00003e44:    e52e4146    FA..    DCD    3845013830
        0x00003e48:    e52ee52e    ....    DCD    3845055790
        0x00003e4c:    e52ee52e    ....    DCD    3845055790
        0x00003e50:    e52ee52e    ....    DCD    3845055790
        0x00003e54:    e52ee52e    ....    DCD    3845055790
        0x00003e58:    e52ee52e    ....    DCD    3845055790
        0x00003e5c:    e52ee52e    ....    DCD    3845055790
        0x00003e60:    e52ee52e    ....    DCD    3845055790
        0x00003e64:    e52ee52e    ....    DCD    3845055790
        0x00003e68:    4146e52e    ..FA    DCD    1095165230
        0x00003e6c:    71e74146    FA.q    DCD    1910980934
        0x00003e70:    71e771e7    .q.q    DCD    1910993383
        0x00003e74:    71e771e7    .q.q    DCD    1910993383
        0x00003e78:    71e771e7    .q.q    DCD    1910993383
        0x00003e7c:    71e771e7    .q.q    DCD    1910993383
        0x00003e80:    71e771e7    .q.q    DCD    1910993383
        0x00003e84:    71e771e7    .q.q    DCD    1910993383
        0x00003e88:    71e771e7    .q.q    DCD    1910993383
        0x00003e8c:    71e771e7    .q.q    DCD    1910993383
        0x00003e90:    414671e7    .qFA    DCD    1095135719
        0x00003e94:    41464146    FAFA    DCD    1095123270
        0x00003e98:    41464146    FAFA    DCD    1095123270
        0x00003e9c:    41464146    FAFA    DCD    1095123270
        0x00003ea0:    41464146    FAFA    DCD    1095123270
        0x00003ea4:    41464146    FAFA    DCD    1095123270
        0x00003ea8:    41464146    FAFA    DCD    1095123270
        0x00003eac:    41464146    FAFA    DCD    1095123270
        0x00003eb0:    41464146    FAFA    DCD    1095123270
        0x00003eb4:    41464146    FAFA    DCD    1095123270
        0x00003eb8:    41464146    FAFA    DCD    1095123270
        0x00003ebc:    e52e4146    FA..    DCD    3845013830
        0x00003ec0:    4146eeb5    ..FA    DCD    1095167669
        0x00003ec4:    71e771e7    .q.q    DCD    1910993383
        0x00003ec8:    71e771e7    .q.q    DCD    1910993383
        0x00003ecc:    71e771e7    .q.q    DCD    1910993383
        0x00003ed0:    71e771e7    .q.q    DCD    1910993383
        0x00003ed4:    71e771e7    .q.q    DCD    1910993383
        0x00003ed8:    71e771e7    .q.q    DCD    1910993383
        0x00003edc:    eeb54146    FA..    DCD    4004856134
        0x00003ee0:    4146e52e    ..FA    DCD    1095165230
        0x00003ee4:    e52e4146    FA..    DCD    3845013830
        0x00003ee8:    4146eeb5    ..FA    DCD    1095167669
        0x00003eec:    e52ee52e    ....    DCD    3845055790
        0x00003ef0:    e52ee52e    ....    DCD    3845055790
        0x00003ef4:    e52ee52e    ....    DCD    3845055790
        0x00003ef8:    e52ee52e    ....    DCD    3845055790
        0x00003efc:    e52ee52e    ....    DCD    3845055790
        0x00003f00:    e52ee52e    ....    DCD    3845055790
        0x00003f04:    eeb54146    FA..    DCD    4004856134
        0x00003f08:    4146e52e    ..FA    DCD    1095165230
        0x00003f0c:    e52e4146    FA..    DCD    3845013830
        0x00003f10:    4146eeb5    ..FA    DCD    1095167669
        0x00003f14:    41464146    FAFA    DCD    1095123270
        0x00003f18:    41464146    FAFA    DCD    1095123270
        0x00003f1c:    41464146    FAFA    DCD    1095123270
        0x00003f20:    41464146    FAFA    DCD    1095123270
        0x00003f24:    41464146    FAFA    DCD    1095123270
        0x00003f28:    41464146    FAFA    DCD    1095123270
        0x00003f2c:    eeb54146    FA..    DCD    4004856134
        0x00003f30:    4146e52e    ..FA    DCD    1095165230
        0x00003f34:    e52e4146    FA..    DCD    3845013830
        0x00003f38:    4146eeb5    ..FA    DCD    1095167669
        0x00003f3c:    eeb5eeb5    ....    DCD    4004900533
        0x00003f40:    eeb5eeb5    ....    DCD    4004900533
        0x00003f44:    eeb5eeb5    ....    DCD    4004900533
        0x00003f48:    eeb5eeb5    ....    DCD    4004900533
        0x00003f4c:    eeb5eeb5    ....    DCD    4004900533
        0x00003f50:    eeb5eeb5    ....    DCD    4004900533
        0x00003f54:    eeb54146    FA..    DCD    4004856134
        0x00003f58:    4146e52e    ..FA    DCD    1095165230
        0x00003f5c:    e52e4146    FA..    DCD    3845013830
        0x00003f60:    4146eeb5    ..FA    DCD    1095167669
        0x00003f64:    e52ee52e    ....    DCD    3845055790
        0x00003f68:    e52ee52e    ....    DCD    3845055790
        0x00003f6c:    e52ee52e    ....    DCD    3845055790
        0x00003f70:    e52ee52e    ....    DCD    3845055790
        0x00003f74:    e52ee52e    ....    DCD    3845055790
        0x00003f78:    e52ee52e    ....    DCD    3845055790
        0x00003f7c:    eeb54146    FA..    DCD    4004856134
        0x00003f80:    4146e52e    ..FA    DCD    1095165230
        0x00003f84:    e52e4146    FA..    DCD    3845013830
        0x00003f88:    4146eeb5    ..FA    DCD    1095167669
        0x00003f8c:    41464146    FAFA    DCD    1095123270
        0x00003f90:    41464146    FAFA    DCD    1095123270
        0x00003f94:    41464146    FAFA    DCD    1095123270
        0x00003f98:    41464146    FAFA    DCD    1095123270
        0x00003f9c:    41464146    FAFA    DCD    1095123270
        0x00003fa0:    41464146    FAFA    DCD    1095123270
        0x00003fa4:    eeb54146    FA..    DCD    4004856134
        0x00003fa8:    4146e52e    ..FA    DCD    1095165230
        0x00003fac:    e52e4146    FA..    DCD    3845013830
        0x00003fb0:    4146eeb5    ..FA    DCD    1095167669
        0x00003fb4:    71e771e7    .q.q    DCD    1910993383
        0x00003fb8:    71e771e7    .q.q    DCD    1910993383
        0x00003fbc:    71e771e7    .q.q    DCD    1910993383
        0x00003fc0:    71e771e7    .q.q    DCD    1910993383
        0x00003fc4:    71e771e7    .q.q    DCD    1910993383
        0x00003fc8:    71e771e7    .q.q    DCD    1910993383
        0x00003fcc:    eeb54146    FA..    DCD    4004856134
        0x00003fd0:    4146e52e    ..FA    DCD    1095165230
        0x00003fd4:    e52e4146    FA..    DCD    3845013830
        0x00003fd8:    4146eeb5    ..FA    DCD    1095167669
        0x00003fdc:    e52ee52e    ....    DCD    3845055790
        0x00003fe0:    e52ee52e    ....    DCD    3845055790
        0x00003fe4:    e52ee52e    ....    DCD    3845055790
        0x00003fe8:    e52ee52e    ....    DCD    3845055790
        0x00003fec:    e52ee52e    ....    DCD    3845055790
        0x00003ff0:    e52ee52e    ....    DCD    3845055790
        0x00003ff4:    eeb54146    FA..    DCD    4004856134
        0x00003ff8:    4146e52e    ..FA    DCD    1095165230
        0x00003ffc:    e52e4146    FA..    DCD    3845013830
        0x00004000:    4146eeb5    ..FA    DCD    1095167669
        0x00004004:    41464146    FAFA    DCD    1095123270
        0x00004008:    41464146    FAFA    DCD    1095123270
        0x0000400c:    41464146    FAFA    DCD    1095123270
        0x00004010:    41464146    FAFA    DCD    1095123270
        0x00004014:    41464146    FAFA    DCD    1095123270
        0x00004018:    41464146    FAFA    DCD    1095123270
        0x0000401c:    eeb54146    FA..    DCD    4004856134
        0x00004020:    4146e52e    ..FA    DCD    1095165230
        0x00004024:    41464146    FAFA    DCD    1095123270
        0x00004028:    41464146    FAFA    DCD    1095123270
        0x0000402c:    41464146    FAFA    DCD    1095123270
        0x00004030:    41464146    FAFA    DCD    1095123270
        0x00004034:    41464146    FAFA    DCD    1095123270
        0x00004038:    41464146    FAFA    DCD    1095123270
        0x0000403c:    41464146    FAFA    DCD    1095123270
        0x00004040:    41464146    FAFA    DCD    1095123270
        0x00004044:    41464146    FAFA    DCD    1095123270
        0x00004048:    41464146    FAFA    DCD    1095123270
        0x0000404c:    eeb54146    FA..    DCD    4004856134
        0x00004050:    eeb5eeb5    ....    DCD    4004900533
        0x00004054:    eeb5eeb5    ....    DCD    4004900533
        0x00004058:    eeb5eeb5    ....    DCD    4004900533
        0x0000405c:    eeb5eeb5    ....    DCD    4004900533
        0x00004060:    eeb5eeb5    ....    DCD    4004900533
        0x00004064:    eeb5eeb5    ....    DCD    4004900533
        0x00004068:    eeb5eeb5    ....    DCD    4004900533
        0x0000406c:    eeb5eeb5    ....    DCD    4004900533
        0x00004070:    4146eeb5    ..FA    DCD    1095167669
        0x00004074:    e52e4146    FA..    DCD    3845013830
        0x00004078:    e52ee52e    ....    DCD    3845055790
        0x0000407c:    e52ee52e    ....    DCD    3845055790
        0x00004080:    e52ee52e    ....    DCD    3845055790
        0x00004084:    e52ee52e    ....    DCD    3845055790
        0x00004088:    e52ee52e    ....    DCD    3845055790
        0x0000408c:    e52ee52e    ....    DCD    3845055790
        0x00004090:    e52ee52e    ....    DCD    3845055790
        0x00004094:    e52ee52e    ....    DCD    3845055790
        0x00004098:    4146e52e    ..FA    DCD    1095165230
        0x0000409c:    71e74146    FA.q    DCD    1910980934
        0x000040a0:    71e771e7    .q.q    DCD    1910993383
        0x000040a4:    71e771e7    .q.q    DCD    1910993383
        0x000040a8:    71e771e7    .q.q    DCD    1910993383
        0x000040ac:    71e771e7    .q.q    DCD    1910993383
        0x000040b0:    71e771e7    .q.q    DCD    1910993383
        0x000040b4:    71e771e7    .q.q    DCD    1910993383
        0x000040b8:    71e771e7    .q.q    DCD    1910993383
        0x000040bc:    71e771e7    .q.q    DCD    1910993383
        0x000040c0:    414671e7    .qFA    DCD    1095135719
        0x000040c4:    41464146    FAFA    DCD    1095123270
        0x000040c8:    41464146    FAFA    DCD    1095123270
        0x000040cc:    41464146    FAFA    DCD    1095123270
        0x000040d0:    41464146    FAFA    DCD    1095123270
        0x000040d4:    41464146    FAFA    DCD    1095123270
        0x000040d8:    41464146    FAFA    DCD    1095123270
        0x000040dc:    41464146    FAFA    DCD    1095123270
        0x000040e0:    41464146    FAFA    DCD    1095123270
        0x000040e4:    41464146    FAFA    DCD    1095123270
        0x000040e8:    41464146    FAFA    DCD    1095123270
    wall
        0x000040ec:    41464146    FAFA    DCD    1095123270
        0x000040f0:    41464146    FAFA    DCD    1095123270
        0x000040f4:    41464146    FAFA    DCD    1095123270
        0x000040f8:    41464146    FAFA    DCD    1095123270
        0x000040fc:    41464146    FAFA    DCD    1095123270
        0x00004100:    41464146    FAFA    DCD    1095123270
        0x00004104:    41464146    FAFA    DCD    1095123270
        0x00004108:    41464146    FAFA    DCD    1095123270
        0x0000410c:    41464146    FAFA    DCD    1095123270
        0x00004110:    41464146    FAFA    DCD    1095123270
        0x00004114:    a1264146    FA&.    DCD    2703638854
        0x00004118:    a126a126    &.&.    DCD    2703663398
        0x0000411c:    4146a126    &.FA    DCD    1095147814
        0x00004120:    a126a126    &.&.    DCD    2703663398
        0x00004124:    a126a126    &.&.    DCD    2703663398
        0x00004128:    a1264146    FA&.    DCD    2703638854
        0x0000412c:    a126a126    &.&.    DCD    2703663398
        0x00004130:    4146a126    &.FA    DCD    1095147814
        0x00004134:    a126a126    &.&.    DCD    2703663398
        0x00004138:    a126a126    &.&.    DCD    2703663398
        0x0000413c:    a1264146    FA&.    DCD    2703638854
        0x00004140:    a126a126    &.&.    DCD    2703663398
        0x00004144:    4146a126    &.FA    DCD    1095147814
        0x00004148:    a126a126    &.&.    DCD    2703663398
        0x0000414c:    a126a126    &.&.    DCD    2703663398
        0x00004150:    a1264146    FA&.    DCD    2703638854
        0x00004154:    a126a126    &.&.    DCD    2703663398
        0x00004158:    4146a126    &.FA    DCD    1095147814
        0x0000415c:    a126a126    &.&.    DCD    2703663398
        0x00004160:    a126a126    &.&.    DCD    2703663398
        0x00004164:    a1264146    FA&.    DCD    2703638854
        0x00004168:    a126a126    &.&.    DCD    2703663398
        0x0000416c:    4146a126    &.FA    DCD    1095147814
        0x00004170:    a126a126    &.&.    DCD    2703663398
        0x00004174:    a126a126    &.&.    DCD    2703663398
        0x00004178:    a1264146    FA&.    DCD    2703638854
        0x0000417c:    a126a126    &.&.    DCD    2703663398
        0x00004180:    4146a126    &.FA    DCD    1095147814
        0x00004184:    a126a126    &.&.    DCD    2703663398
        0x00004188:    a126a126    &.&.    DCD    2703663398
        0x0000418c:    41464146    FAFA    DCD    1095123270
        0x00004190:    41464146    FAFA    DCD    1095123270
        0x00004194:    41464146    FAFA    DCD    1095123270
        0x00004198:    41464146    FAFA    DCD    1095123270
        0x0000419c:    41464146    FAFA    DCD    1095123270
        0x000041a0:    41464146    FAFA    DCD    1095123270
        0x000041a4:    41464146    FAFA    DCD    1095123270
        0x000041a8:    41464146    FAFA    DCD    1095123270
        0x000041ac:    41464146    FAFA    DCD    1095123270
        0x000041b0:    41464146    FAFA    DCD    1095123270
        0x000041b4:    a126a126    &.&.    DCD    2703663398
        0x000041b8:    4146a126    &.FA    DCD    1095147814
        0x000041bc:    a126a126    &.&.    DCD    2703663398
        0x000041c0:    a126a126    &.&.    DCD    2703663398
        0x000041c4:    a1264146    FA&.    DCD    2703638854
        0x000041c8:    a126a126    &.&.    DCD    2703663398
        0x000041cc:    4146a126    &.FA    DCD    1095147814
        0x000041d0:    a126a126    &.&.    DCD    2703663398
        0x000041d4:    a126a126    &.&.    DCD    2703663398
        0x000041d8:    a1264146    FA&.    DCD    2703638854
        0x000041dc:    a126a126    &.&.    DCD    2703663398
        0x000041e0:    4146a126    &.FA    DCD    1095147814
        0x000041e4:    a126a126    &.&.    DCD    2703663398
        0x000041e8:    a126a126    &.&.    DCD    2703663398
        0x000041ec:    a1264146    FA&.    DCD    2703638854
        0x000041f0:    a126a126    &.&.    DCD    2703663398
        0x000041f4:    4146a126    &.FA    DCD    1095147814
        0x000041f8:    a126a126    &.&.    DCD    2703663398
        0x000041fc:    a126a126    &.&.    DCD    2703663398
        0x00004200:    a1264146    FA&.    DCD    2703638854
        0x00004204:    a126a126    &.&.    DCD    2703663398
        0x00004208:    4146a126    &.FA    DCD    1095147814
        0x0000420c:    a126a126    &.&.    DCD    2703663398
        0x00004210:    a126a126    &.&.    DCD    2703663398
        0x00004214:    a1264146    FA&.    DCD    2703638854
        0x00004218:    a126a126    &.&.    DCD    2703663398
        0x0000421c:    4146a126    &.FA    DCD    1095147814
        0x00004220:    a126a126    &.&.    DCD    2703663398
        0x00004224:    a126a126    &.&.    DCD    2703663398
        0x00004228:    a1264146    FA&.    DCD    2703638854
        0x0000422c:    41464146    FAFA    DCD    1095123270
        0x00004230:    41464146    FAFA    DCD    1095123270
        0x00004234:    41464146    FAFA    DCD    1095123270
        0x00004238:    41464146    FAFA    DCD    1095123270
        0x0000423c:    41464146    FAFA    DCD    1095123270
        0x00004240:    41464146    FAFA    DCD    1095123270
        0x00004244:    41464146    FAFA    DCD    1095123270
        0x00004248:    41464146    FAFA    DCD    1095123270
        0x0000424c:    41464146    FAFA    DCD    1095123270
        0x00004250:    41464146    FAFA    DCD    1095123270
        0x00004254:    4146a126    &.FA    DCD    1095147814
        0x00004258:    a126a126    &.&.    DCD    2703663398
        0x0000425c:    a126a126    &.&.    DCD    2703663398
        0x00004260:    a1264146    FA&.    DCD    2703638854
        0x00004264:    a126a126    &.&.    DCD    2703663398
        0x00004268:    4146a126    &.FA    DCD    1095147814
        0x0000426c:    a126a126    &.&.    DCD    2703663398
        0x00004270:    a126a126    &.&.    DCD    2703663398
        0x00004274:    a1264146    FA&.    DCD    2703638854
        0x00004278:    a126a126    &.&.    DCD    2703663398
        0x0000427c:    4146a126    &.FA    DCD    1095147814
        0x00004280:    a126a126    &.&.    DCD    2703663398
        0x00004284:    a126a126    &.&.    DCD    2703663398
        0x00004288:    a1264146    FA&.    DCD    2703638854
        0x0000428c:    a126a126    &.&.    DCD    2703663398
        0x00004290:    4146a126    &.FA    DCD    1095147814
        0x00004294:    a126a126    &.&.    DCD    2703663398
        0x00004298:    a126a126    &.&.    DCD    2703663398
        0x0000429c:    a1264146    FA&.    DCD    2703638854
        0x000042a0:    a126a126    &.&.    DCD    2703663398
        0x000042a4:    4146a126    &.FA    DCD    1095147814
        0x000042a8:    a126a126    &.&.    DCD    2703663398
        0x000042ac:    a126a126    &.&.    DCD    2703663398
        0x000042b0:    a1264146    FA&.    DCD    2703638854
        0x000042b4:    a126a126    &.&.    DCD    2703663398
        0x000042b8:    4146a126    &.FA    DCD    1095147814
        0x000042bc:    a126a126    &.&.    DCD    2703663398
        0x000042c0:    a126a126    &.&.    DCD    2703663398
        0x000042c4:    a1264146    FA&.    DCD    2703638854
        0x000042c8:    a126a126    &.&.    DCD    2703663398
        0x000042cc:    41464146    FAFA    DCD    1095123270
        0x000042d0:    41464146    FAFA    DCD    1095123270
        0x000042d4:    41464146    FAFA    DCD    1095123270
        0x000042d8:    41464146    FAFA    DCD    1095123270
        0x000042dc:    41464146    FAFA    DCD    1095123270
        0x000042e0:    41464146    FAFA    DCD    1095123270
        0x000042e4:    41464146    FAFA    DCD    1095123270
        0x000042e8:    41464146    FAFA    DCD    1095123270
        0x000042ec:    41464146    FAFA    DCD    1095123270
        0x000042f0:    41464146    FAFA    DCD    1095123270
        0x000042f4:    a1264146    FA&.    DCD    2703638854
        0x000042f8:    a126a126    &.&.    DCD    2703663398
        0x000042fc:    4146a126    &.FA    DCD    1095147814
        0x00004300:    a126a126    &.&.    DCD    2703663398
        0x00004304:    a126a126    &.&.    DCD    2703663398
        0x00004308:    a1264146    FA&.    DCD    2703638854
        0x0000430c:    a126a126    &.&.    DCD    2703663398
        0x00004310:    4146a126    &.FA    DCD    1095147814
        0x00004314:    a126a126    &.&.    DCD    2703663398
        0x00004318:    a126a126    &.&.    DCD    2703663398
        0x0000431c:    a1264146    FA&.    DCD    2703638854
        0x00004320:    a126a126    &.&.    DCD    2703663398
        0x00004324:    4146a126    &.FA    DCD    1095147814
        0x00004328:    a126a126    &.&.    DCD    2703663398
        0x0000432c:    a126a126    &.&.    DCD    2703663398
        0x00004330:    a1264146    FA&.    DCD    2703638854
        0x00004334:    a126a126    &.&.    DCD    2703663398
        0x00004338:    4146a126    &.FA    DCD    1095147814
        0x0000433c:    a126a126    &.&.    DCD    2703663398
        0x00004340:    a126a126    &.&.    DCD    2703663398
        0x00004344:    a1264146    FA&.    DCD    2703638854
        0x00004348:    a126a126    &.&.    DCD    2703663398
        0x0000434c:    4146a126    &.FA    DCD    1095147814
        0x00004350:    a126a126    &.&.    DCD    2703663398
        0x00004354:    a126a126    &.&.    DCD    2703663398
        0x00004358:    a1264146    FA&.    DCD    2703638854
        0x0000435c:    a126a126    &.&.    DCD    2703663398
        0x00004360:    4146a126    &.FA    DCD    1095147814
        0x00004364:    a126a126    &.&.    DCD    2703663398
        0x00004368:    a126a126    &.&.    DCD    2703663398
        0x0000436c:    41464146    FAFA    DCD    1095123270
        0x00004370:    41464146    FAFA    DCD    1095123270
        0x00004374:    41464146    FAFA    DCD    1095123270
        0x00004378:    41464146    FAFA    DCD    1095123270
        0x0000437c:    41464146    FAFA    DCD    1095123270
        0x00004380:    41464146    FAFA    DCD    1095123270
        0x00004384:    41464146    FAFA    DCD    1095123270
        0x00004388:    41464146    FAFA    DCD    1095123270
        0x0000438c:    41464146    FAFA    DCD    1095123270
        0x00004390:    41464146    FAFA    DCD    1095123270
        0x00004394:    a126a126    &.&.    DCD    2703663398
        0x00004398:    4146a126    &.FA    DCD    1095147814
        0x0000439c:    a126a126    &.&.    DCD    2703663398
        0x000043a0:    a126a126    &.&.    DCD    2703663398
        0x000043a4:    a1264146    FA&.    DCD    2703638854
        0x000043a8:    a126a126    &.&.    DCD    2703663398
        0x000043ac:    4146a126    &.FA    DCD    1095147814
        0x000043b0:    a126a126    &.&.    DCD    2703663398
        0x000043b4:    a126a126    &.&.    DCD    2703663398
        0x000043b8:    a1264146    FA&.    DCD    2703638854
        0x000043bc:    a126a126    &.&.    DCD    2703663398
        0x000043c0:    4146a126    &.FA    DCD    1095147814
        0x000043c4:    a126a126    &.&.    DCD    2703663398
        0x000043c8:    a126a126    &.&.    DCD    2703663398
        0x000043cc:    a1264146    FA&.    DCD    2703638854
        0x000043d0:    a126a126    &.&.    DCD    2703663398
        0x000043d4:    4146a126    &.FA    DCD    1095147814
        0x000043d8:    a126a126    &.&.    DCD    2703663398
        0x000043dc:    a126a126    &.&.    DCD    2703663398
        0x000043e0:    a1264146    FA&.    DCD    2703638854
        0x000043e4:    a126a126    &.&.    DCD    2703663398
        0x000043e8:    4146a126    &.FA    DCD    1095147814
        0x000043ec:    a126a126    &.&.    DCD    2703663398
        0x000043f0:    a126a126    &.&.    DCD    2703663398
        0x000043f4:    a1264146    FA&.    DCD    2703638854
        0x000043f8:    a126a126    &.&.    DCD    2703663398
        0x000043fc:    4146a126    &.FA    DCD    1095147814
        0x00004400:    a126a126    &.&.    DCD    2703663398
        0x00004404:    a126a126    &.&.    DCD    2703663398
        0x00004408:    a1264146    FA&.    DCD    2703638854
    tank01
        0x0000440c:    00000000    ....    DCD    0
        0x00004410:    00000000    ....    DCD    0
        0x00004414:    00000000    ....    DCD    0
        0x00004418:    44490000    ..ID    DCD    1145634816
        0x0000441c:    00004449    ID..    DCD    17481
        0x00004420:    00000000    ....    DCD    0
        0x00004424:    00000000    ....    DCD    0
        0x00004428:    00000000    ....    DCD    0
        0x0000442c:    00000000    ....    DCD    0
        0x00004430:    00000000    ....    DCD    0
        0x00004434:    00000000    ....    DCD    0
        0x00004438:    44490000    ..ID    DCD    1145634816
        0x0000443c:    00004449    ID..    DCD    17481
        0x00004440:    00000000    ....    DCD    0
        0x00004444:    00000000    ....    DCD    0
        0x00004448:    00000000    ....    DCD    0
        0x0000444c:    00000000    ....    DCD    0
        0x00004450:    2ae82ae8    .*.*    DCD    719858408
        0x00004454:    2ae82ae8    .*.*    DCD    719858408
        0x00004458:    44490000    ..ID    DCD    1145634816
        0x0000445c:    00004449    ID..    DCD    17481
        0x00004460:    2ae82ae8    .*.*    DCD    719858408
        0x00004464:    2ae82ae8    .*.*    DCD    719858408
        0x00004468:    00000000    ....    DCD    0
        0x0000446c:    00000000    ....    DCD    0
        0x00004470:    44492ae8    .*ID    DCD    1145645800
        0x00004474:    44494449    IDID    DCD    1145652297
        0x00004478:    44492ae8    .*ID    DCD    1145645800
        0x0000447c:    2ae84449    ID.*    DCD    719864905
        0x00004480:    44494449    IDID    DCD    1145652297
        0x00004484:    2ae84449    ID.*    DCD    719864905
        0x00004488:    00000000    ....    DCD    0
        0x0000448c:    00000000    ....    DCD    0
        0x00004490:    44492ae8    .*ID    DCD    1145645800
        0x00004494:    2ae8664a    Jf.*    DCD    719873610
        0x00004498:    44492ae8    .*ID    DCD    1145645800
        0x0000449c:    2ae84449    ID.*    DCD    719864905
        0x000044a0:    664a2ae8    .*Jf    DCD    1716136680
        0x000044a4:    2ae84449    ID.*    DCD    719864905
        0x000044a8:    00000000    ....    DCD    0
        0x000044ac:    00000000    ....    DCD    0
        0x000044b0:    44492ae8    .*ID    DCD    1145645800
        0x000044b4:    2ae8664a    Jf.*    DCD    719873610
        0x000044b8:    444919e8    ..ID    DCD    1145641448
        0x000044bc:    19e84449    ID..    DCD    434652233
        0x000044c0:    664a2ae8    .*Jf    DCD    1716136680
        0x000044c4:    2ae84449    ID.*    DCD    719864905
        0x000044c8:    00000000    ....    DCD    0
        0x000044cc:    00000000    ....    DCD    0
        0x000044d0:    44492ae8    .*ID    DCD    1145645800
        0x000044d4:    2ae8664a    Jf.*    DCD    719873610
        0x000044d8:    444919e8    ..ID    DCD    1145641448
        0x000044dc:    19e84449    ID..    DCD    434652233
        0x000044e0:    664a2ae8    .*Jf    DCD    1716136680
        0x000044e4:    2ae84449    ID.*    DCD    719864905
        0x000044e8:    00000000    ....    DCD    0
        0x000044ec:    00000000    ....    DCD    0
        0x000044f0:    44492ae8    .*ID    DCD    1145645800
        0x000044f4:    2ae8664a    Jf.*    DCD    719873610
        0x000044f8:    444919e8    ..ID    DCD    1145641448
        0x000044fc:    19e84449    ID..    DCD    434652233
        0x00004500:    664a2ae8    .*Jf    DCD    1716136680
        0x00004504:    2ae84449    ID.*    DCD    719864905
        0x00004508:    00000000    ....    DCD    0
        0x0000450c:    00000000    ....    DCD    0
        0x00004510:    44492ae8    .*ID    DCD    1145645800
        0x00004514:    2ae8664a    Jf.*    DCD    719873610
        0x00004518:    19e819e8    ....    DCD    434641384
        0x0000451c:    19e819e8    ....    DCD    434641384
        0x00004520:    664a2ae8    .*Jf    DCD    1716136680
        0x00004524:    2ae84449    ID.*    DCD    719864905
        0x00004528:    00000000    ....    DCD    0
        0x0000452c:    00000000    ....    DCD    0
        0x00004530:    44492ae8    .*ID    DCD    1145645800
        0x00004534:    2ae8664a    Jf.*    DCD    719873610
        0x00004538:    19e819e8    ....    DCD    434641384
        0x0000453c:    19e819e8    ....    DCD    434641384
        0x00004540:    664a2ae8    .*Jf    DCD    1716136680
        0x00004544:    2ae84449    ID.*    DCD    719864905
        0x00004548:    00000000    ....    DCD    0
        0x0000454c:    00000000    ....    DCD    0
        0x00004550:    44492ae8    .*ID    DCD    1145645800
        0x00004554:    2ae8664a    Jf.*    DCD    719873610
        0x00004558:    2ae819e8    ...*    DCD    719854056
        0x0000455c:    19e82ae8    .*..    DCD    434645736
        0x00004560:    664a2ae8    .*Jf    DCD    1716136680
        0x00004564:    2ae84449    ID.*    DCD    719864905
        0x00004568:    00000000    ....    DCD    0
        0x0000456c:    00000000    ....    DCD    0
        0x00004570:    44492ae8    .*ID    DCD    1145645800
        0x00004574:    2ae8664a    Jf.*    DCD    719873610
        0x00004578:    2ae82ae8    .*.*    DCD    719858408
        0x0000457c:    2ae82ae8    .*.*    DCD    719858408
        0x00004580:    664a2ae8    .*Jf    DCD    1716136680
        0x00004584:    2ae84449    ID.*    DCD    719864905
        0x00004588:    00000000    ....    DCD    0
        0x0000458c:    00000000    ....    DCD    0
        0x00004590:    44492ae8    .*ID    DCD    1145645800
        0x00004594:    4449664a    JfID    DCD    1145661002
        0x00004598:    44494449    IDID    DCD    1145652297
        0x0000459c:    44494449    IDID    DCD    1145652297
        0x000045a0:    664a4449    IDJf    DCD    1716143177
        0x000045a4:    2ae84449    ID.*    DCD    719864905
        0x000045a8:    00000000    ....    DCD    0
        0x000045ac:    00000000    ....    DCD    0
        0x000045b0:    44492ae8    .*ID    DCD    1145645800
        0x000045b4:    44494449    IDID    DCD    1145652297
        0x000045b8:    2ae82ae8    .*.*    DCD    719858408
        0x000045bc:    2ae82ae8    .*.*    DCD    719858408
        0x000045c0:    44494449    IDID    DCD    1145652297
        0x000045c4:    2ae84449    ID.*    DCD    719864905
        0x000045c8:    00000000    ....    DCD    0
        0x000045cc:    00000000    ....    DCD    0
        0x000045d0:    2ae82ae8    .*.*    DCD    719858408
        0x000045d4:    2ae82ae8    .*.*    DCD    719858408
        0x000045d8:    00000000    ....    DCD    0
        0x000045dc:    00000000    ....    DCD    0
        0x000045e0:    2ae82ae8    .*.*    DCD    719858408
        0x000045e4:    2ae82ae8    .*.*    DCD    719858408
        0x000045e8:    00000000    ....    DCD    0
        0x000045ec:    00000000    ....    DCD    0
        0x000045f0:    00000000    ....    DCD    0
        0x000045f4:    00000000    ....    DCD    0
        0x000045f8:    00000000    ....    DCD    0
        0x000045fc:    00000000    ....    DCD    0
        0x00004600:    00000000    ....    DCD    0
        0x00004604:    00000000    ....    DCD    0
        0x00004608:    00000000    ....    DCD    0
    tank02
        0x0000460c:    00000000    ....    DCD    0
        0x00004610:    00000000    ....    DCD    0
        0x00004614:    00000000    ....    DCD    0
        0x00004618:    7bc60000    ...{    DCD    2076573696
        0x0000461c:    00007bc6    .{..    DCD    31686
        0x00004620:    00000000    ....    DCD    0
        0x00004624:    00000000    ....    DCD    0
        0x00004628:    00000000    ....    DCD    0
        0x0000462c:    00000000    ....    DCD    0
        0x00004630:    00000000    ....    DCD    0
        0x00004634:    00000000    ....    DCD    0
        0x00004638:    7bc60000    ...{    DCD    2076573696
        0x0000463c:    00007bc6    .{..    DCD    31686
        0x00004640:    00000000    ....    DCD    0
        0x00004644:    00000000    ....    DCD    0
        0x00004648:    00000000    ....    DCD    0
        0x0000464c:    00000000    ....    DCD    0
        0x00004650:    2d3a2d3a    :-:-    DCD    758787386
        0x00004654:    2d3a2d3a    :-:-    DCD    758787386
        0x00004658:    7bc60000    ...{    DCD    2076573696
        0x0000465c:    00007bc6    .{..    DCD    31686
        0x00004660:    2d3a2d3a    :-:-    DCD    758787386
        0x00004664:    2d3a2d3a    :-:-    DCD    758787386
        0x00004668:    00000000    ....    DCD    0
        0x0000466c:    00000000    ....    DCD    0
        0x00004670:    f68c2d3a    :-..    DCD    4136381754
        0x00004674:    f68cf68c    ....    DCD    4136433292
        0x00004678:    7bc6515b    [Q.{    DCD    2076594523
        0x0000467c:    515b7bc6    .{[Q    DCD    1364949958
        0x00004680:    f68cf68c    ....    DCD    4136433292
        0x00004684:    2d3af68c    ..:-    DCD    758838924
        0x00004688:    00000000    ....    DCD    0
        0x0000468c:    00000000    ....    DCD    0
        0x00004690:    f68c2d3a    :-..    DCD    4136381754
        0x00004694:    515b7bc6    .{[Q    DCD    1364949958
        0x00004698:    7bc6515b    [Q.{    DCD    2076594523
        0x0000469c:    515b7bc6    .{[Q    DCD    1364949958
        0x000046a0:    7bc6515b    [Q.{    DCD    2076594523
        0x000046a4:    2d3af68c    ..:-    DCD    758838924
        0x000046a8:    00000000    ....    DCD    0
        0x000046ac:    00000000    ....    DCD    0
        0x000046b0:    f68c2d3a    :-..    DCD    4136381754
        0x000046b4:    515b7bc6    .{[Q    DCD    1364949958
        0x000046b8:    7bc62d3a    :-.{    DCD    2076585274
        0x000046bc:    2d3a7bc6    .{:-    DCD    758807494
        0x000046c0:    7bc6515b    [Q.{    DCD    2076594523
        0x000046c4:    2d3af68c    ..:-    DCD    758838924
        0x000046c8:    00000000    ....    DCD    0
        0x000046cc:    00000000    ....    DCD    0
        0x000046d0:    f68c2d3a    :-..    DCD    4136381754
        0x000046d4:    515b7bc6    .{[Q    DCD    1364949958
        0x000046d8:    7bc62d3a    :-.{    DCD    2076585274
        0x000046dc:    2d3a7bc6    .{:-    DCD    758807494
        0x000046e0:    7bc6515b    [Q.{    DCD    2076594523
        0x000046e4:    2d3af68c    ..:-    DCD    758838924
        0x000046e8:    00000000    ....    DCD    0
        0x000046ec:    00000000    ....    DCD    0
        0x000046f0:    f68c2d3a    :-..    DCD    4136381754
        0x000046f4:    515b7bc6    .{[Q    DCD    1364949958
        0x000046f8:    7bc62d3a    :-.{    DCD    2076585274
        0x000046fc:    2d3a7bc6    .{:-    DCD    758807494
        0x00004700:    7bc6515b    [Q.{    DCD    2076594523
        0x00004704:    2d3af68c    ..:-    DCD    758838924
        0x00004708:    00000000    ....    DCD    0
        0x0000470c:    00000000    ....    DCD    0
        0x00004710:    f68c2d3a    :-..    DCD    4136381754
        0x00004714:    515b7bc6    .{[Q    DCD    1364949958
        0x00004718:    2d3a2d3a    :-:-    DCD    758787386
        0x0000471c:    2d3a2d3a    :-:-    DCD    758787386
        0x00004720:    7bc6515b    [Q.{    DCD    2076594523
        0x00004724:    2d3af68c    ..:-    DCD    758838924
        0x00004728:    00000000    ....    DCD    0
        0x0000472c:    00000000    ....    DCD    0
        0x00004730:    f68c2d3a    :-..    DCD    4136381754
        0x00004734:    515b7bc6    .{[Q    DCD    1364949958
        0x00004738:    2d3a2d3a    :-:-    DCD    758787386
        0x0000473c:    2d3a2d3a    :-:-    DCD    758787386
        0x00004740:    7bc6515b    [Q.{    DCD    2076594523
        0x00004744:    2d3af68c    ..:-    DCD    758838924
        0x00004748:    00000000    ....    DCD    0
        0x0000474c:    00000000    ....    DCD    0
        0x00004750:    f68c2d3a    :-..    DCD    4136381754
        0x00004754:    515b7bc6    .{[Q    DCD    1364949958
        0x00004758:    515b2d3a    :-[Q    DCD    1364929850
        0x0000475c:    2d3a515b    [Q:-    DCD    758796635
        0x00004760:    7bc6515b    [Q.{    DCD    2076594523
        0x00004764:    2d3af68c    ..:-    DCD    758838924
        0x00004768:    00000000    ....    DCD    0
        0x0000476c:    00000000    ....    DCD    0
        0x00004770:    f68c2d3a    :-..    DCD    4136381754
        0x00004774:    515b7bc6    .{[Q    DCD    1364949958
        0x00004778:    515b515b    [Q[Q    DCD    1364939099
        0x0000477c:    515b515b    [Q[Q    DCD    1364939099
        0x00004780:    7bc6515b    [Q.{    DCD    2076594523
        0x00004784:    2d3af68c    ..:-    DCD    758838924
        0x00004788:    00000000    ....    DCD    0
        0x0000478c:    00000000    ....    DCD    0
        0x00004790:    f68c2d3a    :-..    DCD    4136381754
        0x00004794:    f68c7bc6    .{..    DCD    4136401862
        0x00004798:    f68cf68c    ....    DCD    4136433292
        0x0000479c:    f68cf68c    ....    DCD    4136433292
        0x000047a0:    7bc6f68c    ...{    DCD    2076636812
        0x000047a4:    2d3af68c    ..:-    DCD    758838924
        0x000047a8:    00000000    ....    DCD    0
        0x000047ac:    00000000    ....    DCD    0
        0x000047b0:    f68c2d3a    :-..    DCD    4136381754
        0x000047b4:    f68cf68c    ....    DCD    4136433292
        0x000047b8:    2d3a2d3a    :-:-    DCD    758787386
        0x000047bc:    2d3a2d3a    :-:-    DCD    758787386
        0x000047c0:    f68cf68c    ....    DCD    4136433292
        0x000047c4:    2d3af68c    ..:-    DCD    758838924
        0x000047c8:    00000000    ....    DCD    0
        0x000047cc:    00000000    ....    DCD    0
        0x000047d0:    2d3a2d3a    :-:-    DCD    758787386
        0x000047d4:    2d3a2d3a    :-:-    DCD    758787386
        0x000047d8:    00000000    ....    DCD    0
        0x000047dc:    00000000    ....    DCD    0
        0x000047e0:    2d3a2d3a    :-:-    DCD    758787386
        0x000047e4:    2d3a2d3a    :-:-    DCD    758787386
        0x000047e8:    00000000    ....    DCD    0
        0x000047ec:    00000000    ....    DCD    0
        0x000047f0:    00000000    ....    DCD    0
        0x000047f4:    00000000    ....    DCD    0
        0x000047f8:    00000000    ....    DCD    0
        0x000047fc:    00000000    ....    DCD    0
        0x00004800:    00000000    ....    DCD    0
        0x00004804:    00000000    ....    DCD    0
        0x00004808:    00000000    ....    DCD    0
    letter_A
        0x0000480c:    ffffffff    ....    DCD    4294967295
        0x00004810:    ffffffff    ....    DCD    4294967295
        0x00004814:    ffffffff    ....    DCD    4294967295
        0x00004818:    ffffffff    ....    DCD    4294967295
        0x0000481c:    ffffffff    ....    DCD    4294967295
        0x00004820:    ffffffff    ....    DCD    4294967295
        0x00004824:    ffffffff    ....    DCD    4294967295
        0x00004828:    ffffffff    ....    DCD    4294967295
        0x0000482c:    00000000    ....    DCD    0
        0x00004830:    00000000    ....    DCD    0
        0x00004834:    ffffffff    ....    DCD    4294967295
        0x00004838:    ffffffff    ....    DCD    4294967295
        0x0000483c:    ffffffff    ....    DCD    4294967295
        0x00004840:    ffffffff    ....    DCD    4294967295
        0x00004844:    00000000    ....    DCD    0
        0x00004848:    00000000    ....    DCD    0
        0x0000484c:    ffffffff    ....    DCD    4294967295
        0x00004850:    ffffffff    ....    DCD    4294967295
        0x00004854:    ffffffff    ....    DCD    4294967295
        0x00004858:    00000000    ....    DCD    0
        0x0000485c:    ffffffff    ....    DCD    4294967295
        0x00004860:    ffffffff    ....    DCD    4294967295
        0x00004864:    00000000    ....    DCD    0
        0x00004868:    ffffffff    ....    DCD    4294967295
        0x0000486c:    ffffffff    ....    DCD    4294967295
        0x00004870:    00000000    ....    DCD    0
        0x00004874:    ffffffff    ....    DCD    4294967295
        0x00004878:    ffffffff    ....    DCD    4294967295
        0x0000487c:    00000000    ....    DCD    0
        0x00004880:    ffffffff    ....    DCD    4294967295
        0x00004884:    ffffffff    ....    DCD    4294967295
        0x00004888:    00000000    ....    DCD    0
        0x0000488c:    ffffffff    ....    DCD    4294967295
        0x00004890:    ffffffff    ....    DCD    4294967295
        0x00004894:    00000000    ....    DCD    0
        0x00004898:    ffffffff    ....    DCD    4294967295
        0x0000489c:    ffffffff    ....    DCD    4294967295
        0x000048a0:    00000000    ....    DCD    0
        0x000048a4:    ffffffff    ....    DCD    4294967295
        0x000048a8:    ffffffff    ....    DCD    4294967295
        0x000048ac:    00000000    ....    DCD    0
        0x000048b0:    ffffffff    ....    DCD    4294967295
        0x000048b4:    ffffffff    ....    DCD    4294967295
        0x000048b8:    00000000    ....    DCD    0
        0x000048bc:    00000000    ....    DCD    0
        0x000048c0:    00000000    ....    DCD    0
        0x000048c4:    00000000    ....    DCD    0
        0x000048c8:    ffffffff    ....    DCD    4294967295
        0x000048cc:    ffffffff    ....    DCD    4294967295
        0x000048d0:    00000000    ....    DCD    0
        0x000048d4:    00000000    ....    DCD    0
        0x000048d8:    00000000    ....    DCD    0
        0x000048dc:    00000000    ....    DCD    0
        0x000048e0:    ffffffff    ....    DCD    4294967295
        0x000048e4:    ffffffff    ....    DCD    4294967295
        0x000048e8:    00000000    ....    DCD    0
        0x000048ec:    ffffffff    ....    DCD    4294967295
        0x000048f0:    ffffffff    ....    DCD    4294967295
        0x000048f4:    00000000    ....    DCD    0
        0x000048f8:    ffffffff    ....    DCD    4294967295
        0x000048fc:    ffffffff    ....    DCD    4294967295
        0x00004900:    00000000    ....    DCD    0
        0x00004904:    ffffffff    ....    DCD    4294967295
        0x00004908:    ffffffff    ....    DCD    4294967295
        0x0000490c:    00000000    ....    DCD    0
        0x00004910:    ffffffff    ....    DCD    4294967295
        0x00004914:    ffffffff    ....    DCD    4294967295
        0x00004918:    ffffffff    ....    DCD    4294967295
        0x0000491c:    ffffffff    ....    DCD    4294967295
        0x00004920:    ffffffff    ....    DCD    4294967295
        0x00004924:    ffffffff    ....    DCD    4294967295
        0x00004928:    ffffffff    ....    DCD    4294967295
    letter_B
        0x0000492c:    ffffffff    ....    DCD    4294967295
        0x00004930:    ffffffff    ....    DCD    4294967295
        0x00004934:    ffffffff    ....    DCD    4294967295
        0x00004938:    ffffffff    ....    DCD    4294967295
        0x0000493c:    ffffffff    ....    DCD    4294967295
        0x00004940:    ffffffff    ....    DCD    4294967295
        0x00004944:    ffffffff    ....    DCD    4294967295
        0x00004948:    00000000    ....    DCD    0
        0x0000494c:    00000000    ....    DCD    0
        0x00004950:    00000000    ....    DCD    0
        0x00004954:    ffffffff    ....    DCD    4294967295
        0x00004958:    ffffffff    ....    DCD    4294967295
        0x0000495c:    ffffffff    ....    DCD    4294967295
        0x00004960:    00000000    ....    DCD    0
        0x00004964:    00000000    ....    DCD    0
        0x00004968:    00000000    ....    DCD    0
        0x0000496c:    ffffffff    ....    DCD    4294967295
        0x00004970:    ffffffff    ....    DCD    4294967295
        0x00004974:    ffffffff    ....    DCD    4294967295
        0x00004978:    00000000    ....    DCD    0
        0x0000497c:    ffffffff    ....    DCD    4294967295
        0x00004980:    ffffffff    ....    DCD    4294967295
        0x00004984:    00000000    ....    DCD    0
        0x00004988:    ffffffff    ....    DCD    4294967295
        0x0000498c:    ffffffff    ....    DCD    4294967295
        0x00004990:    00000000    ....    DCD    0
        0x00004994:    ffffffff    ....    DCD    4294967295
        0x00004998:    ffffffff    ....    DCD    4294967295
        0x0000499c:    00000000    ....    DCD    0
        0x000049a0:    ffffffff    ....    DCD    4294967295
        0x000049a4:    ffffffff    ....    DCD    4294967295
        0x000049a8:    00000000    ....    DCD    0
        0x000049ac:    00000000    ....    DCD    0
        0x000049b0:    00000000    ....    DCD    0
        0x000049b4:    ffffffff    ....    DCD    4294967295
        0x000049b8:    ffffffff    ....    DCD    4294967295
        0x000049bc:    ffffffff    ....    DCD    4294967295
        0x000049c0:    00000000    ....    DCD    0
        0x000049c4:    00000000    ....    DCD    0
        0x000049c8:    00000000    ....    DCD    0
        0x000049cc:    ffffffff    ....    DCD    4294967295
        0x000049d0:    ffffffff    ....    DCD    4294967295
        0x000049d4:    ffffffff    ....    DCD    4294967295
        0x000049d8:    00000000    ....    DCD    0
        0x000049dc:    ffffffff    ....    DCD    4294967295
        0x000049e0:    ffffffff    ....    DCD    4294967295
        0x000049e4:    00000000    ....    DCD    0
        0x000049e8:    ffffffff    ....    DCD    4294967295
        0x000049ec:    ffffffff    ....    DCD    4294967295
        0x000049f0:    00000000    ....    DCD    0
        0x000049f4:    ffffffff    ....    DCD    4294967295
        0x000049f8:    ffffffff    ....    DCD    4294967295
        0x000049fc:    00000000    ....    DCD    0
        0x00004a00:    ffffffff    ....    DCD    4294967295
        0x00004a04:    ffffffff    ....    DCD    4294967295
        0x00004a08:    00000000    ....    DCD    0
        0x00004a0c:    00000000    ....    DCD    0
        0x00004a10:    00000000    ....    DCD    0
        0x00004a14:    ffffffff    ....    DCD    4294967295
        0x00004a18:    ffffffff    ....    DCD    4294967295
        0x00004a1c:    ffffffff    ....    DCD    4294967295
        0x00004a20:    00000000    ....    DCD    0
        0x00004a24:    00000000    ....    DCD    0
        0x00004a28:    00000000    ....    DCD    0
        0x00004a2c:    ffffffff    ....    DCD    4294967295
        0x00004a30:    ffffffff    ....    DCD    4294967295
        0x00004a34:    ffffffff    ....    DCD    4294967295
        0x00004a38:    ffffffff    ....    DCD    4294967295
        0x00004a3c:    ffffffff    ....    DCD    4294967295
        0x00004a40:    ffffffff    ....    DCD    4294967295
        0x00004a44:    ffffffff    ....    DCD    4294967295
        0x00004a48:    ffffffff    ....    DCD    4294967295
    letter_C
        0x00004a4c:    ffffffff    ....    DCD    4294967295
        0x00004a50:    ffffffff    ....    DCD    4294967295
        0x00004a54:    ffffffff    ....    DCD    4294967295
        0x00004a58:    ffffffff    ....    DCD    4294967295
        0x00004a5c:    ffffffff    ....    DCD    4294967295
        0x00004a60:    ffffffff    ....    DCD    4294967295
        0x00004a64:    ffffffff    ....    DCD    4294967295
        0x00004a68:    ffffffff    ....    DCD    4294967295
        0x00004a6c:    00000000    ....    DCD    0
        0x00004a70:    00000000    ....    DCD    0
        0x00004a74:    ffffffff    ....    DCD    4294967295
        0x00004a78:    ffffffff    ....    DCD    4294967295
        0x00004a7c:    ffffffff    ....    DCD    4294967295
        0x00004a80:    ffffffff    ....    DCD    4294967295
        0x00004a84:    00000000    ....    DCD    0
        0x00004a88:    00000000    ....    DCD    0
        0x00004a8c:    ffffffff    ....    DCD    4294967295
        0x00004a90:    ffffffff    ....    DCD    4294967295
        0x00004a94:    ffffffff    ....    DCD    4294967295
        0x00004a98:    00000000    ....    DCD    0
        0x00004a9c:    ffffffff    ....    DCD    4294967295
        0x00004aa0:    ffffffff    ....    DCD    4294967295
        0x00004aa4:    00000000    ....    DCD    0
        0x00004aa8:    ffffffff    ....    DCD    4294967295
        0x00004aac:    ffffffff    ....    DCD    4294967295
        0x00004ab0:    00000000    ....    DCD    0
        0x00004ab4:    ffffffff    ....    DCD    4294967295
        0x00004ab8:    ffffffff    ....    DCD    4294967295
        0x00004abc:    00000000    ....    DCD    0
        0x00004ac0:    ffffffff    ....    DCD    4294967295
        0x00004ac4:    ffffffff    ....    DCD    4294967295
        0x00004ac8:    00000000    ....    DCD    0
        0x00004acc:    ffffffff    ....    DCD    4294967295
        0x00004ad0:    ffffffff    ....    DCD    4294967295
        0x00004ad4:    ffffffff    ....    DCD    4294967295
        0x00004ad8:    ffffffff    ....    DCD    4294967295
        0x00004adc:    ffffffff    ....    DCD    4294967295
        0x00004ae0:    00000000    ....    DCD    0
        0x00004ae4:    ffffffff    ....    DCD    4294967295
        0x00004ae8:    ffffffff    ....    DCD    4294967295
        0x00004aec:    ffffffff    ....    DCD    4294967295
        0x00004af0:    ffffffff    ....    DCD    4294967295
        0x00004af4:    ffffffff    ....    DCD    4294967295
        0x00004af8:    00000000    ....    DCD    0
        0x00004afc:    ffffffff    ....    DCD    4294967295
        0x00004b00:    ffffffff    ....    DCD    4294967295
        0x00004b04:    00000000    ....    DCD    0
        0x00004b08:    ffffffff    ....    DCD    4294967295
        0x00004b0c:    ffffffff    ....    DCD    4294967295
        0x00004b10:    00000000    ....    DCD    0
        0x00004b14:    ffffffff    ....    DCD    4294967295
        0x00004b18:    ffffffff    ....    DCD    4294967295
        0x00004b1c:    00000000    ....    DCD    0
        0x00004b20:    ffffffff    ....    DCD    4294967295
        0x00004b24:    ffffffff    ....    DCD    4294967295
        0x00004b28:    ffffffff    ....    DCD    4294967295
        0x00004b2c:    00000000    ....    DCD    0
        0x00004b30:    00000000    ....    DCD    0
        0x00004b34:    ffffffff    ....    DCD    4294967295
        0x00004b38:    ffffffff    ....    DCD    4294967295
        0x00004b3c:    ffffffff    ....    DCD    4294967295
        0x00004b40:    ffffffff    ....    DCD    4294967295
        0x00004b44:    00000000    ....    DCD    0
        0x00004b48:    00000000    ....    DCD    0
        0x00004b4c:    ffffffff    ....    DCD    4294967295
        0x00004b50:    ffffffff    ....    DCD    4294967295
        0x00004b54:    ffffffff    ....    DCD    4294967295
        0x00004b58:    ffffffff    ....    DCD    4294967295
        0x00004b5c:    ffffffff    ....    DCD    4294967295
        0x00004b60:    ffffffff    ....    DCD    4294967295
        0x00004b64:    ffffffff    ....    DCD    4294967295
        0x00004b68:    ffffffff    ....    DCD    4294967295
    letter_D
        0x00004b6c:    ffffffff    ....    DCD    4294967295
        0x00004b70:    ffffffff    ....    DCD    4294967295
        0x00004b74:    ffffffff    ....    DCD    4294967295
        0x00004b78:    ffffffff    ....    DCD    4294967295
        0x00004b7c:    ffffffff    ....    DCD    4294967295
        0x00004b80:    ffffffff    ....    DCD    4294967295
        0x00004b84:    ffffffff    ....    DCD    4294967295
        0x00004b88:    00000000    ....    DCD    0
        0x00004b8c:    00000000    ....    DCD    0
        0x00004b90:    00000000    ....    DCD    0
        0x00004b94:    ffffffff    ....    DCD    4294967295
        0x00004b98:    ffffffff    ....    DCD    4294967295
        0x00004b9c:    ffffffff    ....    DCD    4294967295
        0x00004ba0:    00000000    ....    DCD    0
        0x00004ba4:    00000000    ....    DCD    0
        0x00004ba8:    00000000    ....    DCD    0
        0x00004bac:    ffffffff    ....    DCD    4294967295
        0x00004bb0:    ffffffff    ....    DCD    4294967295
        0x00004bb4:    ffffffff    ....    DCD    4294967295
        0x00004bb8:    00000000    ....    DCD    0
        0x00004bbc:    ffffffff    ....    DCD    4294967295
        0x00004bc0:    ffffffff    ....    DCD    4294967295
        0x00004bc4:    00000000    ....    DCD    0
        0x00004bc8:    ffffffff    ....    DCD    4294967295
        0x00004bcc:    ffffffff    ....    DCD    4294967295
        0x00004bd0:    00000000    ....    DCD    0
        0x00004bd4:    ffffffff    ....    DCD    4294967295
        0x00004bd8:    ffffffff    ....    DCD    4294967295
        0x00004bdc:    00000000    ....    DCD    0
        0x00004be0:    ffffffff    ....    DCD    4294967295
        0x00004be4:    ffffffff    ....    DCD    4294967295
        0x00004be8:    00000000    ....    DCD    0
        0x00004bec:    ffffffff    ....    DCD    4294967295
        0x00004bf0:    ffffffff    ....    DCD    4294967295
        0x00004bf4:    00000000    ....    DCD    0
        0x00004bf8:    ffffffff    ....    DCD    4294967295
        0x00004bfc:    ffffffff    ....    DCD    4294967295
        0x00004c00:    00000000    ....    DCD    0
        0x00004c04:    ffffffff    ....    DCD    4294967295
        0x00004c08:    ffffffff    ....    DCD    4294967295
        0x00004c0c:    00000000    ....    DCD    0
        0x00004c10:    ffffffff    ....    DCD    4294967295
        0x00004c14:    ffffffff    ....    DCD    4294967295
        0x00004c18:    00000000    ....    DCD    0
        0x00004c1c:    ffffffff    ....    DCD    4294967295
        0x00004c20:    ffffffff    ....    DCD    4294967295
        0x00004c24:    00000000    ....    DCD    0
        0x00004c28:    ffffffff    ....    DCD    4294967295
        0x00004c2c:    ffffffff    ....    DCD    4294967295
        0x00004c30:    00000000    ....    DCD    0
        0x00004c34:    ffffffff    ....    DCD    4294967295
        0x00004c38:    ffffffff    ....    DCD    4294967295
        0x00004c3c:    00000000    ....    DCD    0
        0x00004c40:    ffffffff    ....    DCD    4294967295
        0x00004c44:    ffffffff    ....    DCD    4294967295
        0x00004c48:    00000000    ....    DCD    0
        0x00004c4c:    00000000    ....    DCD    0
        0x00004c50:    00000000    ....    DCD    0
        0x00004c54:    ffffffff    ....    DCD    4294967295
        0x00004c58:    ffffffff    ....    DCD    4294967295
        0x00004c5c:    ffffffff    ....    DCD    4294967295
        0x00004c60:    00000000    ....    DCD    0
        0x00004c64:    00000000    ....    DCD    0
        0x00004c68:    00000000    ....    DCD    0
        0x00004c6c:    ffffffff    ....    DCD    4294967295
        0x00004c70:    ffffffff    ....    DCD    4294967295
        0x00004c74:    ffffffff    ....    DCD    4294967295
        0x00004c78:    ffffffff    ....    DCD    4294967295
        0x00004c7c:    ffffffff    ....    DCD    4294967295
        0x00004c80:    ffffffff    ....    DCD    4294967295
        0x00004c84:    ffffffff    ....    DCD    4294967295
        0x00004c88:    ffffffff    ....    DCD    4294967295
    letter_E
        0x00004c8c:    ffffffff    ....    DCD    4294967295
        0x00004c90:    ffffffff    ....    DCD    4294967295
        0x00004c94:    ffffffff    ....    DCD    4294967295
        0x00004c98:    ffffffff    ....    DCD    4294967295
        0x00004c9c:    ffffffff    ....    DCD    4294967295
        0x00004ca0:    ffffffff    ....    DCD    4294967295
        0x00004ca4:    ffffffff    ....    DCD    4294967295
        0x00004ca8:    00000000    ....    DCD    0
        0x00004cac:    00000000    ....    DCD    0
        0x00004cb0:    00000000    ....    DCD    0
        0x00004cb4:    00000000    ....    DCD    0
        0x00004cb8:    ffffffff    ....    DCD    4294967295
        0x00004cbc:    ffffffff    ....    DCD    4294967295
        0x00004cc0:    00000000    ....    DCD    0
        0x00004cc4:    00000000    ....    DCD    0
        0x00004cc8:    00000000    ....    DCD    0
        0x00004ccc:    00000000    ....    DCD    0
        0x00004cd0:    ffffffff    ....    DCD    4294967295
        0x00004cd4:    ffffffff    ....    DCD    4294967295
        0x00004cd8:    00000000    ....    DCD    0
        0x00004cdc:    ffffffff    ....    DCD    4294967295
        0x00004ce0:    ffffffff    ....    DCD    4294967295
        0x00004ce4:    ffffffff    ....    DCD    4294967295
        0x00004ce8:    ffffffff    ....    DCD    4294967295
        0x00004cec:    ffffffff    ....    DCD    4294967295
        0x00004cf0:    00000000    ....    DCD    0
        0x00004cf4:    ffffffff    ....    DCD    4294967295
        0x00004cf8:    ffffffff    ....    DCD    4294967295
        0x00004cfc:    ffffffff    ....    DCD    4294967295
        0x00004d00:    ffffffff    ....    DCD    4294967295
        0x00004d04:    ffffffff    ....    DCD    4294967295
        0x00004d08:    00000000    ....    DCD    0
        0x00004d0c:    00000000    ....    DCD    0
        0x00004d10:    00000000    ....    DCD    0
        0x00004d14:    ffffffff    ....    DCD    4294967295
        0x00004d18:    ffffffff    ....    DCD    4294967295
        0x00004d1c:    ffffffff    ....    DCD    4294967295
        0x00004d20:    00000000    ....    DCD    0
        0x00004d24:    00000000    ....    DCD    0
        0x00004d28:    00000000    ....    DCD    0
        0x00004d2c:    ffffffff    ....    DCD    4294967295
        0x00004d30:    ffffffff    ....    DCD    4294967295
        0x00004d34:    ffffffff    ....    DCD    4294967295
        0x00004d38:    00000000    ....    DCD    0
        0x00004d3c:    ffffffff    ....    DCD    4294967295
        0x00004d40:    ffffffff    ....    DCD    4294967295
        0x00004d44:    ffffffff    ....    DCD    4294967295
        0x00004d48:    ffffffff    ....    DCD    4294967295
        0x00004d4c:    ffffffff    ....    DCD    4294967295
        0x00004d50:    00000000    ....    DCD    0
        0x00004d54:    ffffffff    ....    DCD    4294967295
        0x00004d58:    ffffffff    ....    DCD    4294967295
        0x00004d5c:    ffffffff    ....    DCD    4294967295
        0x00004d60:    ffffffff    ....    DCD    4294967295
        0x00004d64:    ffffffff    ....    DCD    4294967295
        0x00004d68:    00000000    ....    DCD    0
        0x00004d6c:    00000000    ....    DCD    0
        0x00004d70:    00000000    ....    DCD    0
        0x00004d74:    00000000    ....    DCD    0
        0x00004d78:    ffffffff    ....    DCD    4294967295
        0x00004d7c:    ffffffff    ....    DCD    4294967295
        0x00004d80:    00000000    ....    DCD    0
        0x00004d84:    00000000    ....    DCD    0
        0x00004d88:    00000000    ....    DCD    0
        0x00004d8c:    00000000    ....    DCD    0
        0x00004d90:    ffffffff    ....    DCD    4294967295
        0x00004d94:    ffffffff    ....    DCD    4294967295
        0x00004d98:    ffffffff    ....    DCD    4294967295
        0x00004d9c:    ffffffff    ....    DCD    4294967295
        0x00004da0:    ffffffff    ....    DCD    4294967295
        0x00004da4:    ffffffff    ....    DCD    4294967295
        0x00004da8:    ffffffff    ....    DCD    4294967295
    letter_F
        0x00004dac:    ffffffff    ....    DCD    4294967295
        0x00004db0:    ffffffff    ....    DCD    4294967295
        0x00004db4:    ffffffff    ....    DCD    4294967295
        0x00004db8:    ffffffff    ....    DCD    4294967295
        0x00004dbc:    ffffffff    ....    DCD    4294967295
        0x00004dc0:    ffffffff    ....    DCD    4294967295
        0x00004dc4:    ffffffff    ....    DCD    4294967295
        0x00004dc8:    00000000    ....    DCD    0
        0x00004dcc:    00000000    ....    DCD    0
        0x00004dd0:    00000000    ....    DCD    0
        0x00004dd4:    00000000    ....    DCD    0
        0x00004dd8:    ffffffff    ....    DCD    4294967295
        0x00004ddc:    ffffffff    ....    DCD    4294967295
        0x00004de0:    00000000    ....    DCD    0
        0x00004de4:    00000000    ....    DCD    0
        0x00004de8:    00000000    ....    DCD    0
        0x00004dec:    00000000    ....    DCD    0
        0x00004df0:    ffffffff    ....    DCD    4294967295
        0x00004df4:    ffffffff    ....    DCD    4294967295
        0x00004df8:    00000000    ....    DCD    0
        0x00004dfc:    ffffffff    ....    DCD    4294967295
        0x00004e00:    ffffffff    ....    DCD    4294967295
        0x00004e04:    ffffffff    ....    DCD    4294967295
        0x00004e08:    ffffffff    ....    DCD    4294967295
        0x00004e0c:    ffffffff    ....    DCD    4294967295
        0x00004e10:    00000000    ....    DCD    0
        0x00004e14:    ffffffff    ....    DCD    4294967295
        0x00004e18:    ffffffff    ....    DCD    4294967295
        0x00004e1c:    ffffffff    ....    DCD    4294967295
        0x00004e20:    ffffffff    ....    DCD    4294967295
        0x00004e24:    ffffffff    ....    DCD    4294967295
        0x00004e28:    00000000    ....    DCD    0
        0x00004e2c:    00000000    ....    DCD    0
        0x00004e30:    00000000    ....    DCD    0
        0x00004e34:    ffffffff    ....    DCD    4294967295
        0x00004e38:    ffffffff    ....    DCD    4294967295
        0x00004e3c:    ffffffff    ....    DCD    4294967295
        0x00004e40:    00000000    ....    DCD    0
        0x00004e44:    00000000    ....    DCD    0
        0x00004e48:    00000000    ....    DCD    0
        0x00004e4c:    ffffffff    ....    DCD    4294967295
        0x00004e50:    ffffffff    ....    DCD    4294967295
        0x00004e54:    ffffffff    ....    DCD    4294967295
        0x00004e58:    00000000    ....    DCD    0
        0x00004e5c:    ffffffff    ....    DCD    4294967295
        0x00004e60:    ffffffff    ....    DCD    4294967295
        0x00004e64:    ffffffff    ....    DCD    4294967295
        0x00004e68:    ffffffff    ....    DCD    4294967295
        0x00004e6c:    ffffffff    ....    DCD    4294967295
        0x00004e70:    00000000    ....    DCD    0
        0x00004e74:    ffffffff    ....    DCD    4294967295
        0x00004e78:    ffffffff    ....    DCD    4294967295
        0x00004e7c:    ffffffff    ....    DCD    4294967295
        0x00004e80:    ffffffff    ....    DCD    4294967295
        0x00004e84:    ffffffff    ....    DCD    4294967295
        0x00004e88:    00000000    ....    DCD    0
        0x00004e8c:    ffffffff    ....    DCD    4294967295
        0x00004e90:    ffffffff    ....    DCD    4294967295
        0x00004e94:    ffffffff    ....    DCD    4294967295
        0x00004e98:    ffffffff    ....    DCD    4294967295
        0x00004e9c:    ffffffff    ....    DCD    4294967295
        0x00004ea0:    00000000    ....    DCD    0
        0x00004ea4:    ffffffff    ....    DCD    4294967295
        0x00004ea8:    ffffffff    ....    DCD    4294967295
        0x00004eac:    ffffffff    ....    DCD    4294967295
        0x00004eb0:    ffffffff    ....    DCD    4294967295
        0x00004eb4:    ffffffff    ....    DCD    4294967295
        0x00004eb8:    ffffffff    ....    DCD    4294967295
        0x00004ebc:    ffffffff    ....    DCD    4294967295
        0x00004ec0:    ffffffff    ....    DCD    4294967295
        0x00004ec4:    ffffffff    ....    DCD    4294967295
        0x00004ec8:    ffffffff    ....    DCD    4294967295
    letter_G
        0x00004ecc:    ffffffff    ....    DCD    4294967295
        0x00004ed0:    ffffffff    ....    DCD    4294967295
        0x00004ed4:    ffffffff    ....    DCD    4294967295
        0x00004ed8:    ffffffff    ....    DCD    4294967295
        0x00004edc:    ffffffff    ....    DCD    4294967295
        0x00004ee0:    ffffffff    ....    DCD    4294967295
        0x00004ee4:    ffffffff    ....    DCD    4294967295
        0x00004ee8:    ffffffff    ....    DCD    4294967295
        0x00004eec:    00000000    ....    DCD    0
        0x00004ef0:    00000000    ....    DCD    0
        0x00004ef4:    ffffffff    ....    DCD    4294967295
        0x00004ef8:    ffffffff    ....    DCD    4294967295
        0x00004efc:    ffffffff    ....    DCD    4294967295
        0x00004f00:    ffffffff    ....    DCD    4294967295
        0x00004f04:    00000000    ....    DCD    0
        0x00004f08:    00000000    ....    DCD    0
        0x00004f0c:    ffffffff    ....    DCD    4294967295
        0x00004f10:    ffffffff    ....    DCD    4294967295
        0x00004f14:    ffffffff    ....    DCD    4294967295
        0x00004f18:    00000000    ....    DCD    0
        0x00004f1c:    ffffffff    ....    DCD    4294967295
        0x00004f20:    ffffffff    ....    DCD    4294967295
        0x00004f24:    ffffffff    ....    DCD    4294967295
        0x00004f28:    ffffffff    ....    DCD    4294967295
        0x00004f2c:    ffffffff    ....    DCD    4294967295
        0x00004f30:    00000000    ....    DCD    0
        0x00004f34:    ffffffff    ....    DCD    4294967295
        0x00004f38:    ffffffff    ....    DCD    4294967295
        0x00004f3c:    ffffffff    ....    DCD    4294967295
        0x00004f40:    ffffffff    ....    DCD    4294967295
        0x00004f44:    ffffffff    ....    DCD    4294967295
        0x00004f48:    00000000    ....    DCD    0
        0x00004f4c:    ffffffff    ....    DCD    4294967295
        0x00004f50:    00000000    ....    DCD    0
        0x00004f54:    00000000    ....    DCD    0
        0x00004f58:    ffffffff    ....    DCD    4294967295
        0x00004f5c:    ffffffff    ....    DCD    4294967295
        0x00004f60:    00000000    ....    DCD    0
        0x00004f64:    ffffffff    ....    DCD    4294967295
        0x00004f68:    00000000    ....    DCD    0
        0x00004f6c:    00000000    ....    DCD    0
        0x00004f70:    ffffffff    ....    DCD    4294967295
        0x00004f74:    ffffffff    ....    DCD    4294967295
        0x00004f78:    00000000    ....    DCD    0
        0x00004f7c:    ffffffff    ....    DCD    4294967295
        0x00004f80:    ffffffff    ....    DCD    4294967295
        0x00004f84:    00000000    ....    DCD    0
        0x00004f88:    ffffffff    ....    DCD    4294967295
        0x00004f8c:    ffffffff    ....    DCD    4294967295
        0x00004f90:    00000000    ....    DCD    0
        0x00004f94:    ffffffff    ....    DCD    4294967295
        0x00004f98:    ffffffff    ....    DCD    4294967295
        0x00004f9c:    00000000    ....    DCD    0
        0x00004fa0:    ffffffff    ....    DCD    4294967295
        0x00004fa4:    ffffffff    ....    DCD    4294967295
        0x00004fa8:    ffffffff    ....    DCD    4294967295
        0x00004fac:    00000000    ....    DCD    0
        0x00004fb0:    00000000    ....    DCD    0
        0x00004fb4:    ffffffff    ....    DCD    4294967295
        0x00004fb8:    ffffffff    ....    DCD    4294967295
        0x00004fbc:    ffffffff    ....    DCD    4294967295
        0x00004fc0:    ffffffff    ....    DCD    4294967295
        0x00004fc4:    00000000    ....    DCD    0
        0x00004fc8:    00000000    ....    DCD    0
        0x00004fcc:    ffffffff    ....    DCD    4294967295
        0x00004fd0:    ffffffff    ....    DCD    4294967295
        0x00004fd4:    ffffffff    ....    DCD    4294967295
        0x00004fd8:    ffffffff    ....    DCD    4294967295
        0x00004fdc:    ffffffff    ....    DCD    4294967295
        0x00004fe0:    ffffffff    ....    DCD    4294967295
        0x00004fe4:    ffffffff    ....    DCD    4294967295
        0x00004fe8:    ffffffff    ....    DCD    4294967295
    letter_H
        0x00004fec:    ffffffff    ....    DCD    4294967295
        0x00004ff0:    ffffffff    ....    DCD    4294967295
        0x00004ff4:    ffffffff    ....    DCD    4294967295
        0x00004ff8:    ffffffff    ....    DCD    4294967295
        0x00004ffc:    ffffffff    ....    DCD    4294967295
        0x00005000:    ffffffff    ....    DCD    4294967295
        0x00005004:    ffffffff    ....    DCD    4294967295
        0x00005008:    00000000    ....    DCD    0
        0x0000500c:    ffffffff    ....    DCD    4294967295
        0x00005010:    ffffffff    ....    DCD    4294967295
        0x00005014:    00000000    ....    DCD    0
        0x00005018:    ffffffff    ....    DCD    4294967295
        0x0000501c:    ffffffff    ....    DCD    4294967295
        0x00005020:    00000000    ....    DCD    0
        0x00005024:    ffffffff    ....    DCD    4294967295
        0x00005028:    ffffffff    ....    DCD    4294967295
        0x0000502c:    00000000    ....    DCD    0
        0x00005030:    ffffffff    ....    DCD    4294967295
        0x00005034:    ffffffff    ....    DCD    4294967295
        0x00005038:    00000000    ....    DCD    0
        0x0000503c:    ffffffff    ....    DCD    4294967295
        0x00005040:    ffffffff    ....    DCD    4294967295
        0x00005044:    00000000    ....    DCD    0
        0x00005048:    ffffffff    ....    DCD    4294967295
        0x0000504c:    ffffffff    ....    DCD    4294967295
        0x00005050:    00000000    ....    DCD    0
        0x00005054:    ffffffff    ....    DCD    4294967295
        0x00005058:    ffffffff    ....    DCD    4294967295
        0x0000505c:    00000000    ....    DCD    0
        0x00005060:    ffffffff    ....    DCD    4294967295
        0x00005064:    ffffffff    ....    DCD    4294967295
        0x00005068:    00000000    ....    DCD    0
        0x0000506c:    00000000    ....    DCD    0
        0x00005070:    00000000    ....    DCD    0
        0x00005074:    00000000    ....    DCD    0
        0x00005078:    ffffffff    ....    DCD    4294967295
        0x0000507c:    ffffffff    ....    DCD    4294967295
        0x00005080:    00000000    ....    DCD    0
        0x00005084:    00000000    ....    DCD    0
        0x00005088:    00000000    ....    DCD    0
        0x0000508c:    00000000    ....    DCD    0
        0x00005090:    ffffffff    ....    DCD    4294967295
        0x00005094:    ffffffff    ....    DCD    4294967295
        0x00005098:    00000000    ....    DCD    0
        0x0000509c:    ffffffff    ....    DCD    4294967295
        0x000050a0:    ffffffff    ....    DCD    4294967295
        0x000050a4:    00000000    ....    DCD    0
        0x000050a8:    ffffffff    ....    DCD    4294967295
        0x000050ac:    ffffffff    ....    DCD    4294967295
        0x000050b0:    00000000    ....    DCD    0
        0x000050b4:    ffffffff    ....    DCD    4294967295
        0x000050b8:    ffffffff    ....    DCD    4294967295
        0x000050bc:    00000000    ....    DCD    0
        0x000050c0:    ffffffff    ....    DCD    4294967295
        0x000050c4:    ffffffff    ....    DCD    4294967295
        0x000050c8:    00000000    ....    DCD    0
        0x000050cc:    ffffffff    ....    DCD    4294967295
        0x000050d0:    ffffffff    ....    DCD    4294967295
        0x000050d4:    00000000    ....    DCD    0
        0x000050d8:    ffffffff    ....    DCD    4294967295
        0x000050dc:    ffffffff    ....    DCD    4294967295
        0x000050e0:    00000000    ....    DCD    0
        0x000050e4:    ffffffff    ....    DCD    4294967295
        0x000050e8:    ffffffff    ....    DCD    4294967295
        0x000050ec:    00000000    ....    DCD    0
        0x000050f0:    ffffffff    ....    DCD    4294967295
        0x000050f4:    ffffffff    ....    DCD    4294967295
        0x000050f8:    ffffffff    ....    DCD    4294967295
        0x000050fc:    ffffffff    ....    DCD    4294967295
        0x00005100:    ffffffff    ....    DCD    4294967295
        0x00005104:    ffffffff    ....    DCD    4294967295
        0x00005108:    ffffffff    ....    DCD    4294967295
    letter_I
        0x0000510c:    ffffffff    ....    DCD    4294967295
        0x00005110:    ffffffff    ....    DCD    4294967295
        0x00005114:    ffffffff    ....    DCD    4294967295
        0x00005118:    ffffffff    ....    DCD    4294967295
        0x0000511c:    ffffffff    ....    DCD    4294967295
        0x00005120:    ffffffff    ....    DCD    4294967295
        0x00005124:    ffffffff    ....    DCD    4294967295
        0x00005128:    0000ffff    ....    DCD    65535
        0x0000512c:    00000000    ....    DCD    0
        0x00005130:    00000000    ....    DCD    0
        0x00005134:    ffff0000    ....    DCD    4294901760
        0x00005138:    ffffffff    ....    DCD    4294967295
        0x0000513c:    ffffffff    ....    DCD    4294967295
        0x00005140:    0000ffff    ....    DCD    65535
        0x00005144:    00000000    ....    DCD    0
        0x00005148:    00000000    ....    DCD    0
        0x0000514c:    ffff0000    ....    DCD    4294901760
        0x00005150:    ffffffff    ....    DCD    4294967295
        0x00005154:    ffffffff    ....    DCD    4294967295
        0x00005158:    ffffffff    ....    DCD    4294967295
        0x0000515c:    0000ffff    ....    DCD    65535
        0x00005160:    ffff0000    ....    DCD    4294901760
        0x00005164:    ffffffff    ....    DCD    4294967295
        0x00005168:    ffffffff    ....    DCD    4294967295
        0x0000516c:    ffffffff    ....    DCD    4294967295
        0x00005170:    ffffffff    ....    DCD    4294967295
        0x00005174:    0000ffff    ....    DCD    65535
        0x00005178:    ffff0000    ....    DCD    4294901760
        0x0000517c:    ffffffff    ....    DCD    4294967295
        0x00005180:    ffffffff    ....    DCD    4294967295
        0x00005184:    ffffffff    ....    DCD    4294967295
        0x00005188:    ffffffff    ....    DCD    4294967295
        0x0000518c:    0000ffff    ....    DCD    65535
        0x00005190:    ffff0000    ....    DCD    4294901760
        0x00005194:    ffffffff    ....    DCD    4294967295
        0x00005198:    ffffffff    ....    DCD    4294967295
        0x0000519c:    ffffffff    ....    DCD    4294967295
        0x000051a0:    ffffffff    ....    DCD    4294967295
        0x000051a4:    0000ffff    ....    DCD    65535
        0x000051a8:    ffff0000    ....    DCD    4294901760
        0x000051ac:    ffffffff    ....    DCD    4294967295
        0x000051b0:    ffffffff    ....    DCD    4294967295
        0x000051b4:    ffffffff    ....    DCD    4294967295
        0x000051b8:    ffffffff    ....    DCD    4294967295
        0x000051bc:    0000ffff    ....    DCD    65535
        0x000051c0:    ffff0000    ....    DCD    4294901760
        0x000051c4:    ffffffff    ....    DCD    4294967295
        0x000051c8:    ffffffff    ....    DCD    4294967295
        0x000051cc:    ffffffff    ....    DCD    4294967295
        0x000051d0:    ffffffff    ....    DCD    4294967295
        0x000051d4:    0000ffff    ....    DCD    65535
        0x000051d8:    ffff0000    ....    DCD    4294901760
        0x000051dc:    ffffffff    ....    DCD    4294967295
        0x000051e0:    ffffffff    ....    DCD    4294967295
        0x000051e4:    ffffffff    ....    DCD    4294967295
        0x000051e8:    0000ffff    ....    DCD    65535
        0x000051ec:    00000000    ....    DCD    0
        0x000051f0:    00000000    ....    DCD    0
        0x000051f4:    ffff0000    ....    DCD    4294901760
        0x000051f8:    ffffffff    ....    DCD    4294967295
        0x000051fc:    ffffffff    ....    DCD    4294967295
        0x00005200:    0000ffff    ....    DCD    65535
        0x00005204:    00000000    ....    DCD    0
        0x00005208:    00000000    ....    DCD    0
        0x0000520c:    ffff0000    ....    DCD    4294901760
        0x00005210:    ffffffff    ....    DCD    4294967295
        0x00005214:    ffffffff    ....    DCD    4294967295
        0x00005218:    ffffffff    ....    DCD    4294967295
        0x0000521c:    ffffffff    ....    DCD    4294967295
        0x00005220:    ffffffff    ....    DCD    4294967295
        0x00005224:    ffffffff    ....    DCD    4294967295
        0x00005228:    ffffffff    ....    DCD    4294967295
    letter_J
        0x0000522c:    ffffffff    ....    DCD    4294967295
        0x00005230:    ffffffff    ....    DCD    4294967295
        0x00005234:    ffffffff    ....    DCD    4294967295
        0x00005238:    ffffffff    ....    DCD    4294967295
        0x0000523c:    ffffffff    ....    DCD    4294967295
        0x00005240:    ffffffff    ....    DCD    4294967295
        0x00005244:    ffffffff    ....    DCD    4294967295
        0x00005248:    ffffffff    ....    DCD    4294967295
        0x0000524c:    ffffffff    ....    DCD    4294967295
        0x00005250:    00000000    ....    DCD    0
        0x00005254:    00000000    ....    DCD    0
        0x00005258:    ffffffff    ....    DCD    4294967295
        0x0000525c:    ffffffff    ....    DCD    4294967295
        0x00005260:    ffffffff    ....    DCD    4294967295
        0x00005264:    ffffffff    ....    DCD    4294967295
        0x00005268:    00000000    ....    DCD    0
        0x0000526c:    00000000    ....    DCD    0
        0x00005270:    ffffffff    ....    DCD    4294967295
        0x00005274:    ffffffff    ....    DCD    4294967295
        0x00005278:    ffffffff    ....    DCD    4294967295
        0x0000527c:    ffffffff    ....    DCD    4294967295
        0x00005280:    ffffffff    ....    DCD    4294967295
        0x00005284:    00000000    ....    DCD    0
        0x00005288:    ffffffff    ....    DCD    4294967295
        0x0000528c:    ffffffff    ....    DCD    4294967295
        0x00005290:    ffffffff    ....    DCD    4294967295
        0x00005294:    ffffffff    ....    DCD    4294967295
        0x00005298:    ffffffff    ....    DCD    4294967295
        0x0000529c:    00000000    ....    DCD    0
        0x000052a0:    ffffffff    ....    DCD    4294967295
        0x000052a4:    ffffffff    ....    DCD    4294967295
        0x000052a8:    ffffffff    ....    DCD    4294967295
        0x000052ac:    ffffffff    ....    DCD    4294967295
        0x000052b0:    ffffffff    ....    DCD    4294967295
        0x000052b4:    00000000    ....    DCD    0
        0x000052b8:    ffffffff    ....    DCD    4294967295
        0x000052bc:    ffffffff    ....    DCD    4294967295
        0x000052c0:    ffffffff    ....    DCD    4294967295
        0x000052c4:    ffffffff    ....    DCD    4294967295
        0x000052c8:    ffffffff    ....    DCD    4294967295
        0x000052cc:    00000000    ....    DCD    0
        0x000052d0:    ffffffff    ....    DCD    4294967295
        0x000052d4:    ffffffff    ....    DCD    4294967295
        0x000052d8:    00000000    ....    DCD    0
        0x000052dc:    ffffffff    ....    DCD    4294967295
        0x000052e0:    ffffffff    ....    DCD    4294967295
        0x000052e4:    00000000    ....    DCD    0
        0x000052e8:    ffffffff    ....    DCD    4294967295
        0x000052ec:    ffffffff    ....    DCD    4294967295
        0x000052f0:    00000000    ....    DCD    0
        0x000052f4:    ffffffff    ....    DCD    4294967295
        0x000052f8:    ffffffff    ....    DCD    4294967295
        0x000052fc:    00000000    ....    DCD    0
        0x00005300:    ffffffff    ....    DCD    4294967295
        0x00005304:    ffffffff    ....    DCD    4294967295
        0x00005308:    ffffffff    ....    DCD    4294967295
        0x0000530c:    00000000    ....    DCD    0
        0x00005310:    00000000    ....    DCD    0
        0x00005314:    ffffffff    ....    DCD    4294967295
        0x00005318:    ffffffff    ....    DCD    4294967295
        0x0000531c:    ffffffff    ....    DCD    4294967295
        0x00005320:    ffffffff    ....    DCD    4294967295
        0x00005324:    00000000    ....    DCD    0
        0x00005328:    00000000    ....    DCD    0
        0x0000532c:    ffffffff    ....    DCD    4294967295
        0x00005330:    ffffffff    ....    DCD    4294967295
        0x00005334:    ffffffff    ....    DCD    4294967295
        0x00005338:    ffffffff    ....    DCD    4294967295
        0x0000533c:    ffffffff    ....    DCD    4294967295
        0x00005340:    ffffffff    ....    DCD    4294967295
        0x00005344:    ffffffff    ....    DCD    4294967295
        0x00005348:    ffffffff    ....    DCD    4294967295
    letter_K
        0x0000534c:    ffffffff    ....    DCD    4294967295
        0x00005350:    ffffffff    ....    DCD    4294967295
        0x00005354:    ffffffff    ....    DCD    4294967295
        0x00005358:    ffffffff    ....    DCD    4294967295
        0x0000535c:    ffffffff    ....    DCD    4294967295
        0x00005360:    ffffffff    ....    DCD    4294967295
        0x00005364:    ffffffff    ....    DCD    4294967295
        0x00005368:    00000000    ....    DCD    0
        0x0000536c:    ffffffff    ....    DCD    4294967295
        0x00005370:    ffffffff    ....    DCD    4294967295
        0x00005374:    00000000    ....    DCD    0
        0x00005378:    ffffffff    ....    DCD    4294967295
        0x0000537c:    ffffffff    ....    DCD    4294967295
        0x00005380:    00000000    ....    DCD    0
        0x00005384:    ffffffff    ....    DCD    4294967295
        0x00005388:    ffffffff    ....    DCD    4294967295
        0x0000538c:    00000000    ....    DCD    0
        0x00005390:    ffffffff    ....    DCD    4294967295
        0x00005394:    ffffffff    ....    DCD    4294967295
        0x00005398:    00000000    ....    DCD    0
        0x0000539c:    ffffffff    ....    DCD    4294967295
        0x000053a0:    00000000    ....    DCD    0
        0x000053a4:    ffffffff    ....    DCD    4294967295
        0x000053a8:    ffffffff    ....    DCD    4294967295
        0x000053ac:    ffffffff    ....    DCD    4294967295
        0x000053b0:    00000000    ....    DCD    0
        0x000053b4:    ffffffff    ....    DCD    4294967295
        0x000053b8:    00000000    ....    DCD    0
        0x000053bc:    ffffffff    ....    DCD    4294967295
        0x000053c0:    ffffffff    ....    DCD    4294967295
        0x000053c4:    ffffffff    ....    DCD    4294967295
        0x000053c8:    00000000    ....    DCD    0
        0x000053cc:    00000000    ....    DCD    0
        0x000053d0:    ffffffff    ....    DCD    4294967295
        0x000053d4:    ffffffff    ....    DCD    4294967295
        0x000053d8:    ffffffff    ....    DCD    4294967295
        0x000053dc:    ffffffff    ....    DCD    4294967295
        0x000053e0:    00000000    ....    DCD    0
        0x000053e4:    00000000    ....    DCD    0
        0x000053e8:    ffffffff    ....    DCD    4294967295
        0x000053ec:    ffffffff    ....    DCD    4294967295
        0x000053f0:    ffffffff    ....    DCD    4294967295
        0x000053f4:    ffffffff    ....    DCD    4294967295
        0x000053f8:    00000000    ....    DCD    0
        0x000053fc:    ffffffff    ....    DCD    4294967295
        0x00005400:    00000000    ....    DCD    0
        0x00005404:    ffffffff    ....    DCD    4294967295
        0x00005408:    ffffffff    ....    DCD    4294967295
        0x0000540c:    ffffffff    ....    DCD    4294967295
        0x00005410:    00000000    ....    DCD    0
        0x00005414:    ffffffff    ....    DCD    4294967295
        0x00005418:    00000000    ....    DCD    0
        0x0000541c:    ffffffff    ....    DCD    4294967295
        0x00005420:    ffffffff    ....    DCD    4294967295
        0x00005424:    ffffffff    ....    DCD    4294967295
        0x00005428:    00000000    ....    DCD    0
        0x0000542c:    ffffffff    ....    DCD    4294967295
        0x00005430:    ffffffff    ....    DCD    4294967295
        0x00005434:    00000000    ....    DCD    0
        0x00005438:    ffffffff    ....    DCD    4294967295
        0x0000543c:    ffffffff    ....    DCD    4294967295
        0x00005440:    00000000    ....    DCD    0
        0x00005444:    ffffffff    ....    DCD    4294967295
        0x00005448:    ffffffff    ....    DCD    4294967295
        0x0000544c:    00000000    ....    DCD    0
        0x00005450:    ffffffff    ....    DCD    4294967295
        0x00005454:    ffffffff    ....    DCD    4294967295
        0x00005458:    ffffffff    ....    DCD    4294967295
        0x0000545c:    ffffffff    ....    DCD    4294967295
        0x00005460:    ffffffff    ....    DCD    4294967295
        0x00005464:    ffffffff    ....    DCD    4294967295
        0x00005468:    ffffffff    ....    DCD    4294967295
    letter_L
        0x0000546c:    ffffffff    ....    DCD    4294967295
        0x00005470:    ffffffff    ....    DCD    4294967295
        0x00005474:    ffffffff    ....    DCD    4294967295
        0x00005478:    ffffffff    ....    DCD    4294967295
        0x0000547c:    ffffffff    ....    DCD    4294967295
        0x00005480:    ffffffff    ....    DCD    4294967295
        0x00005484:    ffffffff    ....    DCD    4294967295
        0x00005488:    00000000    ....    DCD    0
        0x0000548c:    ffffffff    ....    DCD    4294967295
        0x00005490:    ffffffff    ....    DCD    4294967295
        0x00005494:    ffffffff    ....    DCD    4294967295
        0x00005498:    ffffffff    ....    DCD    4294967295
        0x0000549c:    ffffffff    ....    DCD    4294967295
        0x000054a0:    00000000    ....    DCD    0
        0x000054a4:    ffffffff    ....    DCD    4294967295
        0x000054a8:    ffffffff    ....    DCD    4294967295
        0x000054ac:    ffffffff    ....    DCD    4294967295
        0x000054b0:    ffffffff    ....    DCD    4294967295
        0x000054b4:    ffffffff    ....    DCD    4294967295
        0x000054b8:    00000000    ....    DCD    0
        0x000054bc:    ffffffff    ....    DCD    4294967295
        0x000054c0:    ffffffff    ....    DCD    4294967295
        0x000054c4:    ffffffff    ....    DCD    4294967295
        0x000054c8:    ffffffff    ....    DCD    4294967295
        0x000054cc:    ffffffff    ....    DCD    4294967295
        0x000054d0:    00000000    ....    DCD    0
        0x000054d4:    ffffffff    ....    DCD    4294967295
        0x000054d8:    ffffffff    ....    DCD    4294967295
        0x000054dc:    ffffffff    ....    DCD    4294967295
        0x000054e0:    ffffffff    ....    DCD    4294967295
        0x000054e4:    ffffffff    ....    DCD    4294967295
        0x000054e8:    00000000    ....    DCD    0
        0x000054ec:    ffffffff    ....    DCD    4294967295
        0x000054f0:    ffffffff    ....    DCD    4294967295
        0x000054f4:    ffffffff    ....    DCD    4294967295
        0x000054f8:    ffffffff    ....    DCD    4294967295
        0x000054fc:    ffffffff    ....    DCD    4294967295
        0x00005500:    00000000    ....    DCD    0
        0x00005504:    ffffffff    ....    DCD    4294967295
        0x00005508:    ffffffff    ....    DCD    4294967295
        0x0000550c:    ffffffff    ....    DCD    4294967295
        0x00005510:    ffffffff    ....    DCD    4294967295
        0x00005514:    ffffffff    ....    DCD    4294967295
        0x00005518:    00000000    ....    DCD    0
        0x0000551c:    ffffffff    ....    DCD    4294967295
        0x00005520:    ffffffff    ....    DCD    4294967295
        0x00005524:    ffffffff    ....    DCD    4294967295
        0x00005528:    ffffffff    ....    DCD    4294967295
        0x0000552c:    ffffffff    ....    DCD    4294967295
        0x00005530:    00000000    ....    DCD    0
        0x00005534:    ffffffff    ....    DCD    4294967295
        0x00005538:    ffffffff    ....    DCD    4294967295
        0x0000553c:    ffffffff    ....    DCD    4294967295
        0x00005540:    ffffffff    ....    DCD    4294967295
        0x00005544:    ffffffff    ....    DCD    4294967295
        0x00005548:    00000000    ....    DCD    0
        0x0000554c:    00000000    ....    DCD    0
        0x00005550:    00000000    ....    DCD    0
        0x00005554:    00000000    ....    DCD    0
        0x00005558:    ffffffff    ....    DCD    4294967295
        0x0000555c:    ffffffff    ....    DCD    4294967295
        0x00005560:    00000000    ....    DCD    0
        0x00005564:    00000000    ....    DCD    0
        0x00005568:    00000000    ....    DCD    0
        0x0000556c:    00000000    ....    DCD    0
        0x00005570:    ffffffff    ....    DCD    4294967295
        0x00005574:    ffffffff    ....    DCD    4294967295
        0x00005578:    ffffffff    ....    DCD    4294967295
        0x0000557c:    ffffffff    ....    DCD    4294967295
        0x00005580:    ffffffff    ....    DCD    4294967295
        0x00005584:    ffffffff    ....    DCD    4294967295
        0x00005588:    ffffffff    ....    DCD    4294967295
    letter_M
        0x0000558c:    ffffffff    ....    DCD    4294967295
        0x00005590:    ffffffff    ....    DCD    4294967295
        0x00005594:    ffffffff    ....    DCD    4294967295
        0x00005598:    ffffffff    ....    DCD    4294967295
        0x0000559c:    ffffffff    ....    DCD    4294967295
        0x000055a0:    ffffffff    ....    DCD    4294967295
        0x000055a4:    0000ffff    ....    DCD    65535
        0x000055a8:    ffff0000    ....    DCD    4294901760
        0x000055ac:    ffffffff    ....    DCD    4294967295
        0x000055b0:    ffffffff    ....    DCD    4294967295
        0x000055b4:    0000ffff    ....    DCD    65535
        0x000055b8:    ffff0000    ....    DCD    4294901760
        0x000055bc:    0000ffff    ....    DCD    65535
        0x000055c0:    ffff0000    ....    DCD    4294901760
        0x000055c4:    ffffffff    ....    DCD    4294967295
        0x000055c8:    ffffffff    ....    DCD    4294967295
        0x000055cc:    0000ffff    ....    DCD    65535
        0x000055d0:    ffff0000    ....    DCD    4294901760
        0x000055d4:    0000ffff    ....    DCD    65535
        0x000055d8:    00000000    ....    DCD    0
        0x000055dc:    ffff0000    ....    DCD    4294901760
        0x000055e0:    0000ffff    ....    DCD    65535
        0x000055e4:    00000000    ....    DCD    0
        0x000055e8:    ffff0000    ....    DCD    4294901760
        0x000055ec:    0000ffff    ....    DCD    65535
        0x000055f0:    00000000    ....    DCD    0
        0x000055f4:    ffff0000    ....    DCD    4294901760
        0x000055f8:    0000ffff    ....    DCD    65535
        0x000055fc:    00000000    ....    DCD    0
        0x00005600:    ffff0000    ....    DCD    4294901760
        0x00005604:    0000ffff    ....    DCD    65535
        0x00005608:    ffff0000    ....    DCD    4294901760
        0x0000560c:    0000ffff    ....    DCD    65535
        0x00005610:    ffff0000    ....    DCD    4294901760
        0x00005614:    0000ffff    ....    DCD    65535
        0x00005618:    ffff0000    ....    DCD    4294901760
        0x0000561c:    0000ffff    ....    DCD    65535
        0x00005620:    ffff0000    ....    DCD    4294901760
        0x00005624:    0000ffff    ....    DCD    65535
        0x00005628:    ffff0000    ....    DCD    4294901760
        0x0000562c:    0000ffff    ....    DCD    65535
        0x00005630:    ffff0000    ....    DCD    4294901760
        0x00005634:    0000ffff    ....    DCD    65535
        0x00005638:    ffff0000    ....    DCD    4294901760
        0x0000563c:    ffffffff    ....    DCD    4294967295
        0x00005640:    ffffffff    ....    DCD    4294967295
        0x00005644:    0000ffff    ....    DCD    65535
        0x00005648:    ffff0000    ....    DCD    4294901760
        0x0000564c:    0000ffff    ....    DCD    65535
        0x00005650:    ffff0000    ....    DCD    4294901760
        0x00005654:    ffffffff    ....    DCD    4294967295
        0x00005658:    ffffffff    ....    DCD    4294967295
        0x0000565c:    0000ffff    ....    DCD    65535
        0x00005660:    ffff0000    ....    DCD    4294901760
        0x00005664:    0000ffff    ....    DCD    65535
        0x00005668:    ffff0000    ....    DCD    4294901760
        0x0000566c:    ffffffff    ....    DCD    4294967295
        0x00005670:    ffffffff    ....    DCD    4294967295
        0x00005674:    0000ffff    ....    DCD    65535
        0x00005678:    ffff0000    ....    DCD    4294901760
        0x0000567c:    0000ffff    ....    DCD    65535
        0x00005680:    ffff0000    ....    DCD    4294901760
        0x00005684:    ffffffff    ....    DCD    4294967295
        0x00005688:    ffffffff    ....    DCD    4294967295
        0x0000568c:    0000ffff    ....    DCD    65535
        0x00005690:    ffff0000    ....    DCD    4294901760
        0x00005694:    ffffffff    ....    DCD    4294967295
        0x00005698:    ffffffff    ....    DCD    4294967295
        0x0000569c:    ffffffff    ....    DCD    4294967295
        0x000056a0:    ffffffff    ....    DCD    4294967295
        0x000056a4:    ffffffff    ....    DCD    4294967295
        0x000056a8:    ffffffff    ....    DCD    4294967295
    letter_N
        0x000056ac:    ffffffff    ....    DCD    4294967295
        0x000056b0:    ffffffff    ....    DCD    4294967295
        0x000056b4:    ffffffff    ....    DCD    4294967295
        0x000056b8:    ffffffff    ....    DCD    4294967295
        0x000056bc:    ffffffff    ....    DCD    4294967295
        0x000056c0:    ffffffff    ....    DCD    4294967295
        0x000056c4:    ffffffff    ....    DCD    4294967295
        0x000056c8:    00000000    ....    DCD    0
        0x000056cc:    ffffffff    ....    DCD    4294967295
        0x000056d0:    ffffffff    ....    DCD    4294967295
        0x000056d4:    00000000    ....    DCD    0
        0x000056d8:    ffffffff    ....    DCD    4294967295
        0x000056dc:    ffffffff    ....    DCD    4294967295
        0x000056e0:    00000000    ....    DCD    0
        0x000056e4:    ffffffff    ....    DCD    4294967295
        0x000056e8:    ffffffff    ....    DCD    4294967295
        0x000056ec:    00000000    ....    DCD    0
        0x000056f0:    ffffffff    ....    DCD    4294967295
        0x000056f4:    ffffffff    ....    DCD    4294967295
        0x000056f8:    00000000    ....    DCD    0
        0x000056fc:    ffffffff    ....    DCD    4294967295
        0x00005700:    ffffffff    ....    DCD    4294967295
        0x00005704:    00000000    ....    DCD    0
        0x00005708:    ffffffff    ....    DCD    4294967295
        0x0000570c:    ffffffff    ....    DCD    4294967295
        0x00005710:    00000000    ....    DCD    0
        0x00005714:    00000000    ....    DCD    0
        0x00005718:    ffffffff    ....    DCD    4294967295
        0x0000571c:    00000000    ....    DCD    0
        0x00005720:    ffffffff    ....    DCD    4294967295
        0x00005724:    ffffffff    ....    DCD    4294967295
        0x00005728:    00000000    ....    DCD    0
        0x0000572c:    00000000    ....    DCD    0
        0x00005730:    ffffffff    ....    DCD    4294967295
        0x00005734:    00000000    ....    DCD    0
        0x00005738:    ffffffff    ....    DCD    4294967295
        0x0000573c:    ffffffff    ....    DCD    4294967295
        0x00005740:    00000000    ....    DCD    0
        0x00005744:    ffffffff    ....    DCD    4294967295
        0x00005748:    00000000    ....    DCD    0
        0x0000574c:    00000000    ....    DCD    0
        0x00005750:    ffffffff    ....    DCD    4294967295
        0x00005754:    ffffffff    ....    DCD    4294967295
        0x00005758:    00000000    ....    DCD    0
        0x0000575c:    ffffffff    ....    DCD    4294967295
        0x00005760:    00000000    ....    DCD    0
        0x00005764:    00000000    ....    DCD    0
        0x00005768:    ffffffff    ....    DCD    4294967295
        0x0000576c:    ffffffff    ....    DCD    4294967295
        0x00005770:    00000000    ....    DCD    0
        0x00005774:    ffffffff    ....    DCD    4294967295
        0x00005778:    ffffffff    ....    DCD    4294967295
        0x0000577c:    00000000    ....    DCD    0
        0x00005780:    ffffffff    ....    DCD    4294967295
        0x00005784:    ffffffff    ....    DCD    4294967295
        0x00005788:    00000000    ....    DCD    0
        0x0000578c:    ffffffff    ....    DCD    4294967295
        0x00005790:    ffffffff    ....    DCD    4294967295
        0x00005794:    00000000    ....    DCD    0
        0x00005798:    ffffffff    ....    DCD    4294967295
        0x0000579c:    ffffffff    ....    DCD    4294967295
        0x000057a0:    00000000    ....    DCD    0
        0x000057a4:    ffffffff    ....    DCD    4294967295
        0x000057a8:    ffffffff    ....    DCD    4294967295
        0x000057ac:    00000000    ....    DCD    0
        0x000057b0:    ffffffff    ....    DCD    4294967295
        0x000057b4:    ffffffff    ....    DCD    4294967295
        0x000057b8:    ffffffff    ....    DCD    4294967295
        0x000057bc:    ffffffff    ....    DCD    4294967295
        0x000057c0:    ffffffff    ....    DCD    4294967295
        0x000057c4:    ffffffff    ....    DCD    4294967295
        0x000057c8:    ffffffff    ....    DCD    4294967295
    letter_O
        0x000057cc:    ffffffff    ....    DCD    4294967295
        0x000057d0:    ffffffff    ....    DCD    4294967295
        0x000057d4:    ffffffff    ....    DCD    4294967295
        0x000057d8:    ffffffff    ....    DCD    4294967295
        0x000057dc:    ffffffff    ....    DCD    4294967295
        0x000057e0:    ffffffff    ....    DCD    4294967295
        0x000057e4:    ffffffff    ....    DCD    4294967295
        0x000057e8:    ffffffff    ....    DCD    4294967295
        0x000057ec:    00000000    ....    DCD    0
        0x000057f0:    00000000    ....    DCD    0
        0x000057f4:    ffffffff    ....    DCD    4294967295
        0x000057f8:    ffffffff    ....    DCD    4294967295
        0x000057fc:    ffffffff    ....    DCD    4294967295
        0x00005800:    ffffffff    ....    DCD    4294967295
        0x00005804:    00000000    ....    DCD    0
        0x00005808:    00000000    ....    DCD    0
        0x0000580c:    ffffffff    ....    DCD    4294967295
        0x00005810:    ffffffff    ....    DCD    4294967295
        0x00005814:    ffffffff    ....    DCD    4294967295
        0x00005818:    00000000    ....    DCD    0
        0x0000581c:    ffffffff    ....    DCD    4294967295
        0x00005820:    ffffffff    ....    DCD    4294967295
        0x00005824:    00000000    ....    DCD    0
        0x00005828:    ffffffff    ....    DCD    4294967295
        0x0000582c:    ffffffff    ....    DCD    4294967295
        0x00005830:    00000000    ....    DCD    0
        0x00005834:    ffffffff    ....    DCD    4294967295
        0x00005838:    ffffffff    ....    DCD    4294967295
        0x0000583c:    00000000    ....    DCD    0
        0x00005840:    ffffffff    ....    DCD    4294967295
        0x00005844:    ffffffff    ....    DCD    4294967295
        0x00005848:    00000000    ....    DCD    0
        0x0000584c:    ffffffff    ....    DCD    4294967295
        0x00005850:    ffffffff    ....    DCD    4294967295
        0x00005854:    00000000    ....    DCD    0
        0x00005858:    ffffffff    ....    DCD    4294967295
        0x0000585c:    ffffffff    ....    DCD    4294967295
        0x00005860:    00000000    ....    DCD    0
        0x00005864:    ffffffff    ....    DCD    4294967295
        0x00005868:    ffffffff    ....    DCD    4294967295
        0x0000586c:    00000000    ....    DCD    0
        0x00005870:    ffffffff    ....    DCD    4294967295
        0x00005874:    ffffffff    ....    DCD    4294967295
        0x00005878:    00000000    ....    DCD    0
        0x0000587c:    ffffffff    ....    DCD    4294967295
        0x00005880:    ffffffff    ....    DCD    4294967295
        0x00005884:    00000000    ....    DCD    0
        0x00005888:    ffffffff    ....    DCD    4294967295
        0x0000588c:    ffffffff    ....    DCD    4294967295
        0x00005890:    00000000    ....    DCD    0
        0x00005894:    ffffffff    ....    DCD    4294967295
        0x00005898:    ffffffff    ....    DCD    4294967295
        0x0000589c:    00000000    ....    DCD    0
        0x000058a0:    ffffffff    ....    DCD    4294967295
        0x000058a4:    ffffffff    ....    DCD    4294967295
        0x000058a8:    ffffffff    ....    DCD    4294967295
        0x000058ac:    00000000    ....    DCD    0
        0x000058b0:    00000000    ....    DCD    0
        0x000058b4:    ffffffff    ....    DCD    4294967295
        0x000058b8:    ffffffff    ....    DCD    4294967295
        0x000058bc:    ffffffff    ....    DCD    4294967295
        0x000058c0:    ffffffff    ....    DCD    4294967295
        0x000058c4:    00000000    ....    DCD    0
        0x000058c8:    00000000    ....    DCD    0
        0x000058cc:    ffffffff    ....    DCD    4294967295
        0x000058d0:    ffffffff    ....    DCD    4294967295
        0x000058d4:    ffffffff    ....    DCD    4294967295
        0x000058d8:    ffffffff    ....    DCD    4294967295
        0x000058dc:    ffffffff    ....    DCD    4294967295
        0x000058e0:    ffffffff    ....    DCD    4294967295
        0x000058e4:    ffffffff    ....    DCD    4294967295
        0x000058e8:    ffffffff    ....    DCD    4294967295
    letter_P
        0x000058ec:    ffffffff    ....    DCD    4294967295
        0x000058f0:    ffffffff    ....    DCD    4294967295
        0x000058f4:    ffffffff    ....    DCD    4294967295
        0x000058f8:    ffffffff    ....    DCD    4294967295
        0x000058fc:    ffffffff    ....    DCD    4294967295
        0x00005900:    ffffffff    ....    DCD    4294967295
        0x00005904:    ffffffff    ....    DCD    4294967295
        0x00005908:    00000000    ....    DCD    0
        0x0000590c:    00000000    ....    DCD    0
        0x00005910:    00000000    ....    DCD    0
        0x00005914:    ffffffff    ....    DCD    4294967295
        0x00005918:    ffffffff    ....    DCD    4294967295
        0x0000591c:    ffffffff    ....    DCD    4294967295
        0x00005920:    00000000    ....    DCD    0
        0x00005924:    00000000    ....    DCD    0
        0x00005928:    00000000    ....    DCD    0
        0x0000592c:    ffffffff    ....    DCD    4294967295
        0x00005930:    ffffffff    ....    DCD    4294967295
        0x00005934:    ffffffff    ....    DCD    4294967295
        0x00005938:    00000000    ....    DCD    0
        0x0000593c:    ffffffff    ....    DCD    4294967295
        0x00005940:    ffffffff    ....    DCD    4294967295
        0x00005944:    00000000    ....    DCD    0
        0x00005948:    ffffffff    ....    DCD    4294967295
        0x0000594c:    ffffffff    ....    DCD    4294967295
        0x00005950:    00000000    ....    DCD    0
        0x00005954:    ffffffff    ....    DCD    4294967295
        0x00005958:    ffffffff    ....    DCD    4294967295
        0x0000595c:    00000000    ....    DCD    0
        0x00005960:    ffffffff    ....    DCD    4294967295
        0x00005964:    ffffffff    ....    DCD    4294967295
        0x00005968:    00000000    ....    DCD    0
        0x0000596c:    00000000    ....    DCD    0
        0x00005970:    00000000    ....    DCD    0
        0x00005974:    ffffffff    ....    DCD    4294967295
        0x00005978:    ffffffff    ....    DCD    4294967295
        0x0000597c:    ffffffff    ....    DCD    4294967295
        0x00005980:    00000000    ....    DCD    0
        0x00005984:    00000000    ....    DCD    0
        0x00005988:    00000000    ....    DCD    0
        0x0000598c:    ffffffff    ....    DCD    4294967295
        0x00005990:    ffffffff    ....    DCD    4294967295
        0x00005994:    ffffffff    ....    DCD    4294967295
        0x00005998:    00000000    ....    DCD    0
        0x0000599c:    ffffffff    ....    DCD    4294967295
        0x000059a0:    ffffffff    ....    DCD    4294967295
        0x000059a4:    ffffffff    ....    DCD    4294967295
        0x000059a8:    ffffffff    ....    DCD    4294967295
        0x000059ac:    ffffffff    ....    DCD    4294967295
        0x000059b0:    00000000    ....    DCD    0
        0x000059b4:    ffffffff    ....    DCD    4294967295
        0x000059b8:    ffffffff    ....    DCD    4294967295
        0x000059bc:    ffffffff    ....    DCD    4294967295
        0x000059c0:    ffffffff    ....    DCD    4294967295
        0x000059c4:    ffffffff    ....    DCD    4294967295
        0x000059c8:    00000000    ....    DCD    0
        0x000059cc:    ffffffff    ....    DCD    4294967295
        0x000059d0:    ffffffff    ....    DCD    4294967295
        0x000059d4:    ffffffff    ....    DCD    4294967295
        0x000059d8:    ffffffff    ....    DCD    4294967295
        0x000059dc:    ffffffff    ....    DCD    4294967295
        0x000059e0:    00000000    ....    DCD    0
        0x000059e4:    ffffffff    ....    DCD    4294967295
        0x000059e8:    ffffffff    ....    DCD    4294967295
        0x000059ec:    ffffffff    ....    DCD    4294967295
        0x000059f0:    ffffffff    ....    DCD    4294967295
        0x000059f4:    ffffffff    ....    DCD    4294967295
        0x000059f8:    ffffffff    ....    DCD    4294967295
        0x000059fc:    ffffffff    ....    DCD    4294967295
        0x00005a00:    ffffffff    ....    DCD    4294967295
        0x00005a04:    ffffffff    ....    DCD    4294967295
        0x00005a08:    ffffffff    ....    DCD    4294967295
    letter_Q
        0x00005a0c:    ffffffff    ....    DCD    4294967295
        0x00005a10:    ffffffff    ....    DCD    4294967295
        0x00005a14:    ffffffff    ....    DCD    4294967295
        0x00005a18:    ffffffff    ....    DCD    4294967295
        0x00005a1c:    ffffffff    ....    DCD    4294967295
        0x00005a20:    ffffffff    ....    DCD    4294967295
        0x00005a24:    ffffffff    ....    DCD    4294967295
        0x00005a28:    ffffffff    ....    DCD    4294967295
        0x00005a2c:    00000000    ....    DCD    0
        0x00005a30:    00000000    ....    DCD    0
        0x00005a34:    ffffffff    ....    DCD    4294967295
        0x00005a38:    ffffffff    ....    DCD    4294967295
        0x00005a3c:    ffffffff    ....    DCD    4294967295
        0x00005a40:    ffffffff    ....    DCD    4294967295
        0x00005a44:    00000000    ....    DCD    0
        0x00005a48:    00000000    ....    DCD    0
        0x00005a4c:    ffffffff    ....    DCD    4294967295
        0x00005a50:    ffffffff    ....    DCD    4294967295
        0x00005a54:    ffffffff    ....    DCD    4294967295
        0x00005a58:    00000000    ....    DCD    0
        0x00005a5c:    ffffffff    ....    DCD    4294967295
        0x00005a60:    ffffffff    ....    DCD    4294967295
        0x00005a64:    00000000    ....    DCD    0
        0x00005a68:    ffffffff    ....    DCD    4294967295
        0x00005a6c:    ffffffff    ....    DCD    4294967295
        0x00005a70:    00000000    ....    DCD    0
        0x00005a74:    ffffffff    ....    DCD    4294967295
        0x00005a78:    ffffffff    ....    DCD    4294967295
        0x00005a7c:    00000000    ....    DCD    0
        0x00005a80:    ffffffff    ....    DCD    4294967295
        0x00005a84:    ffffffff    ....    DCD    4294967295
        0x00005a88:    00000000    ....    DCD    0
        0x00005a8c:    ffffffff    ....    DCD    4294967295
        0x00005a90:    ffffffff    ....    DCD    4294967295
        0x00005a94:    00000000    ....    DCD    0
        0x00005a98:    ffffffff    ....    DCD    4294967295
        0x00005a9c:    ffffffff    ....    DCD    4294967295
        0x00005aa0:    00000000    ....    DCD    0
        0x00005aa4:    ffffffff    ....    DCD    4294967295
        0x00005aa8:    ffffffff    ....    DCD    4294967295
        0x00005aac:    00000000    ....    DCD    0
        0x00005ab0:    ffffffff    ....    DCD    4294967295
        0x00005ab4:    ffffffff    ....    DCD    4294967295
        0x00005ab8:    00000000    ....    DCD    0
        0x00005abc:    ffffffff    ....    DCD    4294967295
        0x00005ac0:    ffffffff    ....    DCD    4294967295
        0x00005ac4:    00000000    ....    DCD    0
        0x00005ac8:    ffffffff    ....    DCD    4294967295
        0x00005acc:    ffffffff    ....    DCD    4294967295
        0x00005ad0:    00000000    ....    DCD    0
        0x00005ad4:    ffffffff    ....    DCD    4294967295
        0x00005ad8:    ffffffff    ....    DCD    4294967295
        0x00005adc:    00000000    ....    DCD    0
        0x00005ae0:    ffffffff    ....    DCD    4294967295
        0x00005ae4:    ffffffff    ....    DCD    4294967295
        0x00005ae8:    ffffffff    ....    DCD    4294967295
        0x00005aec:    00000000    ....    DCD    0
        0x00005af0:    00000000    ....    DCD    0
        0x00005af4:    00000000    ....    DCD    0
        0x00005af8:    00000000    ....    DCD    0
        0x00005afc:    ffffffff    ....    DCD    4294967295
        0x00005b00:    ffffffff    ....    DCD    4294967295
        0x00005b04:    00000000    ....    DCD    0
        0x00005b08:    00000000    ....    DCD    0
        0x00005b0c:    00000000    ....    DCD    0
        0x00005b10:    00000000    ....    DCD    0
        0x00005b14:    ffffffff    ....    DCD    4294967295
        0x00005b18:    ffffffff    ....    DCD    4294967295
        0x00005b1c:    ffffffff    ....    DCD    4294967295
        0x00005b20:    ffffffff    ....    DCD    4294967295
        0x00005b24:    ffffffff    ....    DCD    4294967295
        0x00005b28:    ffffffff    ....    DCD    4294967295
    letter_R
        0x00005b2c:    ffffffff    ....    DCD    4294967295
        0x00005b30:    ffffffff    ....    DCD    4294967295
        0x00005b34:    ffffffff    ....    DCD    4294967295
        0x00005b38:    ffffffff    ....    DCD    4294967295
        0x00005b3c:    ffffffff    ....    DCD    4294967295
        0x00005b40:    ffffffff    ....    DCD    4294967295
        0x00005b44:    ffffffff    ....    DCD    4294967295
        0x00005b48:    00000000    ....    DCD    0
        0x00005b4c:    00000000    ....    DCD    0
        0x00005b50:    00000000    ....    DCD    0
        0x00005b54:    ffffffff    ....    DCD    4294967295
        0x00005b58:    ffffffff    ....    DCD    4294967295
        0x00005b5c:    ffffffff    ....    DCD    4294967295
        0x00005b60:    00000000    ....    DCD    0
        0x00005b64:    00000000    ....    DCD    0
        0x00005b68:    00000000    ....    DCD    0
        0x00005b6c:    ffffffff    ....    DCD    4294967295
        0x00005b70:    ffffffff    ....    DCD    4294967295
        0x00005b74:    ffffffff    ....    DCD    4294967295
        0x00005b78:    00000000    ....    DCD    0
        0x00005b7c:    ffffffff    ....    DCD    4294967295
        0x00005b80:    ffffffff    ....    DCD    4294967295
        0x00005b84:    00000000    ....    DCD    0
        0x00005b88:    ffffffff    ....    DCD    4294967295
        0x00005b8c:    ffffffff    ....    DCD    4294967295
        0x00005b90:    00000000    ....    DCD    0
        0x00005b94:    ffffffff    ....    DCD    4294967295
        0x00005b98:    ffffffff    ....    DCD    4294967295
        0x00005b9c:    00000000    ....    DCD    0
        0x00005ba0:    ffffffff    ....    DCD    4294967295
        0x00005ba4:    ffffffff    ....    DCD    4294967295
        0x00005ba8:    00000000    ....    DCD    0
        0x00005bac:    00000000    ....    DCD    0
        0x00005bb0:    00000000    ....    DCD    0
        0x00005bb4:    ffffffff    ....    DCD    4294967295
        0x00005bb8:    ffffffff    ....    DCD    4294967295
        0x00005bbc:    ffffffff    ....    DCD    4294967295
        0x00005bc0:    00000000    ....    DCD    0
        0x00005bc4:    00000000    ....    DCD    0
        0x00005bc8:    00000000    ....    DCD    0
        0x00005bcc:    ffffffff    ....    DCD    4294967295
        0x00005bd0:    ffffffff    ....    DCD    4294967295
        0x00005bd4:    ffffffff    ....    DCD    4294967295
        0x00005bd8:    00000000    ....    DCD    0
        0x00005bdc:    ffffffff    ....    DCD    4294967295
        0x00005be0:    ffffffff    ....    DCD    4294967295
        0x00005be4:    00000000    ....    DCD    0
        0x00005be8:    ffffffff    ....    DCD    4294967295
        0x00005bec:    ffffffff    ....    DCD    4294967295
        0x00005bf0:    00000000    ....    DCD    0
        0x00005bf4:    ffffffff    ....    DCD    4294967295
        0x00005bf8:    ffffffff    ....    DCD    4294967295
        0x00005bfc:    00000000    ....    DCD    0
        0x00005c00:    ffffffff    ....    DCD    4294967295
        0x00005c04:    ffffffff    ....    DCD    4294967295
        0x00005c08:    00000000    ....    DCD    0
        0x00005c0c:    ffffffff    ....    DCD    4294967295
        0x00005c10:    ffffffff    ....    DCD    4294967295
        0x00005c14:    00000000    ....    DCD    0
        0x00005c18:    ffffffff    ....    DCD    4294967295
        0x00005c1c:    ffffffff    ....    DCD    4294967295
        0x00005c20:    00000000    ....    DCD    0
        0x00005c24:    ffffffff    ....    DCD    4294967295
        0x00005c28:    ffffffff    ....    DCD    4294967295
        0x00005c2c:    00000000    ....    DCD    0
        0x00005c30:    ffffffff    ....    DCD    4294967295
        0x00005c34:    ffffffff    ....    DCD    4294967295
        0x00005c38:    ffffffff    ....    DCD    4294967295
        0x00005c3c:    ffffffff    ....    DCD    4294967295
        0x00005c40:    ffffffff    ....    DCD    4294967295
        0x00005c44:    ffffffff    ....    DCD    4294967295
        0x00005c48:    ffffffff    ....    DCD    4294967295
    letter_S
        0x00005c4c:    ffffffff    ....    DCD    4294967295
        0x00005c50:    ffffffff    ....    DCD    4294967295
        0x00005c54:    ffffffff    ....    DCD    4294967295
        0x00005c58:    ffffffff    ....    DCD    4294967295
        0x00005c5c:    ffffffff    ....    DCD    4294967295
        0x00005c60:    ffffffff    ....    DCD    4294967295
        0x00005c64:    ffffffff    ....    DCD    4294967295
        0x00005c68:    ffffffff    ....    DCD    4294967295
        0x00005c6c:    00000000    ....    DCD    0
        0x00005c70:    00000000    ....    DCD    0
        0x00005c74:    00000000    ....    DCD    0
        0x00005c78:    ffffffff    ....    DCD    4294967295
        0x00005c7c:    ffffffff    ....    DCD    4294967295
        0x00005c80:    ffffffff    ....    DCD    4294967295
        0x00005c84:    00000000    ....    DCD    0
        0x00005c88:    00000000    ....    DCD    0
        0x00005c8c:    00000000    ....    DCD    0
        0x00005c90:    ffffffff    ....    DCD    4294967295
        0x00005c94:    ffffffff    ....    DCD    4294967295
        0x00005c98:    00000000    ....    DCD    0
        0x00005c9c:    ffffffff    ....    DCD    4294967295
        0x00005ca0:    ffffffff    ....    DCD    4294967295
        0x00005ca4:    ffffffff    ....    DCD    4294967295
        0x00005ca8:    ffffffff    ....    DCD    4294967295
        0x00005cac:    ffffffff    ....    DCD    4294967295
        0x00005cb0:    00000000    ....    DCD    0
        0x00005cb4:    ffffffff    ....    DCD    4294967295
        0x00005cb8:    ffffffff    ....    DCD    4294967295
        0x00005cbc:    ffffffff    ....    DCD    4294967295
        0x00005cc0:    ffffffff    ....    DCD    4294967295
        0x00005cc4:    ffffffff    ....    DCD    4294967295
        0x00005cc8:    ffffffff    ....    DCD    4294967295
        0x00005ccc:    00000000    ....    DCD    0
        0x00005cd0:    00000000    ....    DCD    0
        0x00005cd4:    ffffffff    ....    DCD    4294967295
        0x00005cd8:    ffffffff    ....    DCD    4294967295
        0x00005cdc:    ffffffff    ....    DCD    4294967295
        0x00005ce0:    ffffffff    ....    DCD    4294967295
        0x00005ce4:    00000000    ....    DCD    0
        0x00005ce8:    00000000    ....    DCD    0
        0x00005cec:    ffffffff    ....    DCD    4294967295
        0x00005cf0:    ffffffff    ....    DCD    4294967295
        0x00005cf4:    ffffffff    ....    DCD    4294967295
        0x00005cf8:    ffffffff    ....    DCD    4294967295
        0x00005cfc:    ffffffff    ....    DCD    4294967295
        0x00005d00:    ffffffff    ....    DCD    4294967295
        0x00005d04:    00000000    ....    DCD    0
        0x00005d08:    ffffffff    ....    DCD    4294967295
        0x00005d0c:    ffffffff    ....    DCD    4294967295
        0x00005d10:    ffffffff    ....    DCD    4294967295
        0x00005d14:    ffffffff    ....    DCD    4294967295
        0x00005d18:    ffffffff    ....    DCD    4294967295
        0x00005d1c:    00000000    ....    DCD    0
        0x00005d20:    ffffffff    ....    DCD    4294967295
        0x00005d24:    ffffffff    ....    DCD    4294967295
        0x00005d28:    00000000    ....    DCD    0
        0x00005d2c:    00000000    ....    DCD    0
        0x00005d30:    00000000    ....    DCD    0
        0x00005d34:    ffffffff    ....    DCD    4294967295
        0x00005d38:    ffffffff    ....    DCD    4294967295
        0x00005d3c:    ffffffff    ....    DCD    4294967295
        0x00005d40:    00000000    ....    DCD    0
        0x00005d44:    00000000    ....    DCD    0
        0x00005d48:    00000000    ....    DCD    0
        0x00005d4c:    ffffffff    ....    DCD    4294967295
        0x00005d50:    ffffffff    ....    DCD    4294967295
        0x00005d54:    ffffffff    ....    DCD    4294967295
        0x00005d58:    ffffffff    ....    DCD    4294967295
        0x00005d5c:    ffffffff    ....    DCD    4294967295
        0x00005d60:    ffffffff    ....    DCD    4294967295
        0x00005d64:    ffffffff    ....    DCD    4294967295
        0x00005d68:    ffffffff    ....    DCD    4294967295
    letter_T
        0x00005d6c:    ffffffff    ....    DCD    4294967295
        0x00005d70:    ffffffff    ....    DCD    4294967295
        0x00005d74:    ffffffff    ....    DCD    4294967295
        0x00005d78:    ffffffff    ....    DCD    4294967295
        0x00005d7c:    ffffffff    ....    DCD    4294967295
        0x00005d80:    ffffffff    ....    DCD    4294967295
        0x00005d84:    ffffffff    ....    DCD    4294967295
        0x00005d88:    00000000    ....    DCD    0
        0x00005d8c:    00000000    ....    DCD    0
        0x00005d90:    00000000    ....    DCD    0
        0x00005d94:    00000000    ....    DCD    0
        0x00005d98:    ffffffff    ....    DCD    4294967295
        0x00005d9c:    ffffffff    ....    DCD    4294967295
        0x00005da0:    00000000    ....    DCD    0
        0x00005da4:    00000000    ....    DCD    0
        0x00005da8:    00000000    ....    DCD    0
        0x00005dac:    00000000    ....    DCD    0
        0x00005db0:    ffffffff    ....    DCD    4294967295
        0x00005db4:    ffffffff    ....    DCD    4294967295
        0x00005db8:    ffffffff    ....    DCD    4294967295
        0x00005dbc:    0000ffff    ....    DCD    65535
        0x00005dc0:    ffff0000    ....    DCD    4294901760
        0x00005dc4:    ffffffff    ....    DCD    4294967295
        0x00005dc8:    ffffffff    ....    DCD    4294967295
        0x00005dcc:    ffffffff    ....    DCD    4294967295
        0x00005dd0:    ffffffff    ....    DCD    4294967295
        0x00005dd4:    0000ffff    ....    DCD    65535
        0x00005dd8:    ffff0000    ....    DCD    4294901760
        0x00005ddc:    ffffffff    ....    DCD    4294967295
        0x00005de0:    ffffffff    ....    DCD    4294967295
        0x00005de4:    ffffffff    ....    DCD    4294967295
        0x00005de8:    ffffffff    ....    DCD    4294967295
        0x00005dec:    0000ffff    ....    DCD    65535
        0x00005df0:    ffff0000    ....    DCD    4294901760
        0x00005df4:    ffffffff    ....    DCD    4294967295
        0x00005df8:    ffffffff    ....    DCD    4294967295
        0x00005dfc:    ffffffff    ....    DCD    4294967295
        0x00005e00:    ffffffff    ....    DCD    4294967295
        0x00005e04:    0000ffff    ....    DCD    65535
        0x00005e08:    ffff0000    ....    DCD    4294901760
        0x00005e0c:    ffffffff    ....    DCD    4294967295
        0x00005e10:    ffffffff    ....    DCD    4294967295
        0x00005e14:    ffffffff    ....    DCD    4294967295
        0x00005e18:    ffffffff    ....    DCD    4294967295
        0x00005e1c:    0000ffff    ....    DCD    65535
        0x00005e20:    ffff0000    ....    DCD    4294901760
        0x00005e24:    ffffffff    ....    DCD    4294967295
        0x00005e28:    ffffffff    ....    DCD    4294967295
        0x00005e2c:    ffffffff    ....    DCD    4294967295
        0x00005e30:    ffffffff    ....    DCD    4294967295
        0x00005e34:    0000ffff    ....    DCD    65535
        0x00005e38:    ffff0000    ....    DCD    4294901760
        0x00005e3c:    ffffffff    ....    DCD    4294967295
        0x00005e40:    ffffffff    ....    DCD    4294967295
        0x00005e44:    ffffffff    ....    DCD    4294967295
        0x00005e48:    ffffffff    ....    DCD    4294967295
        0x00005e4c:    0000ffff    ....    DCD    65535
        0x00005e50:    ffff0000    ....    DCD    4294901760
        0x00005e54:    ffffffff    ....    DCD    4294967295
        0x00005e58:    ffffffff    ....    DCD    4294967295
        0x00005e5c:    ffffffff    ....    DCD    4294967295
        0x00005e60:    ffffffff    ....    DCD    4294967295
        0x00005e64:    0000ffff    ....    DCD    65535
        0x00005e68:    ffff0000    ....    DCD    4294901760
        0x00005e6c:    ffffffff    ....    DCD    4294967295
        0x00005e70:    ffffffff    ....    DCD    4294967295
        0x00005e74:    ffffffff    ....    DCD    4294967295
        0x00005e78:    ffffffff    ....    DCD    4294967295
        0x00005e7c:    ffffffff    ....    DCD    4294967295
        0x00005e80:    ffffffff    ....    DCD    4294967295
        0x00005e84:    ffffffff    ....    DCD    4294967295
        0x00005e88:    ffffffff    ....    DCD    4294967295
    letter_U
        0x00005e8c:    ffffffff    ....    DCD    4294967295
        0x00005e90:    ffffffff    ....    DCD    4294967295
        0x00005e94:    ffffffff    ....    DCD    4294967295
        0x00005e98:    ffffffff    ....    DCD    4294967295
        0x00005e9c:    ffffffff    ....    DCD    4294967295
        0x00005ea0:    ffffffff    ....    DCD    4294967295
        0x00005ea4:    ffffffff    ....    DCD    4294967295
        0x00005ea8:    00000000    ....    DCD    0
        0x00005eac:    ffffffff    ....    DCD    4294967295
        0x00005eb0:    ffffffff    ....    DCD    4294967295
        0x00005eb4:    00000000    ....    DCD    0
        0x00005eb8:    ffffffff    ....    DCD    4294967295
        0x00005ebc:    ffffffff    ....    DCD    4294967295
        0x00005ec0:    00000000    ....    DCD    0
        0x00005ec4:    ffffffff    ....    DCD    4294967295
        0x00005ec8:    ffffffff    ....    DCD    4294967295
        0x00005ecc:    00000000    ....    DCD    0
        0x00005ed0:    ffffffff    ....    DCD    4294967295
        0x00005ed4:    ffffffff    ....    DCD    4294967295
        0x00005ed8:    00000000    ....    DCD    0
        0x00005edc:    ffffffff    ....    DCD    4294967295
        0x00005ee0:    ffffffff    ....    DCD    4294967295
        0x00005ee4:    00000000    ....    DCD    0
        0x00005ee8:    ffffffff    ....    DCD    4294967295
        0x00005eec:    ffffffff    ....    DCD    4294967295
        0x00005ef0:    00000000    ....    DCD    0
        0x00005ef4:    ffffffff    ....    DCD    4294967295
        0x00005ef8:    ffffffff    ....    DCD    4294967295
        0x00005efc:    00000000    ....    DCD    0
        0x00005f00:    ffffffff    ....    DCD    4294967295
        0x00005f04:    ffffffff    ....    DCD    4294967295
        0x00005f08:    00000000    ....    DCD    0
        0x00005f0c:    ffffffff    ....    DCD    4294967295
        0x00005f10:    ffffffff    ....    DCD    4294967295
        0x00005f14:    00000000    ....    DCD    0
        0x00005f18:    ffffffff    ....    DCD    4294967295
        0x00005f1c:    ffffffff    ....    DCD    4294967295
        0x00005f20:    00000000    ....    DCD    0
        0x00005f24:    ffffffff    ....    DCD    4294967295
        0x00005f28:    ffffffff    ....    DCD    4294967295
        0x00005f2c:    00000000    ....    DCD    0
        0x00005f30:    ffffffff    ....    DCD    4294967295
        0x00005f34:    ffffffff    ....    DCD    4294967295
        0x00005f38:    00000000    ....    DCD    0
        0x00005f3c:    ffffffff    ....    DCD    4294967295
        0x00005f40:    ffffffff    ....    DCD    4294967295
        0x00005f44:    00000000    ....    DCD    0
        0x00005f48:    ffffffff    ....    DCD    4294967295
        0x00005f4c:    ffffffff    ....    DCD    4294967295
        0x00005f50:    00000000    ....    DCD    0
        0x00005f54:    ffffffff    ....    DCD    4294967295
        0x00005f58:    ffffffff    ....    DCD    4294967295
        0x00005f5c:    00000000    ....    DCD    0
        0x00005f60:    ffffffff    ....    DCD    4294967295
        0x00005f64:    ffffffff    ....    DCD    4294967295
        0x00005f68:    ffffffff    ....    DCD    4294967295
        0x00005f6c:    00000000    ....    DCD    0
        0x00005f70:    00000000    ....    DCD    0
        0x00005f74:    ffffffff    ....    DCD    4294967295
        0x00005f78:    ffffffff    ....    DCD    4294967295
        0x00005f7c:    ffffffff    ....    DCD    4294967295
        0x00005f80:    ffffffff    ....    DCD    4294967295
        0x00005f84:    00000000    ....    DCD    0
        0x00005f88:    00000000    ....    DCD    0
        0x00005f8c:    ffffffff    ....    DCD    4294967295
        0x00005f90:    ffffffff    ....    DCD    4294967295
        0x00005f94:    ffffffff    ....    DCD    4294967295
        0x00005f98:    ffffffff    ....    DCD    4294967295
        0x00005f9c:    ffffffff    ....    DCD    4294967295
        0x00005fa0:    ffffffff    ....    DCD    4294967295
        0x00005fa4:    ffffffff    ....    DCD    4294967295
        0x00005fa8:    ffffffff    ....    DCD    4294967295
    letter_V
        0x00005fac:    ffffffff    ....    DCD    4294967295
        0x00005fb0:    ffffffff    ....    DCD    4294967295
        0x00005fb4:    ffffffff    ....    DCD    4294967295
        0x00005fb8:    ffffffff    ....    DCD    4294967295
        0x00005fbc:    ffffffff    ....    DCD    4294967295
        0x00005fc0:    ffffffff    ....    DCD    4294967295
        0x00005fc4:    ffffffff    ....    DCD    4294967295
        0x00005fc8:    00000000    ....    DCD    0
        0x00005fcc:    ffffffff    ....    DCD    4294967295
        0x00005fd0:    ffffffff    ....    DCD    4294967295
        0x00005fd4:    00000000    ....    DCD    0
        0x00005fd8:    ffffffff    ....    DCD    4294967295
        0x00005fdc:    ffffffff    ....    DCD    4294967295
        0x00005fe0:    00000000    ....    DCD    0
        0x00005fe4:    ffffffff    ....    DCD    4294967295
        0x00005fe8:    ffffffff    ....    DCD    4294967295
        0x00005fec:    00000000    ....    DCD    0
        0x00005ff0:    ffffffff    ....    DCD    4294967295
        0x00005ff4:    ffffffff    ....    DCD    4294967295
        0x00005ff8:    00000000    ....    DCD    0
        0x00005ffc:    ffffffff    ....    DCD    4294967295
        0x00006000:    ffffffff    ....    DCD    4294967295
        0x00006004:    00000000    ....    DCD    0
        0x00006008:    ffffffff    ....    DCD    4294967295
        0x0000600c:    ffffffff    ....    DCD    4294967295
        0x00006010:    00000000    ....    DCD    0
        0x00006014:    ffffffff    ....    DCD    4294967295
        0x00006018:    ffffffff    ....    DCD    4294967295
        0x0000601c:    00000000    ....    DCD    0
        0x00006020:    ffffffff    ....    DCD    4294967295
        0x00006024:    ffffffff    ....    DCD    4294967295
        0x00006028:    00000000    ....    DCD    0
        0x0000602c:    ffffffff    ....    DCD    4294967295
        0x00006030:    ffffffff    ....    DCD    4294967295
        0x00006034:    00000000    ....    DCD    0
        0x00006038:    ffffffff    ....    DCD    4294967295
        0x0000603c:    ffffffff    ....    DCD    4294967295
        0x00006040:    00000000    ....    DCD    0
        0x00006044:    ffffffff    ....    DCD    4294967295
        0x00006048:    ffffffff    ....    DCD    4294967295
        0x0000604c:    00000000    ....    DCD    0
        0x00006050:    ffffffff    ....    DCD    4294967295
        0x00006054:    ffffffff    ....    DCD    4294967295
        0x00006058:    00000000    ....    DCD    0
        0x0000605c:    ffffffff    ....    DCD    4294967295
        0x00006060:    00000000    ....    DCD    0
        0x00006064:    ffffffff    ....    DCD    4294967295
        0x00006068:    ffffffff    ....    DCD    4294967295
        0x0000606c:    ffffffff    ....    DCD    4294967295
        0x00006070:    00000000    ....    DCD    0
        0x00006074:    ffffffff    ....    DCD    4294967295
        0x00006078:    00000000    ....    DCD    0
        0x0000607c:    ffffffff    ....    DCD    4294967295
        0x00006080:    ffffffff    ....    DCD    4294967295
        0x00006084:    ffffffff    ....    DCD    4294967295
        0x00006088:    ffffffff    ....    DCD    4294967295
        0x0000608c:    00000000    ....    DCD    0
        0x00006090:    ffffffff    ....    DCD    4294967295
        0x00006094:    ffffffff    ....    DCD    4294967295
        0x00006098:    ffffffff    ....    DCD    4294967295
        0x0000609c:    ffffffff    ....    DCD    4294967295
        0x000060a0:    ffffffff    ....    DCD    4294967295
        0x000060a4:    00000000    ....    DCD    0
        0x000060a8:    ffffffff    ....    DCD    4294967295
        0x000060ac:    ffffffff    ....    DCD    4294967295
        0x000060b0:    ffffffff    ....    DCD    4294967295
        0x000060b4:    ffffffff    ....    DCD    4294967295
        0x000060b8:    ffffffff    ....    DCD    4294967295
        0x000060bc:    ffffffff    ....    DCD    4294967295
        0x000060c0:    ffffffff    ....    DCD    4294967295
        0x000060c4:    ffffffff    ....    DCD    4294967295
        0x000060c8:    ffffffff    ....    DCD    4294967295
    letter_W
        0x000060cc:    ffffffff    ....    DCD    4294967295
        0x000060d0:    ffffffff    ....    DCD    4294967295
        0x000060d4:    ffffffff    ....    DCD    4294967295
        0x000060d8:    ffffffff    ....    DCD    4294967295
        0x000060dc:    ffffffff    ....    DCD    4294967295
        0x000060e0:    ffffffff    ....    DCD    4294967295
        0x000060e4:    0000ffff    ....    DCD    65535
        0x000060e8:    ffff0000    ....    DCD    4294901760
        0x000060ec:    ffffffff    ....    DCD    4294967295
        0x000060f0:    ffffffff    ....    DCD    4294967295
        0x000060f4:    0000ffff    ....    DCD    65535
        0x000060f8:    ffff0000    ....    DCD    4294901760
        0x000060fc:    0000ffff    ....    DCD    65535
        0x00006100:    ffff0000    ....    DCD    4294901760
        0x00006104:    ffffffff    ....    DCD    4294967295
        0x00006108:    ffffffff    ....    DCD    4294967295
        0x0000610c:    0000ffff    ....    DCD    65535
        0x00006110:    ffff0000    ....    DCD    4294901760
        0x00006114:    0000ffff    ....    DCD    65535
        0x00006118:    ffff0000    ....    DCD    4294901760
        0x0000611c:    ffffffff    ....    DCD    4294967295
        0x00006120:    ffffffff    ....    DCD    4294967295
        0x00006124:    0000ffff    ....    DCD    65535
        0x00006128:    ffff0000    ....    DCD    4294901760
        0x0000612c:    0000ffff    ....    DCD    65535
        0x00006130:    ffff0000    ....    DCD    4294901760
        0x00006134:    ffffffff    ....    DCD    4294967295
        0x00006138:    ffffffff    ....    DCD    4294967295
        0x0000613c:    0000ffff    ....    DCD    65535
        0x00006140:    ffff0000    ....    DCD    4294901760
        0x00006144:    0000ffff    ....    DCD    65535
        0x00006148:    ffff0000    ....    DCD    4294901760
        0x0000614c:    0000ffff    ....    DCD    65535
        0x00006150:    ffff0000    ....    DCD    4294901760
        0x00006154:    0000ffff    ....    DCD    65535
        0x00006158:    ffff0000    ....    DCD    4294901760
        0x0000615c:    0000ffff    ....    DCD    65535
        0x00006160:    ffff0000    ....    DCD    4294901760
        0x00006164:    0000ffff    ....    DCD    65535
        0x00006168:    ffff0000    ....    DCD    4294901760
        0x0000616c:    0000ffff    ....    DCD    65535
        0x00006170:    ffff0000    ....    DCD    4294901760
        0x00006174:    0000ffff    ....    DCD    65535
        0x00006178:    ffff0000    ....    DCD    4294901760
        0x0000617c:    0000ffff    ....    DCD    65535
        0x00006180:    ffff0000    ....    DCD    4294901760
        0x00006184:    0000ffff    ....    DCD    65535
        0x00006188:    ffff0000    ....    DCD    4294901760
        0x0000618c:    0000ffff    ....    DCD    65535
        0x00006190:    ffff0000    ....    DCD    4294901760
        0x00006194:    0000ffff    ....    DCD    65535
        0x00006198:    ffff0000    ....    DCD    4294901760
        0x0000619c:    0000ffff    ....    DCD    65535
        0x000061a0:    ffff0000    ....    DCD    4294901760
        0x000061a4:    ffffffff    ....    DCD    4294967295
        0x000061a8:    0000ffff    ....    DCD    65535
        0x000061ac:    ffff0000    ....    DCD    4294901760
        0x000061b0:    0000ffff    ....    DCD    65535
        0x000061b4:    ffff0000    ....    DCD    4294901760
        0x000061b8:    ffffffff    ....    DCD    4294967295
        0x000061bc:    ffffffff    ....    DCD    4294967295
        0x000061c0:    0000ffff    ....    DCD    65535
        0x000061c4:    ffff0000    ....    DCD    4294901760
        0x000061c8:    0000ffff    ....    DCD    65535
        0x000061cc:    ffff0000    ....    DCD    4294901760
        0x000061d0:    ffffffff    ....    DCD    4294967295
        0x000061d4:    ffffffff    ....    DCD    4294967295
        0x000061d8:    ffffffff    ....    DCD    4294967295
        0x000061dc:    ffffffff    ....    DCD    4294967295
        0x000061e0:    ffffffff    ....    DCD    4294967295
        0x000061e4:    ffffffff    ....    DCD    4294967295
        0x000061e8:    ffffffff    ....    DCD    4294967295
    letter_X
        0x000061ec:    ffffffff    ....    DCD    4294967295
        0x000061f0:    ffffffff    ....    DCD    4294967295
        0x000061f4:    ffffffff    ....    DCD    4294967295
        0x000061f8:    ffffffff    ....    DCD    4294967295
        0x000061fc:    ffffffff    ....    DCD    4294967295
        0x00006200:    ffffffff    ....    DCD    4294967295
        0x00006204:    ffffffff    ....    DCD    4294967295
        0x00006208:    00000000    ....    DCD    0
        0x0000620c:    ffffffff    ....    DCD    4294967295
        0x00006210:    ffffffff    ....    DCD    4294967295
        0x00006214:    00000000    ....    DCD    0
        0x00006218:    ffffffff    ....    DCD    4294967295
        0x0000621c:    ffffffff    ....    DCD    4294967295
        0x00006220:    00000000    ....    DCD    0
        0x00006224:    ffffffff    ....    DCD    4294967295
        0x00006228:    ffffffff    ....    DCD    4294967295
        0x0000622c:    00000000    ....    DCD    0
        0x00006230:    ffffffff    ....    DCD    4294967295
        0x00006234:    ffffffff    ....    DCD    4294967295
        0x00006238:    00000000    ....    DCD    0
        0x0000623c:    00000000    ....    DCD    0
        0x00006240:    ffffffff    ....    DCD    4294967295
        0x00006244:    00000000    ....    DCD    0
        0x00006248:    ffffffff    ....    DCD    4294967295
        0x0000624c:    ffffffff    ....    DCD    4294967295
        0x00006250:    00000000    ....    DCD    0
        0x00006254:    00000000    ....    DCD    0
        0x00006258:    ffffffff    ....    DCD    4294967295
        0x0000625c:    00000000    ....    DCD    0
        0x00006260:    ffffffff    ....    DCD    4294967295
        0x00006264:    ffffffff    ....    DCD    4294967295
        0x00006268:    ffffffff    ....    DCD    4294967295
        0x0000626c:    00000000    ....    DCD    0
        0x00006270:    00000000    ....    DCD    0
        0x00006274:    ffffffff    ....    DCD    4294967295
        0x00006278:    ffffffff    ....    DCD    4294967295
        0x0000627c:    ffffffff    ....    DCD    4294967295
        0x00006280:    ffffffff    ....    DCD    4294967295
        0x00006284:    00000000    ....    DCD    0
        0x00006288:    00000000    ....    DCD    0
        0x0000628c:    ffffffff    ....    DCD    4294967295
        0x00006290:    ffffffff    ....    DCD    4294967295
        0x00006294:    ffffffff    ....    DCD    4294967295
        0x00006298:    00000000    ....    DCD    0
        0x0000629c:    ffffffff    ....    DCD    4294967295
        0x000062a0:    00000000    ....    DCD    0
        0x000062a4:    00000000    ....    DCD    0
        0x000062a8:    ffffffff    ....    DCD    4294967295
        0x000062ac:    ffffffff    ....    DCD    4294967295
        0x000062b0:    00000000    ....    DCD    0
        0x000062b4:    ffffffff    ....    DCD    4294967295
        0x000062b8:    00000000    ....    DCD    0
        0x000062bc:    00000000    ....    DCD    0
        0x000062c0:    ffffffff    ....    DCD    4294967295
        0x000062c4:    ffffffff    ....    DCD    4294967295
        0x000062c8:    00000000    ....    DCD    0
        0x000062cc:    ffffffff    ....    DCD    4294967295
        0x000062d0:    ffffffff    ....    DCD    4294967295
        0x000062d4:    00000000    ....    DCD    0
        0x000062d8:    ffffffff    ....    DCD    4294967295
        0x000062dc:    ffffffff    ....    DCD    4294967295
        0x000062e0:    00000000    ....    DCD    0
        0x000062e4:    ffffffff    ....    DCD    4294967295
        0x000062e8:    ffffffff    ....    DCD    4294967295
        0x000062ec:    00000000    ....    DCD    0
        0x000062f0:    ffffffff    ....    DCD    4294967295
        0x000062f4:    ffffffff    ....    DCD    4294967295
        0x000062f8:    ffffffff    ....    DCD    4294967295
        0x000062fc:    ffffffff    ....    DCD    4294967295
        0x00006300:    ffffffff    ....    DCD    4294967295
        0x00006304:    ffffffff    ....    DCD    4294967295
        0x00006308:    ffffffff    ....    DCD    4294967295
    letter_Y
        0x0000630c:    ffffffff    ....    DCD    4294967295
        0x00006310:    ffffffff    ....    DCD    4294967295
        0x00006314:    ffffffff    ....    DCD    4294967295
        0x00006318:    ffffffff    ....    DCD    4294967295
        0x0000631c:    ffffffff    ....    DCD    4294967295
        0x00006320:    ffffffff    ....    DCD    4294967295
        0x00006324:    ffffffff    ....    DCD    4294967295
        0x00006328:    00000000    ....    DCD    0
        0x0000632c:    ffffffff    ....    DCD    4294967295
        0x00006330:    ffffffff    ....    DCD    4294967295
        0x00006334:    00000000    ....    DCD    0
        0x00006338:    ffffffff    ....    DCD    4294967295
        0x0000633c:    ffffffff    ....    DCD    4294967295
        0x00006340:    00000000    ....    DCD    0
        0x00006344:    ffffffff    ....    DCD    4294967295
        0x00006348:    ffffffff    ....    DCD    4294967295
        0x0000634c:    00000000    ....    DCD    0
        0x00006350:    ffffffff    ....    DCD    4294967295
        0x00006354:    ffffffff    ....    DCD    4294967295
        0x00006358:    00000000    ....    DCD    0
        0x0000635c:    ffffffff    ....    DCD    4294967295
        0x00006360:    ffffffff    ....    DCD    4294967295
        0x00006364:    00000000    ....    DCD    0
        0x00006368:    ffffffff    ....    DCD    4294967295
        0x0000636c:    ffffffff    ....    DCD    4294967295
        0x00006370:    00000000    ....    DCD    0
        0x00006374:    ffffffff    ....    DCD    4294967295
        0x00006378:    ffffffff    ....    DCD    4294967295
        0x0000637c:    00000000    ....    DCD    0
        0x00006380:    ffffffff    ....    DCD    4294967295
        0x00006384:    ffffffff    ....    DCD    4294967295
        0x00006388:    00000000    ....    DCD    0
        0x0000638c:    00000000    ....    DCD    0
        0x00006390:    00000000    ....    DCD    0
        0x00006394:    ffffffff    ....    DCD    4294967295
        0x00006398:    ffffffff    ....    DCD    4294967295
        0x0000639c:    ffffffff    ....    DCD    4294967295
        0x000063a0:    00000000    ....    DCD    0
        0x000063a4:    00000000    ....    DCD    0
        0x000063a8:    00000000    ....    DCD    0
        0x000063ac:    ffffffff    ....    DCD    4294967295
        0x000063b0:    ffffffff    ....    DCD    4294967295
        0x000063b4:    ffffffff    ....    DCD    4294967295
        0x000063b8:    ffffffff    ....    DCD    4294967295
        0x000063bc:    ffffffff    ....    DCD    4294967295
        0x000063c0:    00000000    ....    DCD    0
        0x000063c4:    ffffffff    ....    DCD    4294967295
        0x000063c8:    ffffffff    ....    DCD    4294967295
        0x000063cc:    ffffffff    ....    DCD    4294967295
        0x000063d0:    ffffffff    ....    DCD    4294967295
        0x000063d4:    ffffffff    ....    DCD    4294967295
        0x000063d8:    00000000    ....    DCD    0
        0x000063dc:    ffffffff    ....    DCD    4294967295
        0x000063e0:    ffffffff    ....    DCD    4294967295
        0x000063e4:    ffffffff    ....    DCD    4294967295
        0x000063e8:    ffffffff    ....    DCD    4294967295
        0x000063ec:    00000000    ....    DCD    0
        0x000063f0:    ffffffff    ....    DCD    4294967295
        0x000063f4:    ffffffff    ....    DCD    4294967295
        0x000063f8:    ffffffff    ....    DCD    4294967295
        0x000063fc:    ffffffff    ....    DCD    4294967295
        0x00006400:    ffffffff    ....    DCD    4294967295
        0x00006404:    00000000    ....    DCD    0
        0x00006408:    ffffffff    ....    DCD    4294967295
        0x0000640c:    ffffffff    ....    DCD    4294967295
        0x00006410:    ffffffff    ....    DCD    4294967295
        0x00006414:    ffffffff    ....    DCD    4294967295
        0x00006418:    ffffffff    ....    DCD    4294967295
        0x0000641c:    ffffffff    ....    DCD    4294967295
        0x00006420:    ffffffff    ....    DCD    4294967295
        0x00006424:    ffffffff    ....    DCD    4294967295
        0x00006428:    ffffffff    ....    DCD    4294967295
    letter_Z
        0x0000642c:    ffffffff    ....    DCD    4294967295
        0x00006430:    ffffffff    ....    DCD    4294967295
        0x00006434:    ffffffff    ....    DCD    4294967295
        0x00006438:    ffffffff    ....    DCD    4294967295
        0x0000643c:    ffffffff    ....    DCD    4294967295
        0x00006440:    ffffffff    ....    DCD    4294967295
        0x00006444:    ffffffff    ....    DCD    4294967295
        0x00006448:    00000000    ....    DCD    0
        0x0000644c:    00000000    ....    DCD    0
        0x00006450:    00000000    ....    DCD    0
        0x00006454:    00000000    ....    DCD    0
        0x00006458:    ffffffff    ....    DCD    4294967295
        0x0000645c:    ffffffff    ....    DCD    4294967295
        0x00006460:    00000000    ....    DCD    0
        0x00006464:    00000000    ....    DCD    0
        0x00006468:    00000000    ....    DCD    0
        0x0000646c:    00000000    ....    DCD    0
        0x00006470:    ffffffff    ....    DCD    4294967295
        0x00006474:    ffffffff    ....    DCD    4294967295
        0x00006478:    ffffffff    ....    DCD    4294967295
        0x0000647c:    ffffffff    ....    DCD    4294967295
        0x00006480:    ffffffff    ....    DCD    4294967295
        0x00006484:    00000000    ....    DCD    0
        0x00006488:    ffffffff    ....    DCD    4294967295
        0x0000648c:    ffffffff    ....    DCD    4294967295
        0x00006490:    ffffffff    ....    DCD    4294967295
        0x00006494:    ffffffff    ....    DCD    4294967295
        0x00006498:    ffffffff    ....    DCD    4294967295
        0x0000649c:    00000000    ....    DCD    0
        0x000064a0:    ffffffff    ....    DCD    4294967295
        0x000064a4:    ffffffff    ....    DCD    4294967295
        0x000064a8:    ffffffff    ....    DCD    4294967295
        0x000064ac:    00000000    ....    DCD    0
        0x000064b0:    00000000    ....    DCD    0
        0x000064b4:    ffffffff    ....    DCD    4294967295
        0x000064b8:    ffffffff    ....    DCD    4294967295
        0x000064bc:    ffffffff    ....    DCD    4294967295
        0x000064c0:    ffffffff    ....    DCD    4294967295
        0x000064c4:    00000000    ....    DCD    0
        0x000064c8:    00000000    ....    DCD    0
        0x000064cc:    ffffffff    ....    DCD    4294967295
        0x000064d0:    ffffffff    ....    DCD    4294967295
        0x000064d4:    ffffffff    ....    DCD    4294967295
        0x000064d8:    00000000    ....    DCD    0
        0x000064dc:    ffffffff    ....    DCD    4294967295
        0x000064e0:    ffffffff    ....    DCD    4294967295
        0x000064e4:    ffffffff    ....    DCD    4294967295
        0x000064e8:    ffffffff    ....    DCD    4294967295
        0x000064ec:    ffffffff    ....    DCD    4294967295
        0x000064f0:    00000000    ....    DCD    0
        0x000064f4:    ffffffff    ....    DCD    4294967295
        0x000064f8:    ffffffff    ....    DCD    4294967295
        0x000064fc:    ffffffff    ....    DCD    4294967295
        0x00006500:    ffffffff    ....    DCD    4294967295
        0x00006504:    ffffffff    ....    DCD    4294967295
        0x00006508:    00000000    ....    DCD    0
        0x0000650c:    00000000    ....    DCD    0
        0x00006510:    00000000    ....    DCD    0
        0x00006514:    00000000    ....    DCD    0
        0x00006518:    ffffffff    ....    DCD    4294967295
        0x0000651c:    ffffffff    ....    DCD    4294967295
        0x00006520:    00000000    ....    DCD    0
        0x00006524:    00000000    ....    DCD    0
        0x00006528:    00000000    ....    DCD    0
        0x0000652c:    00000000    ....    DCD    0
        0x00006530:    ffffffff    ....    DCD    4294967295
        0x00006534:    ffffffff    ....    DCD    4294967295
        0x00006538:    ffffffff    ....    DCD    4294967295
        0x0000653c:    ffffffff    ....    DCD    4294967295
        0x00006540:    ffffffff    ....    DCD    4294967295
        0x00006544:    ffffffff    ....    DCD    4294967295
        0x00006548:    ffffffff    ....    DCD    4294967295
    letter_1
        0x0000654c:    ffffffff    ....    DCD    4294967295
        0x00006550:    ffffffff    ....    DCD    4294967295
        0x00006554:    ffffffff    ....    DCD    4294967295
        0x00006558:    ffffffff    ....    DCD    4294967295
        0x0000655c:    ffffffff    ....    DCD    4294967295
        0x00006560:    ffffffff    ....    DCD    4294967295
        0x00006564:    ffffffff    ....    DCD    4294967295
        0x00006568:    ffffffff    ....    DCD    4294967295
        0x0000656c:    ffffffff    ....    DCD    4294967295
        0x00006570:    0000ffff    ....    DCD    65535
        0x00006574:    ffff0000    ....    DCD    4294901760
        0x00006578:    ffffffff    ....    DCD    4294967295
        0x0000657c:    ffffffff    ....    DCD    4294967295
        0x00006580:    ffffffff    ....    DCD    4294967295
        0x00006584:    ffffffff    ....    DCD    4294967295
        0x00006588:    0000ffff    ....    DCD    65535
        0x0000658c:    ffff0000    ....    DCD    4294901760
        0x00006590:    ffffffff    ....    DCD    4294967295
        0x00006594:    ffffffff    ....    DCD    4294967295
        0x00006598:    ffffffff    ....    DCD    4294967295
        0x0000659c:    0000ffff    ....    DCD    65535
        0x000065a0:    00000000    ....    DCD    0
        0x000065a4:    ffff0000    ....    DCD    4294901760
        0x000065a8:    ffffffff    ....    DCD    4294967295
        0x000065ac:    ffffffff    ....    DCD    4294967295
        0x000065b0:    ffffffff    ....    DCD    4294967295
        0x000065b4:    0000ffff    ....    DCD    65535
        0x000065b8:    00000000    ....    DCD    0
        0x000065bc:    ffff0000    ....    DCD    4294901760
        0x000065c0:    ffffffff    ....    DCD    4294967295
        0x000065c4:    ffffffff    ....    DCD    4294967295
        0x000065c8:    0000ffff    ....    DCD    65535
        0x000065cc:    ffff0000    ....    DCD    4294901760
        0x000065d0:    0000ffff    ....    DCD    65535
        0x000065d4:    ffff0000    ....    DCD    4294901760
        0x000065d8:    ffffffff    ....    DCD    4294967295
        0x000065dc:    ffffffff    ....    DCD    4294967295
        0x000065e0:    0000ffff    ....    DCD    65535
        0x000065e4:    ffff0000    ....    DCD    4294901760
        0x000065e8:    0000ffff    ....    DCD    65535
        0x000065ec:    ffff0000    ....    DCD    4294901760
        0x000065f0:    ffffffff    ....    DCD    4294967295
        0x000065f4:    ffffffff    ....    DCD    4294967295
        0x000065f8:    ffffffff    ....    DCD    4294967295
        0x000065fc:    ffffffff    ....    DCD    4294967295
        0x00006600:    0000ffff    ....    DCD    65535
        0x00006604:    ffff0000    ....    DCD    4294901760
        0x00006608:    ffffffff    ....    DCD    4294967295
        0x0000660c:    ffffffff    ....    DCD    4294967295
        0x00006610:    ffffffff    ....    DCD    4294967295
        0x00006614:    ffffffff    ....    DCD    4294967295
        0x00006618:    0000ffff    ....    DCD    65535
        0x0000661c:    ffff0000    ....    DCD    4294901760
        0x00006620:    ffffffff    ....    DCD    4294967295
        0x00006624:    ffffffff    ....    DCD    4294967295
        0x00006628:    ffffffff    ....    DCD    4294967295
        0x0000662c:    ffffffff    ....    DCD    4294967295
        0x00006630:    0000ffff    ....    DCD    65535
        0x00006634:    ffff0000    ....    DCD    4294901760
        0x00006638:    ffffffff    ....    DCD    4294967295
        0x0000663c:    ffffffff    ....    DCD    4294967295
        0x00006640:    ffffffff    ....    DCD    4294967295
        0x00006644:    ffffffff    ....    DCD    4294967295
        0x00006648:    0000ffff    ....    DCD    65535
        0x0000664c:    ffff0000    ....    DCD    4294901760
        0x00006650:    ffffffff    ....    DCD    4294967295
        0x00006654:    ffffffff    ....    DCD    4294967295
        0x00006658:    ffffffff    ....    DCD    4294967295
        0x0000665c:    ffffffff    ....    DCD    4294967295
        0x00006660:    ffffffff    ....    DCD    4294967295
        0x00006664:    ffffffff    ....    DCD    4294967295
        0x00006668:    ffffffff    ....    DCD    4294967295
    letter_2
        0x0000666c:    ffffffff    ....    DCD    4294967295
        0x00006670:    ffffffff    ....    DCD    4294967295
        0x00006674:    ffffffff    ....    DCD    4294967295
        0x00006678:    ffffffff    ....    DCD    4294967295
        0x0000667c:    ffffffff    ....    DCD    4294967295
        0x00006680:    ffffffff    ....    DCD    4294967295
        0x00006684:    ffffffff    ....    DCD    4294967295
        0x00006688:    00000000    ....    DCD    0
        0x0000668c:    00000000    ....    DCD    0
        0x00006690:    00000000    ....    DCD    0
        0x00006694:    ffffffff    ....    DCD    4294967295
        0x00006698:    ffffffff    ....    DCD    4294967295
        0x0000669c:    ffffffff    ....    DCD    4294967295
        0x000066a0:    00000000    ....    DCD    0
        0x000066a4:    00000000    ....    DCD    0
        0x000066a8:    00000000    ....    DCD    0
        0x000066ac:    ffffffff    ....    DCD    4294967295
        0x000066b0:    ffffffff    ....    DCD    4294967295
        0x000066b4:    ffffffff    ....    DCD    4294967295
        0x000066b8:    ffffffff    ....    DCD    4294967295
        0x000066bc:    ffffffff    ....    DCD    4294967295
        0x000066c0:    ffffffff    ....    DCD    4294967295
        0x000066c4:    00000000    ....    DCD    0
        0x000066c8:    ffffffff    ....    DCD    4294967295
        0x000066cc:    ffffffff    ....    DCD    4294967295
        0x000066d0:    ffffffff    ....    DCD    4294967295
        0x000066d4:    ffffffff    ....    DCD    4294967295
        0x000066d8:    ffffffff    ....    DCD    4294967295
        0x000066dc:    00000000    ....    DCD    0
        0x000066e0:    ffffffff    ....    DCD    4294967295
        0x000066e4:    ffffffff    ....    DCD    4294967295
        0x000066e8:    ffffffff    ....    DCD    4294967295
        0x000066ec:    ffffffff    ....    DCD    4294967295
        0x000066f0:    00000000    ....    DCD    0
        0x000066f4:    ffffffff    ....    DCD    4294967295
        0x000066f8:    ffffffff    ....    DCD    4294967295
        0x000066fc:    ffffffff    ....    DCD    4294967295
        0x00006700:    ffffffff    ....    DCD    4294967295
        0x00006704:    ffffffff    ....    DCD    4294967295
        0x00006708:    00000000    ....    DCD    0
        0x0000670c:    ffffffff    ....    DCD    4294967295
        0x00006710:    ffffffff    ....    DCD    4294967295
        0x00006714:    ffffffff    ....    DCD    4294967295
        0x00006718:    ffffffff    ....    DCD    4294967295
        0x0000671c:    00000000    ....    DCD    0
        0x00006720:    ffffffff    ....    DCD    4294967295
        0x00006724:    ffffffff    ....    DCD    4294967295
        0x00006728:    ffffffff    ....    DCD    4294967295
        0x0000672c:    ffffffff    ....    DCD    4294967295
        0x00006730:    ffffffff    ....    DCD    4294967295
        0x00006734:    00000000    ....    DCD    0
        0x00006738:    ffffffff    ....    DCD    4294967295
        0x0000673c:    ffffffff    ....    DCD    4294967295
        0x00006740:    ffffffff    ....    DCD    4294967295
        0x00006744:    ffffffff    ....    DCD    4294967295
        0x00006748:    00000000    ....    DCD    0
        0x0000674c:    00000000    ....    DCD    0
        0x00006750:    00000000    ....    DCD    0
        0x00006754:    00000000    ....    DCD    0
        0x00006758:    ffffffff    ....    DCD    4294967295
        0x0000675c:    ffffffff    ....    DCD    4294967295
        0x00006760:    00000000    ....    DCD    0
        0x00006764:    00000000    ....    DCD    0
        0x00006768:    00000000    ....    DCD    0
        0x0000676c:    00000000    ....    DCD    0
        0x00006770:    ffffffff    ....    DCD    4294967295
        0x00006774:    ffffffff    ....    DCD    4294967295
        0x00006778:    ffffffff    ....    DCD    4294967295
        0x0000677c:    ffffffff    ....    DCD    4294967295
        0x00006780:    ffffffff    ....    DCD    4294967295
        0x00006784:    ffffffff    ....    DCD    4294967295
        0x00006788:    ffffffff    ....    DCD    4294967295
    letter_3
        0x0000678c:    ffffffff    ....    DCD    4294967295
        0x00006790:    ffffffff    ....    DCD    4294967295
        0x00006794:    ffffffff    ....    DCD    4294967295
        0x00006798:    ffffffff    ....    DCD    4294967295
        0x0000679c:    ffffffff    ....    DCD    4294967295
        0x000067a0:    ffffffff    ....    DCD    4294967295
        0x000067a4:    ffffffff    ....    DCD    4294967295
        0x000067a8:    00000000    ....    DCD    0
        0x000067ac:    00000000    ....    DCD    0
        0x000067b0:    00000000    ....    DCD    0
        0x000067b4:    ffffffff    ....    DCD    4294967295
        0x000067b8:    ffffffff    ....    DCD    4294967295
        0x000067bc:    ffffffff    ....    DCD    4294967295
        0x000067c0:    00000000    ....    DCD    0
        0x000067c4:    00000000    ....    DCD    0
        0x000067c8:    00000000    ....    DCD    0
        0x000067cc:    ffffffff    ....    DCD    4294967295
        0x000067d0:    ffffffff    ....    DCD    4294967295
        0x000067d4:    ffffffff    ....    DCD    4294967295
        0x000067d8:    ffffffff    ....    DCD    4294967295
        0x000067dc:    ffffffff    ....    DCD    4294967295
        0x000067e0:    ffffffff    ....    DCD    4294967295
        0x000067e4:    00000000    ....    DCD    0
        0x000067e8:    ffffffff    ....    DCD    4294967295
        0x000067ec:    ffffffff    ....    DCD    4294967295
        0x000067f0:    ffffffff    ....    DCD    4294967295
        0x000067f4:    ffffffff    ....    DCD    4294967295
        0x000067f8:    ffffffff    ....    DCD    4294967295
        0x000067fc:    00000000    ....    DCD    0
        0x00006800:    ffffffff    ....    DCD    4294967295
        0x00006804:    ffffffff    ....    DCD    4294967295
        0x00006808:    ffffffff    ....    DCD    4294967295
        0x0000680c:    00000000    ....    DCD    0
        0x00006810:    00000000    ....    DCD    0
        0x00006814:    ffffffff    ....    DCD    4294967295
        0x00006818:    ffffffff    ....    DCD    4294967295
        0x0000681c:    ffffffff    ....    DCD    4294967295
        0x00006820:    ffffffff    ....    DCD    4294967295
        0x00006824:    00000000    ....    DCD    0
        0x00006828:    00000000    ....    DCD    0
        0x0000682c:    ffffffff    ....    DCD    4294967295
        0x00006830:    ffffffff    ....    DCD    4294967295
        0x00006834:    ffffffff    ....    DCD    4294967295
        0x00006838:    ffffffff    ....    DCD    4294967295
        0x0000683c:    ffffffff    ....    DCD    4294967295
        0x00006840:    ffffffff    ....    DCD    4294967295
        0x00006844:    00000000    ....    DCD    0
        0x00006848:    ffffffff    ....    DCD    4294967295
        0x0000684c:    ffffffff    ....    DCD    4294967295
        0x00006850:    ffffffff    ....    DCD    4294967295
        0x00006854:    ffffffff    ....    DCD    4294967295
        0x00006858:    ffffffff    ....    DCD    4294967295
        0x0000685c:    00000000    ....    DCD    0
        0x00006860:    ffffffff    ....    DCD    4294967295
        0x00006864:    ffffffff    ....    DCD    4294967295
        0x00006868:    00000000    ....    DCD    0
        0x0000686c:    00000000    ....    DCD    0
        0x00006870:    00000000    ....    DCD    0
        0x00006874:    ffffffff    ....    DCD    4294967295
        0x00006878:    ffffffff    ....    DCD    4294967295
        0x0000687c:    ffffffff    ....    DCD    4294967295
        0x00006880:    00000000    ....    DCD    0
        0x00006884:    00000000    ....    DCD    0
        0x00006888:    00000000    ....    DCD    0
        0x0000688c:    ffffffff    ....    DCD    4294967295
        0x00006890:    ffffffff    ....    DCD    4294967295
        0x00006894:    ffffffff    ....    DCD    4294967295
        0x00006898:    ffffffff    ....    DCD    4294967295
        0x0000689c:    ffffffff    ....    DCD    4294967295
        0x000068a0:    ffffffff    ....    DCD    4294967295
        0x000068a4:    ffffffff    ....    DCD    4294967295
        0x000068a8:    ffffffff    ....    DCD    4294967295
    letter_4
        0x000068ac:    ffffffff    ....    DCD    4294967295
        0x000068b0:    ffffffff    ....    DCD    4294967295
        0x000068b4:    ffffffff    ....    DCD    4294967295
        0x000068b8:    ffffffff    ....    DCD    4294967295
        0x000068bc:    ffffffff    ....    DCD    4294967295
        0x000068c0:    ffffffff    ....    DCD    4294967295
        0x000068c4:    ffffffff    ....    DCD    4294967295
        0x000068c8:    ffffffff    ....    DCD    4294967295
        0x000068cc:    ffffffff    ....    DCD    4294967295
        0x000068d0:    00000000    ....    DCD    0
        0x000068d4:    00000000    ....    DCD    0
        0x000068d8:    ffffffff    ....    DCD    4294967295
        0x000068dc:    ffffffff    ....    DCD    4294967295
        0x000068e0:    ffffffff    ....    DCD    4294967295
        0x000068e4:    ffffffff    ....    DCD    4294967295
        0x000068e8:    00000000    ....    DCD    0
        0x000068ec:    00000000    ....    DCD    0
        0x000068f0:    ffffffff    ....    DCD    4294967295
        0x000068f4:    ffffffff    ....    DCD    4294967295
        0x000068f8:    ffffffff    ....    DCD    4294967295
        0x000068fc:    00000000    ....    DCD    0
        0x00006900:    ffffffff    ....    DCD    4294967295
        0x00006904:    00000000    ....    DCD    0
        0x00006908:    ffffffff    ....    DCD    4294967295
        0x0000690c:    ffffffff    ....    DCD    4294967295
        0x00006910:    ffffffff    ....    DCD    4294967295
        0x00006914:    00000000    ....    DCD    0
        0x00006918:    ffffffff    ....    DCD    4294967295
        0x0000691c:    00000000    ....    DCD    0
        0x00006920:    ffffffff    ....    DCD    4294967295
        0x00006924:    ffffffff    ....    DCD    4294967295
        0x00006928:    00000000    ....    DCD    0
        0x0000692c:    ffffffff    ....    DCD    4294967295
        0x00006930:    ffffffff    ....    DCD    4294967295
        0x00006934:    00000000    ....    DCD    0
        0x00006938:    ffffffff    ....    DCD    4294967295
        0x0000693c:    ffffffff    ....    DCD    4294967295
        0x00006940:    00000000    ....    DCD    0
        0x00006944:    ffffffff    ....    DCD    4294967295
        0x00006948:    ffffffff    ....    DCD    4294967295
        0x0000694c:    00000000    ....    DCD    0
        0x00006950:    ffffffff    ....    DCD    4294967295
        0x00006954:    ffffffff    ....    DCD    4294967295
        0x00006958:    ffffffff    ....    DCD    4294967295
        0x0000695c:    00000000    ....    DCD    0
        0x00006960:    00000000    ....    DCD    0
        0x00006964:    00000000    ....    DCD    0
        0x00006968:    ffffffff    ....    DCD    4294967295
        0x0000696c:    ffffffff    ....    DCD    4294967295
        0x00006970:    ffffffff    ....    DCD    4294967295
        0x00006974:    00000000    ....    DCD    0
        0x00006978:    00000000    ....    DCD    0
        0x0000697c:    00000000    ....    DCD    0
        0x00006980:    ffffffff    ....    DCD    4294967295
        0x00006984:    ffffffff    ....    DCD    4294967295
        0x00006988:    ffffffff    ....    DCD    4294967295
        0x0000698c:    ffffffff    ....    DCD    4294967295
        0x00006990:    ffffffff    ....    DCD    4294967295
        0x00006994:    00000000    ....    DCD    0
        0x00006998:    ffffffff    ....    DCD    4294967295
        0x0000699c:    ffffffff    ....    DCD    4294967295
        0x000069a0:    ffffffff    ....    DCD    4294967295
        0x000069a4:    ffffffff    ....    DCD    4294967295
        0x000069a8:    ffffffff    ....    DCD    4294967295
        0x000069ac:    00000000    ....    DCD    0
        0x000069b0:    ffffffff    ....    DCD    4294967295
        0x000069b4:    ffffffff    ....    DCD    4294967295
        0x000069b8:    ffffffff    ....    DCD    4294967295
        0x000069bc:    ffffffff    ....    DCD    4294967295
        0x000069c0:    ffffffff    ....    DCD    4294967295
        0x000069c4:    ffffffff    ....    DCD    4294967295
        0x000069c8:    ffffffff    ....    DCD    4294967295
    letter_5
        0x000069cc:    ffffffff    ....    DCD    4294967295
        0x000069d0:    ffffffff    ....    DCD    4294967295
        0x000069d4:    ffffffff    ....    DCD    4294967295
        0x000069d8:    ffffffff    ....    DCD    4294967295
        0x000069dc:    ffffffff    ....    DCD    4294967295
        0x000069e0:    ffffffff    ....    DCD    4294967295
        0x000069e4:    ffffffff    ....    DCD    4294967295
        0x000069e8:    ffffffff    ....    DCD    4294967295
        0x000069ec:    00000000    ....    DCD    0
        0x000069f0:    00000000    ....    DCD    0
        0x000069f4:    00000000    ....    DCD    0
        0x000069f8:    ffffffff    ....    DCD    4294967295
        0x000069fc:    ffffffff    ....    DCD    4294967295
        0x00006a00:    ffffffff    ....    DCD    4294967295
        0x00006a04:    00000000    ....    DCD    0
        0x00006a08:    00000000    ....    DCD    0
        0x00006a0c:    00000000    ....    DCD    0
        0x00006a10:    ffffffff    ....    DCD    4294967295
        0x00006a14:    ffffffff    ....    DCD    4294967295
        0x00006a18:    00000000    ....    DCD    0
        0x00006a1c:    ffffffff    ....    DCD    4294967295
        0x00006a20:    ffffffff    ....    DCD    4294967295
        0x00006a24:    ffffffff    ....    DCD    4294967295
        0x00006a28:    ffffffff    ....    DCD    4294967295
        0x00006a2c:    ffffffff    ....    DCD    4294967295
        0x00006a30:    00000000    ....    DCD    0
        0x00006a34:    ffffffff    ....    DCD    4294967295
        0x00006a38:    ffffffff    ....    DCD    4294967295
        0x00006a3c:    ffffffff    ....    DCD    4294967295
        0x00006a40:    ffffffff    ....    DCD    4294967295
        0x00006a44:    ffffffff    ....    DCD    4294967295
        0x00006a48:    00000000    ....    DCD    0
        0x00006a4c:    00000000    ....    DCD    0
        0x00006a50:    00000000    ....    DCD    0
        0x00006a54:    ffffffff    ....    DCD    4294967295
        0x00006a58:    ffffffff    ....    DCD    4294967295
        0x00006a5c:    ffffffff    ....    DCD    4294967295
        0x00006a60:    00000000    ....    DCD    0
        0x00006a64:    00000000    ....    DCD    0
        0x00006a68:    00000000    ....    DCD    0
        0x00006a6c:    ffffffff    ....    DCD    4294967295
        0x00006a70:    ffffffff    ....    DCD    4294967295
        0x00006a74:    ffffffff    ....    DCD    4294967295
        0x00006a78:    ffffffff    ....    DCD    4294967295
        0x00006a7c:    ffffffff    ....    DCD    4294967295
        0x00006a80:    ffffffff    ....    DCD    4294967295
        0x00006a84:    00000000    ....    DCD    0
        0x00006a88:    ffffffff    ....    DCD    4294967295
        0x00006a8c:    ffffffff    ....    DCD    4294967295
        0x00006a90:    ffffffff    ....    DCD    4294967295
        0x00006a94:    ffffffff    ....    DCD    4294967295
        0x00006a98:    ffffffff    ....    DCD    4294967295
        0x00006a9c:    00000000    ....    DCD    0
        0x00006aa0:    ffffffff    ....    DCD    4294967295
        0x00006aa4:    ffffffff    ....    DCD    4294967295
        0x00006aa8:    00000000    ....    DCD    0
        0x00006aac:    00000000    ....    DCD    0
        0x00006ab0:    00000000    ....    DCD    0
        0x00006ab4:    ffffffff    ....    DCD    4294967295
        0x00006ab8:    ffffffff    ....    DCD    4294967295
        0x00006abc:    ffffffff    ....    DCD    4294967295
        0x00006ac0:    00000000    ....    DCD    0
        0x00006ac4:    00000000    ....    DCD    0
        0x00006ac8:    00000000    ....    DCD    0
        0x00006acc:    ffffffff    ....    DCD    4294967295
        0x00006ad0:    ffffffff    ....    DCD    4294967295
        0x00006ad4:    ffffffff    ....    DCD    4294967295
        0x00006ad8:    ffffffff    ....    DCD    4294967295
        0x00006adc:    ffffffff    ....    DCD    4294967295
        0x00006ae0:    ffffffff    ....    DCD    4294967295
        0x00006ae4:    ffffffff    ....    DCD    4294967295
        0x00006ae8:    ffffffff    ....    DCD    4294967295
    letter_6
        0x00006aec:    ffffffff    ....    DCD    4294967295
        0x00006af0:    ffffffff    ....    DCD    4294967295
        0x00006af4:    ffffffff    ....    DCD    4294967295
        0x00006af8:    ffffffff    ....    DCD    4294967295
        0x00006afc:    ffffffff    ....    DCD    4294967295
        0x00006b00:    ffffffff    ....    DCD    4294967295
        0x00006b04:    ffffffff    ....    DCD    4294967295
        0x00006b08:    ffffffff    ....    DCD    4294967295
        0x00006b0c:    00000000    ....    DCD    0
        0x00006b10:    00000000    ....    DCD    0
        0x00006b14:    ffffffff    ....    DCD    4294967295
        0x00006b18:    ffffffff    ....    DCD    4294967295
        0x00006b1c:    ffffffff    ....    DCD    4294967295
        0x00006b20:    ffffffff    ....    DCD    4294967295
        0x00006b24:    00000000    ....    DCD    0
        0x00006b28:    00000000    ....    DCD    0
        0x00006b2c:    ffffffff    ....    DCD    4294967295
        0x00006b30:    ffffffff    ....    DCD    4294967295
        0x00006b34:    ffffffff    ....    DCD    4294967295
        0x00006b38:    00000000    ....    DCD    0
        0x00006b3c:    ffffffff    ....    DCD    4294967295
        0x00006b40:    ffffffff    ....    DCD    4294967295
        0x00006b44:    ffffffff    ....    DCD    4294967295
        0x00006b48:    ffffffff    ....    DCD    4294967295
        0x00006b4c:    ffffffff    ....    DCD    4294967295
        0x00006b50:    00000000    ....    DCD    0
        0x00006b54:    ffffffff    ....    DCD    4294967295
        0x00006b58:    ffffffff    ....    DCD    4294967295
        0x00006b5c:    ffffffff    ....    DCD    4294967295
        0x00006b60:    ffffffff    ....    DCD    4294967295
        0x00006b64:    ffffffff    ....    DCD    4294967295
        0x00006b68:    00000000    ....    DCD    0
        0x00006b6c:    00000000    ....    DCD    0
        0x00006b70:    00000000    ....    DCD    0
        0x00006b74:    ffffffff    ....    DCD    4294967295
        0x00006b78:    ffffffff    ....    DCD    4294967295
        0x00006b7c:    ffffffff    ....    DCD    4294967295
        0x00006b80:    00000000    ....    DCD    0
        0x00006b84:    00000000    ....    DCD    0
        0x00006b88:    00000000    ....    DCD    0
        0x00006b8c:    ffffffff    ....    DCD    4294967295
        0x00006b90:    ffffffff    ....    DCD    4294967295
        0x00006b94:    ffffffff    ....    DCD    4294967295
        0x00006b98:    00000000    ....    DCD    0
        0x00006b9c:    ffffffff    ....    DCD    4294967295
        0x00006ba0:    ffffffff    ....    DCD    4294967295
        0x00006ba4:    00000000    ....    DCD    0
        0x00006ba8:    ffffffff    ....    DCD    4294967295
        0x00006bac:    ffffffff    ....    DCD    4294967295
        0x00006bb0:    00000000    ....    DCD    0
        0x00006bb4:    ffffffff    ....    DCD    4294967295
        0x00006bb8:    ffffffff    ....    DCD    4294967295
        0x00006bbc:    00000000    ....    DCD    0
        0x00006bc0:    ffffffff    ....    DCD    4294967295
        0x00006bc4:    ffffffff    ....    DCD    4294967295
        0x00006bc8:    ffffffff    ....    DCD    4294967295
        0x00006bcc:    00000000    ....    DCD    0
        0x00006bd0:    00000000    ....    DCD    0
        0x00006bd4:    ffffffff    ....    DCD    4294967295
        0x00006bd8:    ffffffff    ....    DCD    4294967295
        0x00006bdc:    ffffffff    ....    DCD    4294967295
        0x00006be0:    ffffffff    ....    DCD    4294967295
        0x00006be4:    00000000    ....    DCD    0
        0x00006be8:    00000000    ....    DCD    0
        0x00006bec:    ffffffff    ....    DCD    4294967295
        0x00006bf0:    ffffffff    ....    DCD    4294967295
        0x00006bf4:    ffffffff    ....    DCD    4294967295
        0x00006bf8:    ffffffff    ....    DCD    4294967295
        0x00006bfc:    ffffffff    ....    DCD    4294967295
        0x00006c00:    ffffffff    ....    DCD    4294967295
        0x00006c04:    ffffffff    ....    DCD    4294967295
        0x00006c08:    ffffffff    ....    DCD    4294967295
    letter_7
        0x00006c0c:    ffffffff    ....    DCD    4294967295
        0x00006c10:    ffffffff    ....    DCD    4294967295
        0x00006c14:    ffffffff    ....    DCD    4294967295
        0x00006c18:    ffffffff    ....    DCD    4294967295
        0x00006c1c:    ffffffff    ....    DCD    4294967295
        0x00006c20:    ffffffff    ....    DCD    4294967295
        0x00006c24:    ffffffff    ....    DCD    4294967295
        0x00006c28:    00000000    ....    DCD    0
        0x00006c2c:    00000000    ....    DCD    0
        0x00006c30:    00000000    ....    DCD    0
        0x00006c34:    00000000    ....    DCD    0
        0x00006c38:    ffffffff    ....    DCD    4294967295
        0x00006c3c:    ffffffff    ....    DCD    4294967295
        0x00006c40:    00000000    ....    DCD    0
        0x00006c44:    00000000    ....    DCD    0
        0x00006c48:    00000000    ....    DCD    0
        0x00006c4c:    00000000    ....    DCD    0
        0x00006c50:    ffffffff    ....    DCD    4294967295
        0x00006c54:    ffffffff    ....    DCD    4294967295
        0x00006c58:    ffffffff    ....    DCD    4294967295
        0x00006c5c:    ffffffff    ....    DCD    4294967295
        0x00006c60:    ffffffff    ....    DCD    4294967295
        0x00006c64:    00000000    ....    DCD    0
        0x00006c68:    ffffffff    ....    DCD    4294967295
        0x00006c6c:    ffffffff    ....    DCD    4294967295
        0x00006c70:    ffffffff    ....    DCD    4294967295
        0x00006c74:    ffffffff    ....    DCD    4294967295
        0x00006c78:    ffffffff    ....    DCD    4294967295
        0x00006c7c:    00000000    ....    DCD    0
        0x00006c80:    ffffffff    ....    DCD    4294967295
        0x00006c84:    ffffffff    ....    DCD    4294967295
        0x00006c88:    ffffffff    ....    DCD    4294967295
        0x00006c8c:    ffffffff    ....    DCD    4294967295
        0x00006c90:    00000000    ....    DCD    0
        0x00006c94:    ffffffff    ....    DCD    4294967295
        0x00006c98:    ffffffff    ....    DCD    4294967295
        0x00006c9c:    ffffffff    ....    DCD    4294967295
        0x00006ca0:    ffffffff    ....    DCD    4294967295
        0x00006ca4:    ffffffff    ....    DCD    4294967295
        0x00006ca8:    00000000    ....    DCD    0
        0x00006cac:    ffffffff    ....    DCD    4294967295
        0x00006cb0:    ffffffff    ....    DCD    4294967295
        0x00006cb4:    ffffffff    ....    DCD    4294967295
        0x00006cb8:    ffffffff    ....    DCD    4294967295
        0x00006cbc:    00000000    ....    DCD    0
        0x00006cc0:    ffffffff    ....    DCD    4294967295
        0x00006cc4:    ffffffff    ....    DCD    4294967295
        0x00006cc8:    ffffffff    ....    DCD    4294967295
        0x00006ccc:    ffffffff    ....    DCD    4294967295
        0x00006cd0:    ffffffff    ....    DCD    4294967295
        0x00006cd4:    00000000    ....    DCD    0
        0x00006cd8:    ffffffff    ....    DCD    4294967295
        0x00006cdc:    ffffffff    ....    DCD    4294967295
        0x00006ce0:    ffffffff    ....    DCD    4294967295
        0x00006ce4:    ffffffff    ....    DCD    4294967295
        0x00006ce8:    ffffffff    ....    DCD    4294967295
        0x00006cec:    00000000    ....    DCD    0
        0x00006cf0:    ffffffff    ....    DCD    4294967295
        0x00006cf4:    ffffffff    ....    DCD    4294967295
        0x00006cf8:    ffffffff    ....    DCD    4294967295
        0x00006cfc:    ffffffff    ....    DCD    4294967295
        0x00006d00:    ffffffff    ....    DCD    4294967295
        0x00006d04:    00000000    ....    DCD    0
        0x00006d08:    ffffffff    ....    DCD    4294967295
        0x00006d0c:    ffffffff    ....    DCD    4294967295
        0x00006d10:    ffffffff    ....    DCD    4294967295
        0x00006d14:    ffffffff    ....    DCD    4294967295
        0x00006d18:    ffffffff    ....    DCD    4294967295
        0x00006d1c:    ffffffff    ....    DCD    4294967295
        0x00006d20:    ffffffff    ....    DCD    4294967295
        0x00006d24:    ffffffff    ....    DCD    4294967295
        0x00006d28:    ffffffff    ....    DCD    4294967295
    letter_8
        0x00006d2c:    ffffffff    ....    DCD    4294967295
        0x00006d30:    ffffffff    ....    DCD    4294967295
        0x00006d34:    ffffffff    ....    DCD    4294967295
        0x00006d38:    ffffffff    ....    DCD    4294967295
        0x00006d3c:    ffffffff    ....    DCD    4294967295
        0x00006d40:    ffffffff    ....    DCD    4294967295
        0x00006d44:    ffffffff    ....    DCD    4294967295
        0x00006d48:    ffffffff    ....    DCD    4294967295
        0x00006d4c:    00000000    ....    DCD    0
        0x00006d50:    00000000    ....    DCD    0
        0x00006d54:    ffffffff    ....    DCD    4294967295
        0x00006d58:    ffffffff    ....    DCD    4294967295
        0x00006d5c:    ffffffff    ....    DCD    4294967295
        0x00006d60:    ffffffff    ....    DCD    4294967295
        0x00006d64:    00000000    ....    DCD    0
        0x00006d68:    00000000    ....    DCD    0
        0x00006d6c:    ffffffff    ....    DCD    4294967295
        0x00006d70:    ffffffff    ....    DCD    4294967295
        0x00006d74:    ffffffff    ....    DCD    4294967295
        0x00006d78:    00000000    ....    DCD    0
        0x00006d7c:    ffffffff    ....    DCD    4294967295
        0x00006d80:    ffffffff    ....    DCD    4294967295
        0x00006d84:    00000000    ....    DCD    0
        0x00006d88:    ffffffff    ....    DCD    4294967295
        0x00006d8c:    ffffffff    ....    DCD    4294967295
        0x00006d90:    00000000    ....    DCD    0
        0x00006d94:    ffffffff    ....    DCD    4294967295
        0x00006d98:    ffffffff    ....    DCD    4294967295
        0x00006d9c:    00000000    ....    DCD    0
        0x00006da0:    ffffffff    ....    DCD    4294967295
        0x00006da4:    ffffffff    ....    DCD    4294967295
        0x00006da8:    ffffffff    ....    DCD    4294967295
        0x00006dac:    00000000    ....    DCD    0
        0x00006db0:    00000000    ....    DCD    0
        0x00006db4:    ffffffff    ....    DCD    4294967295
        0x00006db8:    ffffffff    ....    DCD    4294967295
        0x00006dbc:    ffffffff    ....    DCD    4294967295
        0x00006dc0:    ffffffff    ....    DCD    4294967295
        0x00006dc4:    00000000    ....    DCD    0
        0x00006dc8:    00000000    ....    DCD    0
        0x00006dcc:    ffffffff    ....    DCD    4294967295
        0x00006dd0:    ffffffff    ....    DCD    4294967295
        0x00006dd4:    ffffffff    ....    DCD    4294967295
        0x00006dd8:    00000000    ....    DCD    0
        0x00006ddc:    ffffffff    ....    DCD    4294967295
        0x00006de0:    ffffffff    ....    DCD    4294967295
        0x00006de4:    00000000    ....    DCD    0
        0x00006de8:    ffffffff    ....    DCD    4294967295
        0x00006dec:    ffffffff    ....    DCD    4294967295
        0x00006df0:    00000000    ....    DCD    0
        0x00006df4:    ffffffff    ....    DCD    4294967295
        0x00006df8:    ffffffff    ....    DCD    4294967295
        0x00006dfc:    00000000    ....    DCD    0
        0x00006e00:    ffffffff    ....    DCD    4294967295
        0x00006e04:    ffffffff    ....    DCD    4294967295
        0x00006e08:    ffffffff    ....    DCD    4294967295
        0x00006e0c:    00000000    ....    DCD    0
        0x00006e10:    00000000    ....    DCD    0
        0x00006e14:    ffffffff    ....    DCD    4294967295
        0x00006e18:    ffffffff    ....    DCD    4294967295
        0x00006e1c:    ffffffff    ....    DCD    4294967295
        0x00006e20:    ffffffff    ....    DCD    4294967295
        0x00006e24:    00000000    ....    DCD    0
        0x00006e28:    00000000    ....    DCD    0
        0x00006e2c:    ffffffff    ....    DCD    4294967295
        0x00006e30:    ffffffff    ....    DCD    4294967295
        0x00006e34:    ffffffff    ....    DCD    4294967295
        0x00006e38:    ffffffff    ....    DCD    4294967295
        0x00006e3c:    ffffffff    ....    DCD    4294967295
        0x00006e40:    ffffffff    ....    DCD    4294967295
        0x00006e44:    ffffffff    ....    DCD    4294967295
        0x00006e48:    ffffffff    ....    DCD    4294967295
    letter_9
        0x00006e4c:    ffffffff    ....    DCD    4294967295
        0x00006e50:    ffffffff    ....    DCD    4294967295
        0x00006e54:    ffffffff    ....    DCD    4294967295
        0x00006e58:    ffffffff    ....    DCD    4294967295
        0x00006e5c:    ffffffff    ....    DCD    4294967295
        0x00006e60:    ffffffff    ....    DCD    4294967295
        0x00006e64:    ffffffff    ....    DCD    4294967295
        0x00006e68:    ffffffff    ....    DCD    4294967295
        0x00006e6c:    00000000    ....    DCD    0
        0x00006e70:    00000000    ....    DCD    0
        0x00006e74:    ffffffff    ....    DCD    4294967295
        0x00006e78:    ffffffff    ....    DCD    4294967295
        0x00006e7c:    ffffffff    ....    DCD    4294967295
        0x00006e80:    ffffffff    ....    DCD    4294967295
        0x00006e84:    00000000    ....    DCD    0
        0x00006e88:    00000000    ....    DCD    0
        0x00006e8c:    ffffffff    ....    DCD    4294967295
        0x00006e90:    ffffffff    ....    DCD    4294967295
        0x00006e94:    ffffffff    ....    DCD    4294967295
        0x00006e98:    00000000    ....    DCD    0
        0x00006e9c:    ffffffff    ....    DCD    4294967295
        0x00006ea0:    ffffffff    ....    DCD    4294967295
        0x00006ea4:    00000000    ....    DCD    0
        0x00006ea8:    ffffffff    ....    DCD    4294967295
        0x00006eac:    ffffffff    ....    DCD    4294967295
        0x00006eb0:    00000000    ....    DCD    0
        0x00006eb4:    ffffffff    ....    DCD    4294967295
        0x00006eb8:    ffffffff    ....    DCD    4294967295
        0x00006ebc:    00000000    ....    DCD    0
        0x00006ec0:    ffffffff    ....    DCD    4294967295
        0x00006ec4:    ffffffff    ....    DCD    4294967295
        0x00006ec8:    ffffffff    ....    DCD    4294967295
        0x00006ecc:    00000000    ....    DCD    0
        0x00006ed0:    00000000    ....    DCD    0
        0x00006ed4:    00000000    ....    DCD    0
        0x00006ed8:    ffffffff    ....    DCD    4294967295
        0x00006edc:    ffffffff    ....    DCD    4294967295
        0x00006ee0:    ffffffff    ....    DCD    4294967295
        0x00006ee4:    00000000    ....    DCD    0
        0x00006ee8:    00000000    ....    DCD    0
        0x00006eec:    00000000    ....    DCD    0
        0x00006ef0:    ffffffff    ....    DCD    4294967295
        0x00006ef4:    ffffffff    ....    DCD    4294967295
        0x00006ef8:    ffffffff    ....    DCD    4294967295
        0x00006efc:    ffffffff    ....    DCD    4294967295
        0x00006f00:    ffffffff    ....    DCD    4294967295
        0x00006f04:    00000000    ....    DCD    0
        0x00006f08:    ffffffff    ....    DCD    4294967295
        0x00006f0c:    ffffffff    ....    DCD    4294967295
        0x00006f10:    ffffffff    ....    DCD    4294967295
        0x00006f14:    ffffffff    ....    DCD    4294967295
        0x00006f18:    ffffffff    ....    DCD    4294967295
        0x00006f1c:    00000000    ....    DCD    0
        0x00006f20:    ffffffff    ....    DCD    4294967295
        0x00006f24:    ffffffff    ....    DCD    4294967295
        0x00006f28:    ffffffff    ....    DCD    4294967295
        0x00006f2c:    00000000    ....    DCD    0
        0x00006f30:    00000000    ....    DCD    0
        0x00006f34:    ffffffff    ....    DCD    4294967295
        0x00006f38:    ffffffff    ....    DCD    4294967295
        0x00006f3c:    ffffffff    ....    DCD    4294967295
        0x00006f40:    ffffffff    ....    DCD    4294967295
        0x00006f44:    00000000    ....    DCD    0
        0x00006f48:    00000000    ....    DCD    0
        0x00006f4c:    ffffffff    ....    DCD    4294967295
        0x00006f50:    ffffffff    ....    DCD    4294967295
        0x00006f54:    ffffffff    ....    DCD    4294967295
        0x00006f58:    ffffffff    ....    DCD    4294967295
        0x00006f5c:    ffffffff    ....    DCD    4294967295
        0x00006f60:    ffffffff    ....    DCD    4294967295
        0x00006f64:    ffffffff    ....    DCD    4294967295
        0x00006f68:    ffffffff    ....    DCD    4294967295
    letter_0
        0x00006f6c:    ffffffff    ....    DCD    4294967295
        0x00006f70:    ffffffff    ....    DCD    4294967295
        0x00006f74:    ffffffff    ....    DCD    4294967295
        0x00006f78:    ffffffff    ....    DCD    4294967295
        0x00006f7c:    ffffffff    ....    DCD    4294967295
        0x00006f80:    ffffffff    ....    DCD    4294967295
        0x00006f84:    ffffffff    ....    DCD    4294967295
        0x00006f88:    ffffffff    ....    DCD    4294967295
        0x00006f8c:    00000000    ....    DCD    0
        0x00006f90:    00000000    ....    DCD    0
        0x00006f94:    ffffffff    ....    DCD    4294967295
        0x00006f98:    ffffffff    ....    DCD    4294967295
        0x00006f9c:    ffffffff    ....    DCD    4294967295
        0x00006fa0:    ffffffff    ....    DCD    4294967295
        0x00006fa4:    00000000    ....    DCD    0
        0x00006fa8:    00000000    ....    DCD    0
        0x00006fac:    ffffffff    ....    DCD    4294967295
        0x00006fb0:    ffffffff    ....    DCD    4294967295
        0x00006fb4:    ffffffff    ....    DCD    4294967295
        0x00006fb8:    00000000    ....    DCD    0
        0x00006fbc:    ffffffff    ....    DCD    4294967295
        0x00006fc0:    ffffffff    ....    DCD    4294967295
        0x00006fc4:    00000000    ....    DCD    0
        0x00006fc8:    ffffffff    ....    DCD    4294967295
        0x00006fcc:    ffffffff    ....    DCD    4294967295
        0x00006fd0:    00000000    ....    DCD    0
        0x00006fd4:    ffffffff    ....    DCD    4294967295
        0x00006fd8:    ffffffff    ....    DCD    4294967295
        0x00006fdc:    00000000    ....    DCD    0
        0x00006fe0:    ffffffff    ....    DCD    4294967295
        0x00006fe4:    ffffffff    ....    DCD    4294967295
        0x00006fe8:    00000000    ....    DCD    0
        0x00006fec:    00000000    ....    DCD    0
        0x00006ff0:    ffffffff    ....    DCD    4294967295
        0x00006ff4:    00000000    ....    DCD    0
        0x00006ff8:    ffffffff    ....    DCD    4294967295
        0x00006ffc:    ffffffff    ....    DCD    4294967295
        0x00007000:    00000000    ....    DCD    0
        0x00007004:    00000000    ....    DCD    0
        0x00007008:    ffffffff    ....    DCD    4294967295
        0x0000700c:    00000000    ....    DCD    0
        0x00007010:    ffffffff    ....    DCD    4294967295
        0x00007014:    ffffffff    ....    DCD    4294967295
        0x00007018:    00000000    ....    DCD    0
        0x0000701c:    ffffffff    ....    DCD    4294967295
        0x00007020:    00000000    ....    DCD    0
        0x00007024:    00000000    ....    DCD    0
        0x00007028:    ffffffff    ....    DCD    4294967295
        0x0000702c:    ffffffff    ....    DCD    4294967295
        0x00007030:    00000000    ....    DCD    0
        0x00007034:    ffffffff    ....    DCD    4294967295
        0x00007038:    00000000    ....    DCD    0
        0x0000703c:    00000000    ....    DCD    0
        0x00007040:    ffffffff    ....    DCD    4294967295
        0x00007044:    ffffffff    ....    DCD    4294967295
        0x00007048:    ffffffff    ....    DCD    4294967295
        0x0000704c:    00000000    ....    DCD    0
        0x00007050:    00000000    ....    DCD    0
        0x00007054:    ffffffff    ....    DCD    4294967295
        0x00007058:    ffffffff    ....    DCD    4294967295
        0x0000705c:    ffffffff    ....    DCD    4294967295
        0x00007060:    ffffffff    ....    DCD    4294967295
        0x00007064:    00000000    ....    DCD    0
        0x00007068:    00000000    ....    DCD    0
        0x0000706c:    ffffffff    ....    DCD    4294967295
        0x00007070:    ffffffff    ....    DCD    4294967295
        0x00007074:    ffffffff    ....    DCD    4294967295
        0x00007078:    ffffffff    ....    DCD    4294967295
        0x0000707c:    ffffffff    ....    DCD    4294967295
        0x00007080:    ffffffff    ....    DCD    4294967295
        0x00007084:    ffffffff    ....    DCD    4294967295
        0x00007088:    ffffffff    ....    DCD    4294967295
    .constdata
    clear
        0x0000708c:    ffffffff    ....    DCD    4294967295
        0x00007090:    ffffffff    ....    DCD    4294967295
        0x00007094:    ffffffff    ....    DCD    4294967295
        0x00007098:    ffffffff    ....    DCD    4294967295
        0x0000709c:    ffffffff    ....    DCD    4294967295
        0x000070a0:    ffffffff    ....    DCD    4294967295
        0x000070a4:    ffffffff    ....    DCD    4294967295
        0x000070a8:    ffffffff    ....    DCD    4294967295
        0x000070ac:    ffffffff    ....    DCD    4294967295
        0x000070b0:    ffffffff    ....    DCD    4294967295
        0x000070b4:    ffffffff    ....    DCD    4294967295
        0x000070b8:    ffffffff    ....    DCD    4294967295
        0x000070bc:    ffffffff    ....    DCD    4294967295
        0x000070c0:    ffffffff    ....    DCD    4294967295
        0x000070c4:    ffffffff    ....    DCD    4294967295
        0x000070c8:    ffffffff    ....    DCD    4294967295
        0x000070cc:    ffffffff    ....    DCD    4294967295
        0x000070d0:    ffffffff    ....    DCD    4294967295
        0x000070d4:    ffffffff    ....    DCD    4294967295
        0x000070d8:    ffffffff    ....    DCD    4294967295
        0x000070dc:    ffffffff    ....    DCD    4294967295
        0x000070e0:    ffffffff    ....    DCD    4294967295
        0x000070e4:    ffffffff    ....    DCD    4294967295
        0x000070e8:    ffffffff    ....    DCD    4294967295
        0x000070ec:    ffffffff    ....    DCD    4294967295
        0x000070f0:    ffffffff    ....    DCD    4294967295
        0x000070f4:    ffffffff    ....    DCD    4294967295
        0x000070f8:    ffffffff    ....    DCD    4294967295
        0x000070fc:    ffffffff    ....    DCD    4294967295
        0x00007100:    ffffffff    ....    DCD    4294967295
        0x00007104:    ffffffff    ....    DCD    4294967295
        0x00007108:    ffffffff    ....    DCD    4294967295
        0x0000710c:    ffffffff    ....    DCD    4294967295
        0x00007110:    ffffffff    ....    DCD    4294967295
        0x00007114:    ffffffff    ....    DCD    4294967295
        0x00007118:    ffffffff    ....    DCD    4294967295
        0x0000711c:    ffffffff    ....    DCD    4294967295
        0x00007120:    ffffffff    ....    DCD    4294967295
        0x00007124:    ffffffff    ....    DCD    4294967295
        0x00007128:    ffffffff    ....    DCD    4294967295
        0x0000712c:    ffffffff    ....    DCD    4294967295
        0x00007130:    ffffffff    ....    DCD    4294967295
        0x00007134:    ffffffff    ....    DCD    4294967295
        0x00007138:    ffffffff    ....    DCD    4294967295
        0x0000713c:    ffffffff    ....    DCD    4294967295
        0x00007140:    ffffffff    ....    DCD    4294967295
        0x00007144:    ffffffff    ....    DCD    4294967295
        0x00007148:    ffffffff    ....    DCD    4294967295
        0x0000714c:    ffffffff    ....    DCD    4294967295
        0x00007150:    ffffffff    ....    DCD    4294967295
        0x00007154:    ffffffff    ....    DCD    4294967295
        0x00007158:    ffffffff    ....    DCD    4294967295
        0x0000715c:    ffffffff    ....    DCD    4294967295
        0x00007160:    ffffffff    ....    DCD    4294967295
        0x00007164:    ffffffff    ....    DCD    4294967295
        0x00007168:    ffffffff    ....    DCD    4294967295
        0x0000716c:    ffffffff    ....    DCD    4294967295
        0x00007170:    ffffffff    ....    DCD    4294967295
        0x00007174:    ffffffff    ....    DCD    4294967295
        0x00007178:    ffffffff    ....    DCD    4294967295
        0x0000717c:    ffffffff    ....    DCD    4294967295
        0x00007180:    ffffffff    ....    DCD    4294967295
        0x00007184:    ffffffff    ....    DCD    4294967295
        0x00007188:    ffffffff    ....    DCD    4294967295
        0x0000718c:    ffffffff    ....    DCD    4294967295
        0x00007190:    ffffffff    ....    DCD    4294967295
        0x00007194:    ffffffff    ....    DCD    4294967295
        0x00007198:    ffffffff    ....    DCD    4294967295
        0x0000719c:    ffffffff    ....    DCD    4294967295
        0x000071a0:    ffffffff    ....    DCD    4294967295
        0x000071a4:    ffffffff    ....    DCD    4294967295
        0x000071a8:    ffffffff    ....    DCD    4294967295
    .constdata
    ddiv_reciptbl
        0x000071ac:    7e7f8080    ...~    DCD    2122285184
        0x000071b0:    7a7b7c7d    }|{z    DCD    2054913149
        0x000071b4:    76777879    yxwv    DCD    1987541113
        0x000071b8:    73747576    vuts    DCD    1937012086
        0x000071bc:    70717172    rqqp    DCD    1886482802
        0x000071c0:    6d6e6e6f    onnm    DCD    1835953775
        0x000071c4:    6a6b6c6c    llkj    DCD    1785425004
        0x000071c8:    6868696a    jihh    DCD    1751673194
        0x000071cc:    65666667    gffe    DCD    1701209703
        0x000071d0:    63636464    ddcc    DCD    1667458148
        0x000071d4:    60616162    baa`    DCD    1616994658
        0x000071d8:    5e5f5f60    `__^    DCD    1583308640
        0x000071dc:    5c5d5d5e    ^]]\    DCD    1549622622
        0x000071e0:    5a5b5b5c    \[[Z    DCD    1515936604
        0x000071e4:    5859595a    ZYYX    DCD    1482250586
        0x000071e8:    56575758    XWWV    DCD    1448564568
        0x000071ec:    55555556    VUUU    DCD    1431655766
        0x000071f0:    53535454    TTSS    DCD    1397970004
        0x000071f4:    51525252    RRRQ    DCD    1364349522
        0x000071f8:    50505051    QPPP    DCD    1347440721
        0x000071fc:    4e4f4f4f    OOON    DCD    1313820495
        0x00007200:    4d4d4d4e    NMMM    DCD    1296911694
        0x00007204:    4b4c4c4c    LLLK    DCD    1263291468
        0x00007208:    4a4a4b4b    KKJJ    DCD    1246382923
        0x0000720c:    4949494a    JIII    DCD    1229539658
        0x00007210:    47484848    HHHG    DCD    1195919432
        0x00007214:    46474747    GGGF    DCD    1179076423
        0x00007218:    45454646    FFEE    DCD    1162167878
        0x0000721c:    44444445    EDDD    DCD    1145324613
        0x00007220:    43434344    DCCC    DCD    1128481604
        0x00007224:    42424243    CBBB    DCD    1111638595
        0x00007228:    41414142    BAAA    DCD    1094795586
    .constdata
    fdiv_tab
        0x0000722c:    84838281    ....    DCD    2223211137
        0x00007230:    88878685    ....    DCD    2290583173
        0x00007234:    8d8c8b89    ....    DCD    2374798217
        0x00007238:    92918f8e    ....    DCD    2459013006
        0x0000723c:    97969593    ....    DCD    2543228307
        0x00007240:    9d9c9a99    ....    DCD    2644286105
        0x00007244:    a3a2a09f    ....    DCD    2745344159
        0x00007248:    aaa8a7a5    ....    DCD    2863179685
        0x0000724c:    b2b0aeac    ....    DCD    2997923500
        0x00007250:    b9b7b5b3    ....    DCD    3115824563
        0x00007254:    c2c0bebc    ....    DCD    3267411644
        0x00007258:    ccc9c7c5    ....    DCD    3435775941
        0x0000725c:    d7d4d1ce    ....    DCD    3621048782
        0x00007260:    e2dfdcd9    ....    DCD    3806321881
        0x00007264:    f0ece9e6    ....    DCD    4042058214
        0x00007268:    fefaf7f3    ....    DCD    4277860339
    Region$$Table$$Base
        0x0000726c:    0000728c    .r..    DCD    29324
        0x00007270:    20000000    ...     DCD    536870912
        0x00007274:    00000038    8...    DCD    56
        0x00007278:    00000090    ....    DCD    144
        0x0000727c:    000072c4    .r..    DCD    29380
        0x00007280:    20000038    8..     DCD    536870968
        0x00007284:    00000a08    ....    DCD    2568
        0x00007288:    000000ac    ....    DCD    172
    Region$$Table$$Limit

====================================

** Section #2

    Name        : RW_IRAM1
    Type        : SHT_PROGBITS (0x00000001)
    Flags       : SHF_ALLOC + SHF_WRITE (0x00000003)
    Addr        : 0x20000000
    File Offset : 29376 (0x72c0)
    Size        : 56 bytes (0x38)
    Link        : SHN_UNDEF
    Info        : 0
    Alignment   : 4
    Entry Size  : 0


====================================

** Section #3

    Name        : RW_IRAM1
    Type        : SHT_NOBITS (0x00000008)
    Flags       : SHF_ALLOC + SHF_WRITE (0x00000003)
    Addr        : 0x20000038
    File Offset : 29432 (0x72f8)
    Size        : 2568 bytes (0xa08)
    Link        : SHN_UNDEF
    Info        : 0
    Alignment   : 16
    Entry Size  : 0


====================================

** Section #4

    Name        : .debug_abbrev
    Type        : SHT_PROGBITS (0x00000001)
    Flags       : None (0x00000000)
    Addr        : 0x00000000
    File Offset : 29432 (0x72f8)
    Size        : 1476 bytes (0x5c4)
    Link        : SHN_UNDEF
    Info        : 0
    Alignment   : 1
    Entry Size  : 0


====================================

** Section #5

    Name        : .debug_frame
    Type        : SHT_PROGBITS (0x00000001)
    Flags       : None (0x00000000)
    Addr        : 0x00000000
    File Offset : 30908 (0x78bc)
    Size        : 1832 bytes (0x728)
    Link        : SHN_UNDEF
    Info        : 0
    Alignment   : 1
    Entry Size  : 0


====================================

** Section #6

    Name        : .debug_info
    Type        : SHT_PROGBITS (0x00000001)
    Flags       : None (0x00000000)
    Addr        : 0x00000000
    File Offset : 32740 (0x7fe4)
    Size        : 11660 bytes (0x2d8c)
    Link        : SHN_UNDEF
    Info        : 0
    Alignment   : 1
    Entry Size  : 0


====================================

** Section #7

    Name        : .debug_line
    Type        : SHT_PROGBITS (0x00000001)
    Flags       : None (0x00000000)
    Addr        : 0x00000000
    File Offset : 44400 (0xad70)
    Size        : 7484 bytes (0x1d3c)
    Link        : SHN_UNDEF
    Info        : 0
    Alignment   : 1
    Entry Size  : 0


====================================

** Section #8

    Name        : .debug_loc
    Type        : SHT_PROGBITS (0x00000001)
    Flags       : None (0x00000000)
    Addr        : 0x00000000
    File Offset : 51884 (0xcaac)
    Size        : 1560 bytes (0x618)
    Link        : SHN_UNDEF
    Info        : 0
    Alignment   : 1
    Entry Size  : 0


====================================

** Section #9

    Name        : .debug_macinfo
    Type        : SHT_PROGBITS (0x00000001)
    Flags       : None (0x00000000)
    Addr        : 0x00000000
    File Offset : 53444 (0xd0c4)
    Size        : 3080 bytes (0xc08)
    Link        : SHN_UNDEF
    Info        : 0
    Alignment   : 1
    Entry Size  : 0


====================================

** Section #10

    Name        : .debug_pubnames
    Type        : SHT_PROGBITS (0x00000001)
    Flags       : None (0x00000000)
    Addr        : 0x00000000
    File Offset : 56524 (0xdccc)
    Size        : 1535 bytes (0x5ff)
    Link        : SHN_UNDEF
    Info        : 0
    Alignment   : 1
    Entry Size  : 0


====================================

** Section #11

    Name        : .symtab
    Type        : SHT_SYMTAB (0x00000002)
    Flags       : None (0x00000000)
    Addr        : 0x00000000
    File Offset : 58060 (0xe2cc)
    Size        : 7600 bytes (0x1db0)
    Link        : Section 12 (.strtab)
    Info        : Last local symbol no = 290
    Alignment   : 4
    Entry Size  : 16


====================================

** Section #12

    Name        : .strtab
    Type        : SHT_STRTAB (0x00000003)
    Flags       : None (0x00000000)
    Addr        : 0x00000000
    File Offset : 65660 (0x1007c)
    Size        : 5592 bytes (0x15d8)
    Link        : SHN_UNDEF
    Info        : 0
    Alignment   : 1
    Entry Size  : 0


====================================

** Section #13

    Name        : .note
    Type        : SHT_NOTE (0x00000007)
    Flags       : None (0x00000000)
    Addr        : 0x00000000
    File Offset : 71252 (0x11654)
    Size        : 28 bytes (0x1c)
    Link        : SHN_UNDEF
    Info        : 0
    Alignment   : 4
    Entry Size  : 0

        Section     Segment
    ====================================

              1           0
              2           0
              3           0

====================================

** Section #14

    Name        : .comment
    Type        : SHT_PROGBITS (0x00000001)
    Flags       : None (0x00000000)
    Addr        : 0x00000000
    File Offset : 71280 (0x11670)
    Size        : 6036 bytes (0x1794)
    Link        : SHN_UNDEF
    Info        : 0
    Alignment   : 1
    Entry Size  : 0

    Component: ARM Compiler 5.06 update 6 (build 750) Tool: armlink [4d35ed]
    ArmLink --strict --callgraph --load_addr_map_info --map --symbols --xref --diag_suppress=9931 --cpu=Cortex-M0 --list=.\Listings\SDR_Pad.map --output=.\SDR_Pad.axf --scatter=.\SDR_Pad.sct --info=summarysizes,sizes,totals,unused,veneers

    D:\keli\ARM\ARMCC\Bin\..\lib\armlib\c_p.l
    D:\keli\ARM\ARMCC\Bin\..\lib\armlib\fz_ps.l
    D:\keli\ARM\ARMCC\Bin\..\lib\armlib\h_p.l
    D:\keli\ARM\ARMCC\Bin\..\lib\armlib\m_ps.l
    D:\keli\ARM\ARMCC\Bin\..\lib\armlib\vfpsupport.l
    Input Comments:
    
    main.o
    
    Component: ARM Compiler 5.06 update 6 (build 750) Tool: ArmCC [4d3637]
    ArmCC --c99 --split_sections --debug -c --gnu -o.\main.o --depend=.\main.d --cpu=Cortex-M0 --apcs=interwork -O0 --diag_suppress=9931 -I.\RTE\_Target_1 -ID:\keli\pack\Keil\V2M-MPS2_CMx_BSP\1.7.1\Device\CMSDK_CM0\Include -ID:\keli\ARM\CMSIS\Include -D__EVAL -D__UVISION_VERSION=530 -DCMSDK_CM0 -D_RTE_ --omf_browse=.\main.crf ..\src\main.c
    
    startup_cmsdk_cm0.o
    
    Component: ARM Compiler 5.06 update 6 (build 750) Tool: armasm [4d35ec]
    ArmAsm --debug --xref --diag_suppress=9931 --cpu=Cortex-M0 --apcs=interwork --depend=.\startup_cmsdk_cm0.d  -I.\RTE\_Target_1 -ID:\keli\pack\Keil\V2M-MPS2_CMx_BSP\1.7.1\Device\CMSDK_CM0\Include -ID:\keli\ARM\CMSIS\Include --predefine="__EV
    
    
    buzzer.o
    
    Component: ARM Compiler 5.06 update 6 (build 750) Tool: ArmCC [4d3637]
    ArmCC --c99 --split_sections --debug -c --gnu -o.\buzzer.o --depend=.\buzzer.d --cpu=Cortex-M0 --apcs=interwork -O0 --diag_suppress=9931 -I.\RTE\_Target_1 -ID:\keli\pack\Keil\V2M-MPS2_CMx_BSP\1.7.1\Device\CMSDK_CM0\Include -ID:\keli\ARM\CMSIS\Include -D__EVAL -D__UVISION_VERSION=530 -DCMSDK_CM0 -D_RTE_ --omf_browse=.\buzzer.crf ..\src\Driver\Buzzer.c
    
    code_def.o
    
    Component: ARM Compiler 5.06 update 6 (build 750) Tool: ArmCC [4d3637]
    ArmCC --c99 --split_sections --debug -c --gnu -o.\code_def.o --depend=.\code_def.d --cpu=Cortex-M0 --apcs=interwork -O0 --diag_suppress=9931 -I.\RTE\_Target_1 -ID:\keli\pack\Keil\V2M-MPS2_CMx_BSP\1.7.1\Device\CMSDK_CM0\Include -ID:\keli\ARM\CMSIS\Include -D__EVAL -D__UVISION_VERSION=530 -DCMSDK_CM0 -D_RTE_ --omf_browse=.\code_def.crf ..\src\Driver\code_def.c
    
    lcd.o
    
    Component: ARM Compiler 5.06 update 6 (build 750) Tool: ArmCC [4d3637]
    ArmCC --c99 --split_sections --debug -c --gnu -o.\lcd.o --depend=.\lcd.d --cpu=Cortex-M0 --apcs=interwork -O0 --diag_suppress=9931 -I.\RTE\_Target_1 -ID:\keli\pack\Keil\V2M-MPS2_CMx_BSP\1.7.1\Device\CMSDK_CM0\Include -ID:\keli\ARM\CMSIS\Include -D__EVAL -D__UVISION_VERSION=530 -DCMSDK_CM0 -D_RTE_ --omf_browse=.\lcd.crf ..\src\Driver\LCD.c
    
    timer.o
    
    Component: ARM Compiler 5.06 update 6 (build 750) Tool: ArmCC [4d3637]
    ArmCC --c99 --split_sections --debug -c --gnu -o.\timer.o --depend=.\timer.d --cpu=Cortex-M0 --apcs=interwork -O0 --diag_suppress=9931 -I.\RTE\_Target_1 -ID:\keli\pack\Keil\V2M-MPS2_CMx_BSP\1.7.1\Device\CMSDK_CM0\Include -ID:\keli\ARM\CMSIS\Include -D__EVAL -D__UVISION_VERSION=530 -DCMSDK_CM0 -D_RTE_ --omf_browse=.\timer.crf ..\src\Driver\Timer.c
    
    uart.o
    
    Component: ARM Compiler 5.06 update 6 (build 750) Tool: ArmCC [4d3637]
    ArmCC --c99 --split_sections --debug -c --gnu -o.\uart.o --depend=.\uart.d --cpu=Cortex-M0 --apcs=interwork -O0 --diag_suppress=9931 -I.\RTE\_Target_1 -ID:\keli\pack\Keil\V2M-MPS2_CMx_BSP\1.7.1\Device\CMSDK_CM0\Include -ID:\keli\ARM\CMSIS\Include -D__EVAL -D__UVISION_VERSION=530 -DCMSDK_CM0 -D_RTE_ --omf_browse=.\uart.crf ..\src\Driver\UART.c
    
    game.o
    
    Component: ARM Compiler 5.06 update 6 (build 750) Tool: ArmCC [4d3637]
    ArmCC --c99 --split_sections --debug -c --gnu -o.\game.o --depend=.\game.d --cpu=Cortex-M0 --apcs=interwork -O0 --diag_suppress=9931 -I.\RTE\_Target_1 -ID:\keli\pack\Keil\V2M-MPS2_CMx_BSP\1.7.1\Device\CMSDK_CM0\Include -ID:\keli\ARM\CMSIS\Include -D__EVAL -D__UVISION_VERSION=530 -DCMSDK_CM0 -D_RTE_ --omf_browse=.\game.crf ..\src\GameSDK\Game.c
    
    spi.o
    
    Component: ARM Compiler 5.06 update 6 (build 750) Tool: ArmCC [4d3637]
    ArmCC --c99 --split_sections --debug -c --gnu -o.\spi.o --depend=.\spi.d --cpu=Cortex-M0 --apcs=interwork -O0 --diag_suppress=9931 -I.\RTE\_Target_1 -ID:\keli\pack\Keil\V2M-MPS2_CMx_BSP\1.7.1\Device\CMSDK_CM0\Include -ID:\keli\ARM\CMSIS\Include -D__EVAL -D__UVISION_VERSION=530 -DCMSDK_CM0 -D_RTE_ --omf_browse=.\spi.crf ..\src\Driver\SPI.c
    
    tube.o
    
    Component: ARM Compiler 5.06 update 6 (build 750) Tool: ArmCC [4d3637]
    ArmCC --c99 --split_sections --debug -c --gnu -o.\tube.o --depend=.\tube.d --cpu=Cortex-M0 --apcs=interwork -O0 --diag_suppress=9931 -I.\RTE\_Target_1 -ID:\keli\pack\Keil\V2M-MPS2_CMx_BSP\1.7.1\Device\CMSDK_CM0\Include -ID:\keli\ARM\CMSIS\Include -D__EVAL -D__UVISION_VERSION=530 -DCMSDK_CM0 -D_RTE_ --omf_browse=.\tube.crf ..\src\Driver\Tube.c
    
    i2c.o
    
    Component: ARM Compiler 5.06 update 6 (build 750) Tool: ArmCC [4d3637]
    ArmCC --c99 --split_sections --debug -c --gnu -o.\i2c.o --depend=.\i2c.d --cpu=Cortex-M0 --apcs=interwork -O0 --diag_suppress=9931 -I.\RTE\_Target_1 -ID:\keli\pack\Keil\V2M-MPS2_CMx_BSP\1.7.1\Device\CMSDK_CM0\Include -ID:\keli\ARM\CMSIS\Include -D__EVAL -D__UVISION_VERSION=530 -DCMSDK_CM0 -D_RTE_ --omf_browse=.\i2c.crf ..\src\Driver\I2C.c
    
    ethernet.o
    
    Component: ARM Compiler 5.06 update 6 (build 750) Tool: ArmCC [4d3637]
    ArmCC --c99 --split_sections --debug -c --gnu -o.\ethernet.o --depend=.\ethernet.d --cpu=Cortex-M0 --apcs=interwork -O0 --diag_suppress=9931 -I.\RTE\_Target_1 -ID:\keli\pack\Keil\V2M-MPS2_CMx_BSP\1.7.1\Device\CMSDK_CM0\Include -ID:\keli\ARM\CMSIS\Include -D__EVAL -D__UVISION_VERSION=530 -DCMSDK_CM0 -D_RTE_ --omf_browse=.\ethernet.crf ..\src\Driver\Ethernet.c
    
    ledwater.o
    
    Component: ARM Compiler 5.06 update 6 (build 750) Tool: ArmCC [4d3637]
    ArmCC --c99 --split_sections --debug -c --gnu -o.\ledwater.o --depend=.\ledwater.d --cpu=Cortex-M0 --apcs=interwork -O0 --diag_suppress=9931 -I.\RTE\_Target_1 -ID:\keli\pack\Keil\V2M-MPS2_CMx_BSP\1.7.1\Device\CMSDK_CM0\Include -ID:\keli\ARM\CMSIS\Include -D__EVAL -D__UVISION_VERSION=530 -DCMSDK_CM0 -D_RTE_ --omf_browse=.\ledwater.crf ..\src\Driver\ledwater.c
    
    

====================================

** Section #15

    Name        : .shstrtab
    Type        : SHT_STRTAB (0x00000003)
    Flags       : None (0x00000000)
    Addr        : 0x00000000
    File Offset : 77316 (0x12e04)
    Size        : 156 bytes (0x9c)
    Link        : SHN_UNDEF
    Info        : 0
    Alignment   : 1
    Entry Size  : 0


====================================

